
boot_rv32.out:     file format elf32-littleriscv


Disassembly of section .text:

00000000 <_start>:
   0:	0003e117          	auipc	sp,0x3e
   4:	00010113          	mv	sp,sp
   8:	37c000ef          	jal	384 <main>
   c:	10500073          	wfi
  10:	ff1ff06f          	j	0 <_start>

Disassembly of section .text:

00000014 <putbyte>:
  14:	000017b7          	lui	a5,0x1
  18:	ddc7a703          	lw	a4,-548(a5) # ddc <uart>
  1c:	00472783          	lw	a5,4(a4)
  20:	0017f793          	andi	a5,a5,1
  24:	fe079ce3          	bnez	a5,1c <putbyte+0x8>
  28:	00a70023          	sb	a0,0(a4)
  2c:	00008067          	ret

00000030 <putline>:
  30:	00054603          	lbu	a2,0(a0)
  34:	00150693          	addi	a3,a0,1
  38:	02060463          	beqz	a2,60 <putline+0x30>
  3c:	000017b7          	lui	a5,0x1
  40:	ddc7a703          	lw	a4,-548(a5) # ddc <uart>
  44:	00472783          	lw	a5,4(a4)
  48:	0017f793          	andi	a5,a5,1
  4c:	fe079ce3          	bnez	a5,44 <putline+0x14>
  50:	00c70023          	sb	a2,0(a4)
  54:	0006c603          	lbu	a2,0(a3)
  58:	00168693          	addi	a3,a3,1
  5c:	fe0614e3          	bnez	a2,44 <putline+0x14>
  60:	00008067          	ret

00000064 <putnum>:
  64:	00001737          	lui	a4,0x1
  68:	00900793          	li	a5,9
  6c:	ddc72703          	lw	a4,-548(a4) # ddc <uart>
  70:	02a7e063          	bltu	a5,a0,90 <putnum+0x2c>
  74:	03050513          	addi	a0,a0,48
  78:	0ff57513          	zext.b	a0,a0
  7c:	00472783          	lw	a5,4(a4)
  80:	0017f793          	andi	a5,a5,1
  84:	fe079ce3          	bnez	a5,7c <putnum+0x18>
  88:	00a70023          	sb	a0,0(a4)
  8c:	00008067          	ret
  90:	ff650793          	addi	a5,a0,-10
  94:	00500693          	li	a3,5
  98:	02f6e063          	bltu	a3,a5,b8 <putnum+0x54>
  9c:	05750513          	addi	a0,a0,87
  a0:	0ff57513          	zext.b	a0,a0
  a4:	00472783          	lw	a5,4(a4)
  a8:	0017f793          	andi	a5,a5,1
  ac:	fe079ce3          	bnez	a5,a4 <putnum+0x40>
  b0:	00a70023          	sb	a0,0(a4)
  b4:	00008067          	ret
  b8:	00472783          	lw	a5,4(a4)
  bc:	0017f793          	andi	a5,a5,1
  c0:	fe079ce3          	bnez	a5,b8 <putnum+0x54>
  c4:	03f00793          	li	a5,63
  c8:	00f70023          	sb	a5,0(a4)
  cc:	00008067          	ret

000000d0 <putdec>:
  d0:	fe010113          	addi	sp,sp,-32 # 3dfe0 <_end+0x1fe0>
  d4:	00812c23          	sw	s0,24(sp)
  d8:	00912a23          	sw	s1,20(sp)
  dc:	00001737          	lui	a4,0x1
  e0:	00112e23          	sw	ra,28(sp)
  e4:	00900793          	li	a5,9
  e8:	ddc72403          	lw	s0,-548(a4) # ddc <uart>
  ec:	00050493          	mv	s1,a0
  f0:	02a7e863          	bltu	a5,a0,120 <putdec+0x50>
  f4:	03048493          	addi	s1,s1,48
  f8:	0ff4f493          	zext.b	s1,s1
  fc:	00442783          	lw	a5,4(s0)
 100:	0017f793          	andi	a5,a5,1
 104:	fe079ce3          	bnez	a5,fc <putdec+0x2c>
 108:	00940023          	sb	s1,0(s0)
 10c:	01c12083          	lw	ra,28(sp)
 110:	01812403          	lw	s0,24(sp)
 114:	01412483          	lw	s1,20(sp)
 118:	02010113          	addi	sp,sp,32
 11c:	00008067          	ret
 120:	00a00593          	li	a1,10
 124:	01212823          	sw	s2,16(sp)
 128:	1b0000ef          	jal	2d8 <__hidden___udivsi3>
 12c:	06300793          	li	a5,99
 130:	00050913          	mv	s2,a0
 134:	0297ea63          	bltu	a5,s1,168 <putdec+0x98>
 138:	03090513          	addi	a0,s2,48
 13c:	0ff57513          	zext.b	a0,a0
 140:	00442783          	lw	a5,4(s0)
 144:	0017f793          	andi	a5,a5,1
 148:	fe079ce3          	bnez	a5,140 <putdec+0x70>
 14c:	00a40023          	sb	a0,0(s0)
 150:	00a00593          	li	a1,10
 154:	00048513          	mv	a0,s1
 158:	1c8000ef          	jal	320 <__umodsi3>
 15c:	00050493          	mv	s1,a0
 160:	01012903          	lw	s2,16(sp)
 164:	f91ff06f          	j	f4 <putdec+0x24>
 168:	00a00593          	li	a1,10
 16c:	01312623          	sw	s3,12(sp)
 170:	168000ef          	jal	2d8 <__hidden___udivsi3>
 174:	3e700793          	li	a5,999
 178:	00050993          	mv	s3,a0
 17c:	0297ea63          	bltu	a5,s1,1b0 <putdec+0xe0>
 180:	03098713          	addi	a4,s3,48
 184:	0ff77713          	zext.b	a4,a4
 188:	00442783          	lw	a5,4(s0)
 18c:	0017f793          	andi	a5,a5,1
 190:	fe079ce3          	bnez	a5,188 <putdec+0xb8>
 194:	00090513          	mv	a0,s2
 198:	00e40023          	sb	a4,0(s0)
 19c:	00a00593          	li	a1,10
 1a0:	180000ef          	jal	320 <__umodsi3>
 1a4:	00050913          	mv	s2,a0
 1a8:	00c12983          	lw	s3,12(sp)
 1ac:	f8dff06f          	j	138 <putdec+0x68>
 1b0:	00a00593          	li	a1,10
 1b4:	124000ef          	jal	2d8 <__hidden___udivsi3>
 1b8:	f19ff0ef          	jal	d0 <putdec>
 1bc:	00098513          	mv	a0,s3
 1c0:	00a00593          	li	a1,10
 1c4:	15c000ef          	jal	320 <__umodsi3>
 1c8:	00050993          	mv	s3,a0
 1cc:	fb5ff06f          	j	180 <putdec+0xb0>

000001d0 <_puthex>:
 1d0:	ff010113          	addi	sp,sp,-16
 1d4:	00812423          	sw	s0,8(sp)
 1d8:	00112623          	sw	ra,12(sp)
 1dc:	00050413          	mv	s0,a0
 1e0:	00455513          	srli	a0,a0,0x4
 1e4:	00058793          	mv	a5,a1
 1e8:	fff58593          	addi	a1,a1,-1
 1ec:	04051463          	bnez	a0,234 <_puthex+0x64>
 1f0:	00100713          	li	a4,1
 1f4:	02f75663          	bge	a4,a5,220 <_puthex+0x50>
 1f8:	000017b7          	lui	a5,0x1
 1fc:	ddc7a703          	lw	a4,-548(a5) # ddc <uart>
 200:	00000693          	li	a3,0
 204:	03000613          	li	a2,48
 208:	00472783          	lw	a5,4(a4)
 20c:	0017f793          	andi	a5,a5,1
 210:	fe079ce3          	bnez	a5,208 <_puthex+0x38>
 214:	00c70023          	sb	a2,0(a4)
 218:	00168693          	addi	a3,a3,1
 21c:	fed596e3          	bne	a1,a3,208 <_puthex+0x38>
 220:	00f47513          	andi	a0,s0,15
 224:	00812403          	lw	s0,8(sp)
 228:	00c12083          	lw	ra,12(sp)
 22c:	01010113          	addi	sp,sp,16
 230:	e35ff06f          	j	64 <putnum>
 234:	f9dff0ef          	jal	1d0 <_puthex>
 238:	00f47513          	andi	a0,s0,15
 23c:	00812403          	lw	s0,8(sp)
 240:	00c12083          	lw	ra,12(sp)
 244:	01010113          	addi	sp,sp,16
 248:	e1dff06f          	j	64 <putnum>

0000024c <getbyte>:
 24c:	000017b7          	lui	a5,0x1
 250:	ddc7a703          	lw	a4,-548(a5) # ddc <uart>
 254:	00472783          	lw	a5,4(a4)
 258:	0087f793          	andi	a5,a5,8
 25c:	fe079ce3          	bnez	a5,254 <getbyte+0x8>
 260:	00074503          	lbu	a0,0(a4)
 264:	00008067          	ret

00000268 <getint>:
 268:	000017b7          	lui	a5,0x1
 26c:	ddc7a783          	lw	a5,-548(a5) # ddc <uart>
 270:	0047a703          	lw	a4,4(a5)
 274:	00877713          	andi	a4,a4,8
 278:	fe071ce3          	bnez	a4,270 <getint+0x8>
 27c:	0007c603          	lbu	a2,0(a5)
 280:	0ff67613          	zext.b	a2,a2
 284:	0047a703          	lw	a4,4(a5)
 288:	00877713          	andi	a4,a4,8
 28c:	fe071ce3          	bnez	a4,284 <getint+0x1c>
 290:	0007c583          	lbu	a1,0(a5)
 294:	00859593          	slli	a1,a1,0x8
 298:	0047a703          	lw	a4,4(a5)
 29c:	00877713          	andi	a4,a4,8
 2a0:	fe071ce3          	bnez	a4,298 <getint+0x30>
 2a4:	0007c683          	lbu	a3,0(a5)
 2a8:	01069693          	slli	a3,a3,0x10
 2ac:	00b6e6b3          	or	a3,a3,a1
 2b0:	00c6e6b3          	or	a3,a3,a2
 2b4:	0047a703          	lw	a4,4(a5)
 2b8:	00877713          	andi	a4,a4,8
 2bc:	fe071ce3          	bnez	a4,2b4 <getint+0x4c>
 2c0:	0007c503          	lbu	a0,0(a5)
 2c4:	01851513          	slli	a0,a0,0x18
 2c8:	00d56533          	or	a0,a0,a3
 2cc:	00008067          	ret

000002d0 <__divsi3>:
 2d0:	06054063          	bltz	a0,330 <__umodsi3+0x10>
 2d4:	0605c663          	bltz	a1,340 <__umodsi3+0x20>

000002d8 <__hidden___udivsi3>:
 2d8:	00058613          	mv	a2,a1
 2dc:	00050593          	mv	a1,a0
 2e0:	fff00513          	li	a0,-1
 2e4:	02060c63          	beqz	a2,31c <__hidden___udivsi3+0x44>
 2e8:	00100693          	li	a3,1
 2ec:	00b67a63          	bgeu	a2,a1,300 <__hidden___udivsi3+0x28>
 2f0:	00c05863          	blez	a2,300 <__hidden___udivsi3+0x28>
 2f4:	00161613          	slli	a2,a2,0x1
 2f8:	00169693          	slli	a3,a3,0x1
 2fc:	feb66ae3          	bltu	a2,a1,2f0 <__hidden___udivsi3+0x18>
 300:	00000513          	li	a0,0
 304:	00c5e663          	bltu	a1,a2,310 <__hidden___udivsi3+0x38>
 308:	40c585b3          	sub	a1,a1,a2
 30c:	00d56533          	or	a0,a0,a3
 310:	0016d693          	srli	a3,a3,0x1
 314:	00165613          	srli	a2,a2,0x1
 318:	fe0696e3          	bnez	a3,304 <__hidden___udivsi3+0x2c>
 31c:	00008067          	ret

00000320 <__umodsi3>:
 320:	00008293          	mv	t0,ra
 324:	fb5ff0ef          	jal	2d8 <__hidden___udivsi3>
 328:	00058513          	mv	a0,a1
 32c:	00028067          	jr	t0
 330:	40a00533          	neg	a0,a0
 334:	00b04863          	bgtz	a1,344 <__umodsi3+0x24>
 338:	40b005b3          	neg	a1,a1
 33c:	f9dff06f          	j	2d8 <__hidden___udivsi3>
 340:	40b005b3          	neg	a1,a1
 344:	00008293          	mv	t0,ra
 348:	f91ff0ef          	jal	2d8 <__hidden___udivsi3>
 34c:	40a00533          	neg	a0,a0
 350:	00028067          	jr	t0

00000354 <__modsi3>:
 354:	00008293          	mv	t0,ra
 358:	0005ca63          	bltz	a1,36c <__modsi3+0x18>
 35c:	00054c63          	bltz	a0,374 <__modsi3+0x20>
 360:	f79ff0ef          	jal	2d8 <__hidden___udivsi3>
 364:	00058513          	mv	a0,a1
 368:	00028067          	jr	t0
 36c:	40b005b3          	neg	a1,a1
 370:	fe0558e3          	bgez	a0,360 <__modsi3+0xc>
 374:	40a00533          	neg	a0,a0
 378:	f61ff0ef          	jal	2d8 <__hidden___udivsi3>
 37c:	40b00533          	neg	a0,a1
 380:	00028067          	jr	t0

00000384 <main>:
 384:	000017b7          	lui	a5,0x1
 388:	fa010113          	addi	sp,sp,-96
 38c:	ddc78793          	addi	a5,a5,-548 # ddc <uart>
 390:	05612023          	sw	s6,64(sp)
 394:	0007ab03          	lw	s6,0(a5)
 398:	0047a683          	lw	a3,4(a5)
 39c:	04112e23          	sw	ra,92(sp)
 3a0:	06f00793          	li	a5,111
 3a4:	04812c23          	sw	s0,88(sp)
 3a8:	04912a23          	sw	s1,84(sp)
 3ac:	05312623          	sw	s3,76(sp)
 3b0:	05512223          	sw	s5,68(sp)
 3b4:	05212823          	sw	s2,80(sp)
 3b8:	05412423          	sw	s4,72(sp)
 3bc:	03712e23          	sw	s7,60(sp)
 3c0:	03812c23          	sw	s8,56(sp)
 3c4:	03912a23          	sw	s9,52(sp)
 3c8:	03a12823          	sw	s10,48(sp)
 3cc:	03b12623          	sw	s11,44(sp)
 3d0:	00fb2223          	sw	a5,4(s6)
 3d4:	00001537          	lui	a0,0x1
 3d8:	00f6a223          	sw	a5,4(a3)
 3dc:	c0450513          	addi	a0,a0,-1020 # c04 <DATA_START+0x4>
 3e0:	c51ff0ef          	jal	30 <putline>
 3e4:	00001537          	lui	a0,0x1
 3e8:	c4450513          	addi	a0,a0,-956 # c44 <DATA_START+0x44>
 3ec:	c45ff0ef          	jal	30 <putline>
 3f0:	00001537          	lui	a0,0x1
 3f4:	c8050513          	addi	a0,a0,-896 # c80 <DATA_START+0x80>
 3f8:	c39ff0ef          	jal	30 <putline>
 3fc:	000017b7          	lui	a5,0x1
 400:	de47a983          	lw	s3,-540(a5) # de4 <gpio>
 404:	3e7756b7          	lui	a3,0x3e775
 408:	07068693          	addi	a3,a3,112 # 3e775070 <stack_bot+0x3e737070>
 40c:	7c5c67b7          	lui	a5,0x7c5c6
 410:	00d9a423          	sw	a3,8(s3)
 414:	c7078793          	addi	a5,a5,-912 # 7c5c5c70 <stack_bot+0x7c587c70>
 418:	00f9a223          	sw	a5,4(s3)
 41c:	e4dff0ef          	jal	268 <getint>
 420:	00050413          	mv	s0,a0
 424:	00a12223          	sw	a0,4(sp)
 428:	e41ff0ef          	jal	268 <getint>
 42c:	00050a93          	mv	s5,a0
 430:	00a404b3          	add	s1,s0,a0
 434:	56050263          	beqz	a0,998 <main+0x614>
 438:	00000b93          	li	s7,0
 43c:	00200a13          	li	s4,2
 440:	02e00c13          	li	s8,46
 444:	e25ff0ef          	jal	268 <getint>
 448:	00050913          	mv	s2,a0
 44c:	e1dff0ef          	jal	268 <getint>
 450:	00a907b3          	add	a5,s2,a0
 454:	00050413          	mv	s0,a0
 458:	00f484b3          	add	s1,s1,a5
 45c:	002a0d13          	addi	s10,s4,2
 460:	3ca05e63          	blez	a0,83c <main+0x4b8>
 464:	00000c93          	li	s9,0
 468:	00c0006f          	j	474 <main+0xf0>
 46c:	004c8c93          	addi	s9,s9,4
 470:	028cde63          	bge	s9,s0,4ac <main+0x128>
 474:	df5ff0ef          	jal	268 <getint>
 478:	001d0d13          	addi	s10,s10,1
 47c:	012c87b3          	add	a5,s9,s2
 480:	01a9a023          	sw	s10,0(s3)
 484:	00a7a023          	sw	a0,0(a5)
 488:	03fcf793          	andi	a5,s9,63
 48c:	00a484b3          	add	s1,s1,a0
 490:	fc079ee3          	bnez	a5,46c <main+0xe8>
 494:	004b2783          	lw	a5,4(s6)
 498:	0017f793          	andi	a5,a5,1
 49c:	fe079ce3          	bnez	a5,494 <main+0x110>
 4a0:	018b0023          	sb	s8,0(s6)
 4a4:	004c8c93          	addi	s9,s9,4
 4a8:	fc8cc6e3          	blt	s9,s0,474 <main+0xf0>
 4ac:	fff40793          	addi	a5,s0,-1
 4b0:	0027d793          	srli	a5,a5,0x2
 4b4:	003a0a13          	addi	s4,s4,3
 4b8:	01478a33          	add	s4,a5,s4
 4bc:	001b8b93          	addi	s7,s7,1
 4c0:	f95b92e3          	bne	s7,s5,444 <main+0xc0>
 4c4:	da5ff0ef          	jal	268 <getint>
 4c8:	00a12423          	sw	a0,8(sp)
 4cc:	d9dff0ef          	jal	268 <getint>
 4d0:	00050793          	mv	a5,a0
 4d4:	00001537          	lui	a0,0x1
 4d8:	cbc50513          	addi	a0,a0,-836 # cbc <DATA_START+0xbc>
 4dc:	00f12623          	sw	a5,12(sp)
 4e0:	b51ff0ef          	jal	30 <putline>
 4e4:	00001537          	lui	a0,0x1
 4e8:	cd450513          	addi	a0,a0,-812 # cd4 <DATA_START+0xd4>
 4ec:	b45ff0ef          	jal	30 <putline>
 4f0:	00412503          	lw	a0,4(sp)
 4f4:	00800593          	li	a1,8
 4f8:	cd9ff0ef          	jal	1d0 <_puthex>
 4fc:	004b2783          	lw	a5,4(s6)
 500:	0017f793          	andi	a5,a5,1
 504:	fe079ce3          	bnez	a5,4fc <main+0x178>
 508:	00a00793          	li	a5,10
 50c:	00001537          	lui	a0,0x1
 510:	ce850513          	addi	a0,a0,-792 # ce8 <DATA_START+0xe8>
 514:	00fb0023          	sb	a5,0(s6)
 518:	b19ff0ef          	jal	30 <putline>
 51c:	000a8513          	mv	a0,s5
 520:	bb1ff0ef          	jal	d0 <putdec>
 524:	004b2783          	lw	a5,4(s6)
 528:	0017f793          	andi	a5,a5,1
 52c:	fe079ce3          	bnez	a5,524 <main+0x1a0>
 530:	00a00793          	li	a5,10
 534:	00001537          	lui	a0,0x1
 538:	cfc50513          	addi	a0,a0,-772 # cfc <DATA_START+0xfc>
 53c:	00fb0023          	sb	a5,0(s6)
 540:	af1ff0ef          	jal	30 <putline>
 544:	000a0513          	mv	a0,s4
 548:	b89ff0ef          	jal	d0 <putdec>
 54c:	004b2783          	lw	a5,4(s6)
 550:	0017f793          	andi	a5,a5,1
 554:	fe079ce3          	bnez	a5,54c <main+0x1c8>
 558:	00a00793          	li	a5,10
 55c:	00001537          	lui	a0,0x1
 560:	d0c50513          	addi	a0,a0,-756 # d0c <DATA_START+0x10c>
 564:	00fb0023          	sb	a5,0(s6)
 568:	ac9ff0ef          	jal	30 <putline>
 56c:	00048513          	mv	a0,s1
 570:	00800593          	li	a1,8
 574:	c5dff0ef          	jal	1d0 <_puthex>
 578:	004b2783          	lw	a5,4(s6)
 57c:	0017f793          	andi	a5,a5,1
 580:	fe079ce3          	bnez	a5,578 <main+0x1f4>
 584:	00a00793          	li	a5,10
 588:	00001537          	lui	a0,0x1
 58c:	d1c50513          	addi	a0,a0,-740 # d1c <DATA_START+0x11c>
 590:	00fb0023          	sb	a5,0(s6)
 594:	a9dff0ef          	jal	30 <putline>
 598:	00812503          	lw	a0,8(sp)
 59c:	b35ff0ef          	jal	d0 <putdec>
 5a0:	004b2783          	lw	a5,4(s6)
 5a4:	0017f793          	andi	a5,a5,1
 5a8:	fe079ce3          	bnez	a5,5a0 <main+0x21c>
 5ac:	00a00793          	li	a5,10
 5b0:	00001537          	lui	a0,0x1
 5b4:	d2c50513          	addi	a0,a0,-724 # d2c <DATA_START+0x12c>
 5b8:	00fb0023          	sb	a5,0(s6)
 5bc:	a75ff0ef          	jal	30 <putline>
 5c0:	00c12503          	lw	a0,12(sp)
 5c4:	00800593          	li	a1,8
 5c8:	c09ff0ef          	jal	1d0 <_puthex>
 5cc:	004b2783          	lw	a5,4(s6)
 5d0:	0017f793          	andi	a5,a5,1
 5d4:	fe079ce3          	bnez	a5,5cc <main+0x248>
 5d8:	00412a83          	lw	s5,4(sp)
 5dc:	00a00b93          	li	s7,10
 5e0:	017b0023          	sb	s7,0(s6)
 5e4:	00000413          	li	s0,0
 5e8:	03000c13          	li	s8,48
 5ec:	02000993          	li	s3,32
 5f0:	04000913          	li	s2,64
 5f4:	00347793          	andi	a5,s0,3
 5f8:	0a078663          	beqz	a5,6a4 <main+0x320>
 5fc:	000aad03          	lw	s10,0(s5)
 600:	00700613          	li	a2,7
 604:	004a8a93          	addi	s5,s5,4
 608:	004d5d93          	srli	s11,s10,0x4
 60c:	100d9863          	bnez	s11,71c <main+0x398>
 610:	004b2783          	lw	a5,4(s6)
 614:	0017f793          	andi	a5,a5,1
 618:	fe079ce3          	bnez	a5,610 <main+0x28c>
 61c:	018b0023          	sb	s8,0(s6)
 620:	fff60613          	addi	a2,a2,-1
 624:	fe0616e3          	bnez	a2,610 <main+0x28c>
 628:	00fd7513          	andi	a0,s10,15
 62c:	a39ff0ef          	jal	64 <putnum>
 630:	004b2783          	lw	a5,4(s6)
 634:	0017f793          	andi	a5,a5,1
 638:	fe079ce3          	bnez	a5,630 <main+0x2ac>
 63c:	013b0023          	sb	s3,0(s6)
 640:	00140413          	addi	s0,s0,1
 644:	fb2418e3          	bne	s0,s2,5f4 <main+0x270>
 648:	00812783          	lw	a5,8(sp)
 64c:	01479663          	bne	a5,s4,658 <main+0x2d4>
 650:	00c12783          	lw	a5,12(sp)
 654:	34978663          	beq	a5,s1,9a0 <main+0x61c>
 658:	00001537          	lui	a0,0x1
 65c:	d8c50513          	addi	a0,a0,-628 # d8c <DATA_START+0x18c>
 660:	9d1ff0ef          	jal	30 <putline>
 664:	05c12083          	lw	ra,92(sp)
 668:	05812403          	lw	s0,88(sp)
 66c:	05412483          	lw	s1,84(sp)
 670:	05012903          	lw	s2,80(sp)
 674:	04c12983          	lw	s3,76(sp)
 678:	04812a03          	lw	s4,72(sp)
 67c:	04412a83          	lw	s5,68(sp)
 680:	04012b03          	lw	s6,64(sp)
 684:	03c12b83          	lw	s7,60(sp)
 688:	03812c03          	lw	s8,56(sp)
 68c:	03412c83          	lw	s9,52(sp)
 690:	03012d03          	lw	s10,48(sp)
 694:	02c12d83          	lw	s11,44(sp)
 698:	00000513          	li	a0,0
 69c:	06010113          	addi	sp,sp,96
 6a0:	00008067          	ret
 6a4:	004b2783          	lw	a5,4(s6)
 6a8:	0017f793          	andi	a5,a5,1
 6ac:	fe079ce3          	bnez	a5,6a4 <main+0x320>
 6b0:	017b0023          	sb	s7,0(s6)
 6b4:	004adc93          	srli	s9,s5,0x4
 6b8:	00700613          	li	a2,7
 6bc:	0c0c9663          	bnez	s9,788 <main+0x404>
 6c0:	004b2783          	lw	a5,4(s6)
 6c4:	0017f793          	andi	a5,a5,1
 6c8:	fe079ce3          	bnez	a5,6c0 <main+0x33c>
 6cc:	018b0023          	sb	s8,0(s6)
 6d0:	fff60613          	addi	a2,a2,-1
 6d4:	fe0616e3          	bnez	a2,6c0 <main+0x33c>
 6d8:	00faf513          	andi	a0,s5,15
 6dc:	989ff0ef          	jal	64 <putnum>
 6e0:	000017b7          	lui	a5,0x1
 6e4:	c0178593          	addi	a1,a5,-1023 # c01 <DATA_START+0x1>
 6e8:	02000613          	li	a2,32
 6ec:	004b2783          	lw	a5,4(s6)
 6f0:	0017f793          	andi	a5,a5,1
 6f4:	fe079ce3          	bnez	a5,6ec <main+0x368>
 6f8:	00158593          	addi	a1,a1,1
 6fc:	00cb0023          	sb	a2,0(s6)
 700:	fff5c603          	lbu	a2,-1(a1)
 704:	fe0614e3          	bnez	a2,6ec <main+0x368>
 708:	000aad03          	lw	s10,0(s5)
 70c:	00700613          	li	a2,7
 710:	004a8a93          	addi	s5,s5,4
 714:	004d5d93          	srli	s11,s10,0x4
 718:	ee0d8ce3          	beqz	s11,610 <main+0x28c>
 71c:	008d5c93          	srli	s9,s10,0x8
 720:	00600613          	li	a2,6
 724:	020c9463          	bnez	s9,74c <main+0x3c8>
 728:	004b2783          	lw	a5,4(s6)
 72c:	0017f793          	andi	a5,a5,1
 730:	fe079ce3          	bnez	a5,728 <main+0x3a4>
 734:	018b0023          	sb	s8,0(s6)
 738:	fff60613          	addi	a2,a2,-1
 73c:	fe0616e3          	bnez	a2,728 <main+0x3a4>
 740:	00fdf513          	andi	a0,s11,15
 744:	921ff0ef          	jal	64 <putnum>
 748:	ee1ff06f          	j	628 <main+0x2a4>
 74c:	00cd5793          	srli	a5,s10,0xc
 750:	00f12823          	sw	a5,16(sp)
 754:	00500613          	li	a2,5
 758:	06079263          	bnez	a5,7bc <main+0x438>
 75c:	004b2783          	lw	a5,4(s6)
 760:	0017f793          	andi	a5,a5,1
 764:	fe079ce3          	bnez	a5,75c <main+0x3d8>
 768:	018b0023          	sb	s8,0(s6)
 76c:	fff60613          	addi	a2,a2,-1
 770:	fe0616e3          	bnez	a2,75c <main+0x3d8>
 774:	00fcf513          	andi	a0,s9,15
 778:	8edff0ef          	jal	64 <putnum>
 77c:	00fdf513          	andi	a0,s11,15
 780:	8e5ff0ef          	jal	64 <putnum>
 784:	ea5ff06f          	j	628 <main+0x2a4>
 788:	008ad793          	srli	a5,s5,0x8
 78c:	00f12823          	sw	a5,16(sp)
 790:	00600613          	li	a2,6
 794:	06079463          	bnez	a5,7fc <main+0x478>
 798:	004b2783          	lw	a5,4(s6)
 79c:	0017f793          	andi	a5,a5,1
 7a0:	fe079ce3          	bnez	a5,798 <main+0x414>
 7a4:	018b0023          	sb	s8,0(s6)
 7a8:	fff60613          	addi	a2,a2,-1
 7ac:	fe0616e3          	bnez	a2,798 <main+0x414>
 7b0:	00fcf513          	andi	a0,s9,15
 7b4:	8b1ff0ef          	jal	64 <putnum>
 7b8:	f21ff06f          	j	6d8 <main+0x354>
 7bc:	010d5793          	srli	a5,s10,0x10
 7c0:	00f12a23          	sw	a5,20(sp)
 7c4:	00400613          	li	a2,4
 7c8:	0a079a63          	bnez	a5,87c <main+0x4f8>
 7cc:	004b2783          	lw	a5,4(s6)
 7d0:	0017f793          	andi	a5,a5,1
 7d4:	fe079ce3          	bnez	a5,7cc <main+0x448>
 7d8:	018b0023          	sb	s8,0(s6)
 7dc:	fff60613          	addi	a2,a2,-1
 7e0:	fe0616e3          	bnez	a2,7cc <main+0x448>
 7e4:	01012783          	lw	a5,16(sp)
 7e8:	00f7f513          	andi	a0,a5,15
 7ec:	879ff0ef          	jal	64 <putnum>
 7f0:	00fcf513          	andi	a0,s9,15
 7f4:	871ff0ef          	jal	64 <putnum>
 7f8:	f85ff06f          	j	77c <main+0x3f8>
 7fc:	00cad793          	srli	a5,s5,0xc
 800:	00f12a23          	sw	a5,20(sp)
 804:	00500613          	li	a2,5
 808:	02079e63          	bnez	a5,844 <main+0x4c0>
 80c:	004b2783          	lw	a5,4(s6)
 810:	0017f793          	andi	a5,a5,1
 814:	fe079ce3          	bnez	a5,80c <main+0x488>
 818:	018b0023          	sb	s8,0(s6)
 81c:	fff60613          	addi	a2,a2,-1
 820:	fe0616e3          	bnez	a2,80c <main+0x488>
 824:	01012783          	lw	a5,16(sp)
 828:	00f7f513          	andi	a0,a5,15
 82c:	839ff0ef          	jal	64 <putnum>
 830:	00fcf513          	andi	a0,s9,15
 834:	831ff0ef          	jal	64 <putnum>
 838:	ea1ff06f          	j	6d8 <main+0x354>
 83c:	000d0a13          	mv	s4,s10
 840:	c7dff06f          	j	4bc <main+0x138>
 844:	010add13          	srli	s10,s5,0x10
 848:	00400613          	li	a2,4
 84c:	03000593          	li	a1,48
 850:	060d1a63          	bnez	s10,8c4 <main+0x540>
 854:	004b2783          	lw	a5,4(s6)
 858:	0017f793          	andi	a5,a5,1
 85c:	fe079ce3          	bnez	a5,854 <main+0x4d0>
 860:	00bb0023          	sb	a1,0(s6)
 864:	fff60613          	addi	a2,a2,-1
 868:	fe0616e3          	bnez	a2,854 <main+0x4d0>
 86c:	01412783          	lw	a5,20(sp)
 870:	00f7f513          	andi	a0,a5,15
 874:	ff0ff0ef          	jal	64 <putnum>
 878:	fadff06f          	j	824 <main+0x4a0>
 87c:	014d5793          	srli	a5,s10,0x14
 880:	00f12c23          	sw	a5,24(sp)
 884:	00300613          	li	a2,3
 888:	03000593          	li	a1,48
 88c:	06079463          	bnez	a5,8f4 <main+0x570>
 890:	004b2783          	lw	a5,4(s6)
 894:	0017f793          	andi	a5,a5,1
 898:	fe079ce3          	bnez	a5,890 <main+0x50c>
 89c:	00bb0023          	sb	a1,0(s6)
 8a0:	fff60613          	addi	a2,a2,-1
 8a4:	fe0616e3          	bnez	a2,890 <main+0x50c>
 8a8:	01412783          	lw	a5,20(sp)
 8ac:	00f7f513          	andi	a0,a5,15
 8b0:	fb4ff0ef          	jal	64 <putnum>
 8b4:	01012783          	lw	a5,16(sp)
 8b8:	00f7f513          	andi	a0,a5,15
 8bc:	fa8ff0ef          	jal	64 <putnum>
 8c0:	f31ff06f          	j	7f0 <main+0x46c>
 8c4:	014add93          	srli	s11,s5,0x14
 8c8:	00300613          	li	a2,3
 8cc:	080d9863          	bnez	s11,95c <main+0x5d8>
 8d0:	004b2783          	lw	a5,4(s6)
 8d4:	0017f793          	andi	a5,a5,1
 8d8:	fe079ce3          	bnez	a5,8d0 <main+0x54c>
 8dc:	00bb0023          	sb	a1,0(s6)
 8e0:	fff60613          	addi	a2,a2,-1
 8e4:	fe0616e3          	bnez	a2,8d0 <main+0x54c>
 8e8:	00fd7513          	andi	a0,s10,15
 8ec:	f78ff0ef          	jal	64 <putnum>
 8f0:	f7dff06f          	j	86c <main+0x4e8>
 8f4:	018d5613          	srli	a2,s10,0x18
 8f8:	02061e63          	bnez	a2,934 <main+0x5b0>
 8fc:	004b2783          	lw	a5,4(s6)
 900:	0017f793          	andi	a5,a5,1
 904:	fe079ce3          	bnez	a5,8fc <main+0x578>
 908:	03000793          	li	a5,48
 90c:	00fb0023          	sb	a5,0(s6)
 910:	004b2783          	lw	a5,4(s6)
 914:	0017f793          	andi	a5,a5,1
 918:	fe079ce3          	bnez	a5,910 <main+0x58c>
 91c:	03000793          	li	a5,48
 920:	00fb0023          	sb	a5,0(s6)
 924:	01812783          	lw	a5,24(sp)
 928:	00f7f513          	andi	a0,a5,15
 92c:	f38ff0ef          	jal	64 <putnum>
 930:	f79ff06f          	j	8a8 <main+0x524>
 934:	01cd5513          	srli	a0,s10,0x1c
 938:	08051863          	bnez	a0,9c8 <main+0x644>
 93c:	004b2783          	lw	a5,4(s6)
 940:	0017f793          	andi	a5,a5,1
 944:	fe079ce3          	bnez	a5,93c <main+0x5b8>
 948:	03000793          	li	a5,48
 94c:	00fb0023          	sb	a5,0(s6)
 950:	00f67513          	andi	a0,a2,15
 954:	f10ff0ef          	jal	64 <putnum>
 958:	fcdff06f          	j	924 <main+0x5a0>
 95c:	018ad613          	srli	a2,s5,0x18
 960:	06061e63          	bnez	a2,9dc <main+0x658>
 964:	004b2783          	lw	a5,4(s6)
 968:	0017f793          	andi	a5,a5,1
 96c:	fe079ce3          	bnez	a5,964 <main+0x5e0>
 970:	03000793          	li	a5,48
 974:	00fb0023          	sb	a5,0(s6)
 978:	004b2783          	lw	a5,4(s6)
 97c:	0017f793          	andi	a5,a5,1
 980:	fe079ce3          	bnez	a5,978 <main+0x5f4>
 984:	03000793          	li	a5,48
 988:	00fb0023          	sb	a5,0(s6)
 98c:	00fdf513          	andi	a0,s11,15
 990:	ed4ff0ef          	jal	64 <putnum>
 994:	f55ff06f          	j	8e8 <main+0x564>
 998:	00200a13          	li	s4,2
 99c:	b29ff06f          	j	4c4 <main+0x140>
 9a0:	00001537          	lui	a0,0x1
 9a4:	d3c50513          	addi	a0,a0,-708 # d3c <DATA_START+0x13c>
 9a8:	e88ff0ef          	jal	30 <putline>
 9ac:	004b2783          	lw	a5,4(s6)
 9b0:	0087f793          	andi	a5,a5,8
 9b4:	fe079ce3          	bnez	a5,9ac <main+0x628>
 9b8:	000b4783          	lbu	a5,0(s6)
 9bc:	00412783          	lw	a5,4(sp)
 9c0:	00078067          	jr	a5
 9c4:	ca1ff06f          	j	664 <main+0x2e0>
 9c8:	00100593          	li	a1,1
 9cc:	00c12e23          	sw	a2,28(sp)
 9d0:	801ff0ef          	jal	1d0 <_puthex>
 9d4:	01c12603          	lw	a2,28(sp)
 9d8:	f79ff06f          	j	950 <main+0x5cc>
 9dc:	01cad513          	srli	a0,s5,0x1c
 9e0:	02051263          	bnez	a0,a04 <main+0x680>
 9e4:	004b2783          	lw	a5,4(s6)
 9e8:	0017f793          	andi	a5,a5,1
 9ec:	fe079ce3          	bnez	a5,9e4 <main+0x660>
 9f0:	03000793          	li	a5,48
 9f4:	00fb0023          	sb	a5,0(s6)
 9f8:	00f67513          	andi	a0,a2,15
 9fc:	e68ff0ef          	jal	64 <putnum>
 a00:	f8dff06f          	j	98c <main+0x608>
 a04:	00100593          	li	a1,1
 a08:	00c12c23          	sw	a2,24(sp)
 a0c:	fc4ff0ef          	jal	1d0 <_puthex>
 a10:	01812603          	lw	a2,24(sp)
 a14:	fe5ff06f          	j	9f8 <main+0x674>
