
temp.out:     file format elf32-littleriscv


Disassembly of section .text:

00001000 <_start>:
    1000:	00024117          	auipc	sp,0x24
    1004:	00010113          	mv	sp,sp
    1008:	00021297          	auipc	t0,0x21
    100c:	61828293          	addi	t0,t0,1560 # 22620 <UART_BUF_TX>
    1010:	00022317          	auipc	t1,0x22
    1014:	ff030313          	addi	t1,t1,-16 # 23000 <_end>
    1018:	00628863          	beq	t0,t1,1028 <_start+0x28>
    101c:	0002a023          	sw	zero,0(t0)
    1020:	00428293          	addi	t0,t0,4
    1024:	fe629ce3          	bne	t0,t1,101c <_start+0x1c>
    1028:	4ad030ef          	jal	4cd4 <disable_UART_interrupt>
    102c:	22d030ef          	jal	4a58 <_io_init>
    1030:	409030ef          	jal	4c38 <enable_BUTTON_interrupt>
    1034:	741020ef          	jal	3f74 <main>
    1038:	3a5030ef          	jal	4bdc <_io_fini>
    103c:	10500073          	wfi
    1040:	fc1ff06f          	j	1000 <_start>

Disassembly of section .text:

00001044 <timer_handler>:
    1044:	00023637          	lui	a2,0x23
    1048:	89062683          	lw	a3,-1904(a2) # 22890 <N1>
    104c:	000235b7          	lui	a1,0x23
    1050:	88c5a783          	lw	a5,-1908(a1) # 2288c <N0>
    1054:	00869713          	slli	a4,a3,0x8
    1058:	0187d513          	srli	a0,a5,0x18
    105c:	00a76733          	or	a4,a4,a0
    1060:	00023537          	lui	a0,0x23
    1064:	88e52423          	sw	a4,-1912(a0) # 22888 <NN>
    1068:	00879793          	slli	a5,a5,0x8
    106c:	0186d693          	srli	a3,a3,0x18
    1070:	00d7e7b3          	or	a5,a5,a3
    1074:	88f5a623          	sw	a5,-1908(a1)
    1078:	88e62823          	sw	a4,-1904(a2)
    107c:	000226b7          	lui	a3,0x22
    1080:	6046a683          	lw	a3,1540(a3) # 22604 <gpio>
    1084:	00e6a423          	sw	a4,8(a3)
    1088:	00f6a223          	sw	a5,4(a3)
    108c:	00008067          	ret

00001090 <Hit_and_Blow_2_timer_handler>:
    1090:	ff010113          	addi	sp,sp,-16 # 24ff0 <_end+0x1ff0>
    1094:	00112623          	sw	ra,12(sp)
    1098:	00812423          	sw	s0,8(sp)
    109c:	00912223          	sw	s1,4(sp)
    10a0:	01212023          	sw	s2,0(sp)
    10a4:	000237b7          	lui	a5,0x23
    10a8:	8947a403          	lw	s0,-1900(a5) # 22894 <counter>
    10ac:	08041463          	bnez	s0,1134 <Hit_and_Blow_2_timer_handler+0xa4>
    10b0:	000237b7          	lui	a5,0x23
    10b4:	8847a503          	lw	a0,-1916(a5) # 22884 <HiB_hit>
    10b8:	00900793          	li	a5,9
    10bc:	00000493          	li	s1,0
    10c0:	00a7f863          	bgeu	a5,a0,10d0 <Hit_and_Blow_2_timer_handler+0x40>
    10c4:	000227b7          	lui	a5,0x22
    10c8:	0047a483          	lw	s1,4(a5) # 22004 <int_to_gpio+0x4>
    10cc:	00849493          	slli	s1,s1,0x8
    10d0:	000227b7          	lui	a5,0x22
    10d4:	6047a903          	lw	s2,1540(a5) # 22604 <gpio>
    10d8:	00a00593          	li	a1,10
    10dc:	2a9060ef          	jal	7b84 <__umodsi3>
    10e0:	00251513          	slli	a0,a0,0x2
    10e4:	000227b7          	lui	a5,0x22
    10e8:	00078793          	mv	a5,a5
    10ec:	00a787b3          	add	a5,a5,a0
    10f0:	0007a783          	lw	a5,0(a5) # 22000 <int_to_gpio>
    10f4:	00f4e4b3          	or	s1,s1,a5
    10f8:	00992423          	sw	s1,8(s2)
    10fc:	007407b7          	lui	a5,0x740
    1100:	47078793          	addi	a5,a5,1136 # 740470 <stack_bot+0x71b470>
    1104:	00f92223          	sw	a5,4(s2)
    1108:	00300593          	li	a1,3
    110c:	00140513          	addi	a0,s0,1
    1110:	275060ef          	jal	7b84 <__umodsi3>
    1114:	000237b7          	lui	a5,0x23
    1118:	88a7aa23          	sw	a0,-1900(a5) # 22894 <counter>
    111c:	00c12083          	lw	ra,12(sp)
    1120:	00812403          	lw	s0,8(sp)
    1124:	00412483          	lw	s1,4(sp)
    1128:	00012903          	lw	s2,0(sp)
    112c:	01010113          	addi	sp,sp,16
    1130:	00008067          	ret
    1134:	00100793          	li	a5,1
    1138:	04f40e63          	beq	s0,a5,1194 <Hit_and_Blow_2_timer_handler+0x104>
    113c:	000237b7          	lui	a5,0x23
    1140:	87c7a503          	lw	a0,-1924(a5) # 2287c <HiB_or>
    1144:	00900793          	li	a5,9
    1148:	00000493          	li	s1,0
    114c:	00a7f863          	bgeu	a5,a0,115c <Hit_and_Blow_2_timer_handler+0xcc>
    1150:	000227b7          	lui	a5,0x22
    1154:	0047a483          	lw	s1,4(a5) # 22004 <int_to_gpio+0x4>
    1158:	00849493          	slli	s1,s1,0x8
    115c:	000227b7          	lui	a5,0x22
    1160:	6047a903          	lw	s2,1540(a5) # 22604 <gpio>
    1164:	00a00593          	li	a1,10
    1168:	21d060ef          	jal	7b84 <__umodsi3>
    116c:	00251513          	slli	a0,a0,0x2
    1170:	000227b7          	lui	a5,0x22
    1174:	00078793          	mv	a5,a5
    1178:	00a787b3          	add	a5,a5,a0
    117c:	0007a783          	lw	a5,0(a5) # 22000 <int_to_gpio>
    1180:	00f4e4b3          	or	s1,s1,a5
    1184:	00992423          	sw	s1,8(s2)
    1188:	005c57b7          	lui	a5,0x5c5
    118c:	00f92223          	sw	a5,4(s2)
    1190:	f79ff06f          	j	1108 <Hit_and_Blow_2_timer_handler+0x78>
    1194:	000237b7          	lui	a5,0x23
    1198:	8807a503          	lw	a0,-1920(a5) # 22880 <HiB_and>
    119c:	00900793          	li	a5,9
    11a0:	00000493          	li	s1,0
    11a4:	00a7f863          	bgeu	a5,a0,11b4 <Hit_and_Blow_2_timer_handler+0x124>
    11a8:	000227b7          	lui	a5,0x22
    11ac:	0047a483          	lw	s1,4(a5) # 22004 <int_to_gpio+0x4>
    11b0:	00849493          	slli	s1,s1,0x8
    11b4:	000227b7          	lui	a5,0x22
    11b8:	6047a903          	lw	s2,1540(a5) # 22604 <gpio>
    11bc:	00a00593          	li	a1,10
    11c0:	1c5060ef          	jal	7b84 <__umodsi3>
    11c4:	00251513          	slli	a0,a0,0x2
    11c8:	000227b7          	lui	a5,0x22
    11cc:	00078793          	mv	a5,a5
    11d0:	00a787b3          	add	a5,a5,a0
    11d4:	0007a783          	lw	a5,0(a5) # 22000 <int_to_gpio>
    11d8:	00f4e4b3          	or	s1,s1,a5
    11dc:	00992423          	sw	s1,8(s2)
    11e0:	007757b7          	lui	a5,0x775
    11e4:	45e78793          	addi	a5,a5,1118 # 77545e <stack_bot+0x75045e>
    11e8:	00f92223          	sw	a5,4(s2)
    11ec:	f1dff06f          	j	1108 <Hit_and_Blow_2_timer_handler+0x78>

000011f0 <print_segment_int>:
    11f0:	000237b7          	lui	a5,0x23
    11f4:	8807a823          	sw	zero,-1904(a5) # 22890 <N1>
    11f8:	000237b7          	lui	a5,0x23
    11fc:	8807a623          	sw	zero,-1908(a5) # 2288c <N0>
    1200:	06050a63          	beqz	a0,1274 <print_segment_int+0x84>
    1204:	fd010113          	addi	sp,sp,-48
    1208:	02112623          	sw	ra,44(sp)
    120c:	02812423          	sw	s0,40(sp)
    1210:	02912223          	sw	s1,36(sp)
    1214:	00050413          	mv	s0,a0
    1218:	00100493          	li	s1,1
    121c:	12a05063          	blez	a0,133c <print_segment_int+0x14c>
    1220:	03212023          	sw	s2,32(sp)
    1224:	01312e23          	sw	s3,28(sp)
    1228:	01412c23          	sw	s4,24(sp)
    122c:	01512a23          	sw	s5,20(sp)
    1230:	01612823          	sw	s6,16(sp)
    1234:	01712623          	sw	s7,12(sp)
    1238:	01812423          	sw	s8,8(sp)
    123c:	01912223          	sw	s9,4(sp)
    1240:	00249793          	slli	a5,s1,0x2
    1244:	009787b3          	add	a5,a5,s1
    1248:	00179493          	slli	s1,a5,0x1
    124c:	fe945ae3          	bge	s0,s1,1240 <print_segment_int+0x50>
    1250:	00000c93          	li	s9,0
    1254:	00000c13          	li	s8,0
    1258:	00000993          	li	s3,0
    125c:	00a00b93          	li	s7,10
    1260:	00018a37          	lui	s4,0x18
    1264:	69fa0a13          	addi	s4,s4,1695 # 1869f <_write+0xe7eb>
    1268:	00022b37          	lui	s6,0x22
    126c:	00100a93          	li	s5,1
    1270:	0480006f          	j	12b8 <print_segment_int+0xc8>
    1274:	000227b7          	lui	a5,0x22
    1278:	0007a703          	lw	a4,0(a5) # 22000 <int_to_gpio>
    127c:	000237b7          	lui	a5,0x23
    1280:	88e7a823          	sw	a4,-1904(a5) # 22890 <N1>
    1284:	00008067          	ret
    1288:	008c9c93          	slli	s9,s9,0x8
    128c:	000b0793          	mv	a5,s6
    1290:	00251513          	slli	a0,a0,0x2
    1294:	00a787b3          	add	a5,a5,a0
    1298:	0007a783          	lw	a5,0(a5)
    129c:	00fcecb3          	or	s9,s9,a5
    12a0:	00090593          	mv	a1,s2
    12a4:	00040513          	mv	a0,s0
    12a8:	111060ef          	jal	7bb8 <__modsi3>
    12ac:	00050413          	mv	s0,a0
    12b0:	05590c63          	beq	s2,s5,1308 <print_segment_int+0x118>
    12b4:	00090493          	mv	s1,s2
    12b8:	000b8593          	mv	a1,s7
    12bc:	00048513          	mv	a0,s1
    12c0:	075060ef          	jal	7b34 <__divsi3>
    12c4:	00050913          	mv	s2,a0
    12c8:	00050593          	mv	a1,a0
    12cc:	00040513          	mv	a0,s0
    12d0:	065060ef          	jal	7b34 <__divsi3>
    12d4:	fa9a5ae3          	bge	s4,s1,1288 <print_segment_int+0x98>
    12d8:	00899993          	slli	s3,s3,0x8
    12dc:	000b0793          	mv	a5,s6
    12e0:	00251513          	slli	a0,a0,0x2
    12e4:	00a787b3          	add	a5,a5,a0
    12e8:	0007a783          	lw	a5,0(a5)
    12ec:	00f9e9b3          	or	s3,s3,a5
    12f0:	00090593          	mv	a1,s2
    12f4:	00040513          	mv	a0,s0
    12f8:	0c1060ef          	jal	7bb8 <__modsi3>
    12fc:	00050413          	mv	s0,a0
    1300:	000a8c13          	mv	s8,s5
    1304:	fb1ff06f          	j	12b4 <print_segment_int+0xc4>
    1308:	000237b7          	lui	a5,0x23
    130c:	8997a623          	sw	s9,-1908(a5) # 2288c <N0>
    1310:	040c0063          	beqz	s8,1350 <print_segment_int+0x160>
    1314:	000237b7          	lui	a5,0x23
    1318:	8937a823          	sw	s3,-1904(a5) # 22890 <N1>
    131c:	02012903          	lw	s2,32(sp)
    1320:	01c12983          	lw	s3,28(sp)
    1324:	01812a03          	lw	s4,24(sp)
    1328:	01412a83          	lw	s5,20(sp)
    132c:	01012b03          	lw	s6,16(sp)
    1330:	00c12b83          	lw	s7,12(sp)
    1334:	00812c03          	lw	s8,8(sp)
    1338:	00412c83          	lw	s9,4(sp)
    133c:	02c12083          	lw	ra,44(sp)
    1340:	02812403          	lw	s0,40(sp)
    1344:	02412483          	lw	s1,36(sp)
    1348:	03010113          	addi	sp,sp,48
    134c:	00008067          	ret
    1350:	02012903          	lw	s2,32(sp)
    1354:	01c12983          	lw	s3,28(sp)
    1358:	01812a03          	lw	s4,24(sp)
    135c:	01412a83          	lw	s5,20(sp)
    1360:	01012b03          	lw	s6,16(sp)
    1364:	00c12b83          	lw	s7,12(sp)
    1368:	00812c03          	lw	s8,8(sp)
    136c:	00412c83          	lw	s9,4(sp)
    1370:	fcdff06f          	j	133c <print_segment_int+0x14c>

00001374 <init_board>:
    1374:	00450513          	addi	a0,a0,4
    1378:	00100713          	li	a4,1
    137c:	00700693          	li	a3,7
    1380:	00f00613          	li	a2,15
    1384:	0100006f          	j	1394 <init_board+0x20>
    1388:	00052023          	sw	zero,0(a0)
    138c:	00170713          	addi	a4,a4,1
    1390:	00450513          	addi	a0,a0,4
    1394:	fed70ae3          	beq	a4,a3,1388 <init_board+0x14>
    1398:	ff270793          	addi	a5,a4,-14
    139c:	00f037b3          	snez	a5,a5
    13a0:	00279793          	slli	a5,a5,0x2
    13a4:	00f52023          	sw	a5,0(a0)
    13a8:	00170713          	addi	a4,a4,1
    13ac:	00450513          	addi	a0,a0,4
    13b0:	fec712e3          	bne	a4,a2,1394 <init_board+0x20>
    13b4:	00008067          	ret

000013b8 <print_board>:
    13b8:	fe010113          	addi	sp,sp,-32
    13bc:	00112e23          	sw	ra,28(sp)
    13c0:	00812c23          	sw	s0,24(sp)
    13c4:	00912a23          	sw	s1,20(sp)
    13c8:	01212823          	sw	s2,16(sp)
    13cc:	01312623          	sw	s3,12(sp)
    13d0:	01412423          	sw	s4,8(sp)
    13d4:	01512223          	sw	s5,4(sp)
    13d8:	00050913          	mv	s2,a0
    13dc:	00058493          	mv	s1,a1
    13e0:	00a00513          	li	a0,10
    13e4:	208030ef          	jal	45ec <putchar>
    13e8:	00100793          	li	a5,1
    13ec:	02f48e63          	beq	s1,a5,1428 <print_board+0x70>
    13f0:	00020637          	lui	a2,0x20
    13f4:	42860613          	addi	a2,a2,1064 # 20428 <__clz_tab+0x100>
    13f8:	000205b7          	lui	a1,0x20
    13fc:	44c58593          	addi	a1,a1,1100 # 2044c <__clz_tab+0x124>
    1400:	00020537          	lui	a0,0x20
    1404:	45850513          	addi	a0,a0,1112 # 20458 <__clz_tab+0x130>
    1408:	218030ef          	jal	4620 <printf>
    140c:	00020537          	lui	a0,0x20
    1410:	46c50513          	addi	a0,a0,1132 # 2046c <__clz_tab+0x144>
    1414:	20c030ef          	jal	4620 <printf>
    1418:	00600413          	li	s0,6
    141c:	00100a13          	li	s4,1
    1420:	000209b7          	lui	s3,0x20
    1424:	0440006f          	j	1468 <print_board+0xb0>
    1428:	00020637          	lui	a2,0x20
    142c:	42860613          	addi	a2,a2,1064 # 20428 <__clz_tab+0x100>
    1430:	000205b7          	lui	a1,0x20
    1434:	43058593          	addi	a1,a1,1072 # 20430 <__clz_tab+0x108>
    1438:	00020537          	lui	a0,0x20
    143c:	43850513          	addi	a0,a0,1080 # 20438 <__clz_tab+0x110>
    1440:	1e0030ef          	jal	4620 <printf>
    1444:	fc9ff06f          	j	140c <print_board+0x54>
    1448:	00740793          	addi	a5,s0,7
    144c:	00279793          	slli	a5,a5,0x2
    1450:	00f907b3          	add	a5,s2,a5
    1454:	0007a583          	lw	a1,0(a5)
    1458:	47498513          	addi	a0,s3,1140 # 20474 <__clz_tab+0x14c>
    145c:	1c4030ef          	jal	4620 <printf>
    1460:	fff40413          	addi	s0,s0,-1
    1464:	00040863          	beqz	s0,1474 <print_board+0xbc>
    1468:	00040793          	mv	a5,s0
    146c:	ff4490e3          	bne	s1,s4,144c <print_board+0x94>
    1470:	fd9ff06f          	j	1448 <print_board+0x90>
    1474:	00a00513          	li	a0,10
    1478:	174030ef          	jal	45ec <putchar>
    147c:	00100793          	li	a5,1
    1480:	04f48e63          	beq	s1,a5,14dc <print_board+0x124>
    1484:	01c92583          	lw	a1,28(s2)
    1488:	03892403          	lw	s0,56(s2)
    148c:	00020537          	lui	a0,0x20
    1490:	48050513          	addi	a0,a0,1152 # 20480 <__clz_tab+0x158>
    1494:	18c030ef          	jal	4620 <printf>
    1498:	00020537          	lui	a0,0x20
    149c:	48850513          	addi	a0,a0,1160 # 20488 <__clz_tab+0x160>
    14a0:	180030ef          	jal	4620 <printf>
    14a4:	00040593          	mv	a1,s0
    14a8:	00020537          	lui	a0,0x20
    14ac:	4f850513          	addi	a0,a0,1272 # 204f8 <__clz_tab+0x1d0>
    14b0:	170030ef          	jal	4620 <printf>
    14b4:	00a00513          	li	a0,10
    14b8:	134030ef          	jal	45ec <putchar>
    14bc:	00020537          	lui	a0,0x20
    14c0:	46c50513          	addi	a0,a0,1132 # 2046c <__clz_tab+0x144>
    14c4:	15c030ef          	jal	4620 <printf>
    14c8:	00100413          	li	s0,1
    14cc:	00040a93          	mv	s5,s0
    14d0:	00020a37          	lui	s4,0x20
    14d4:	00700993          	li	s3,7
    14d8:	02c0006f          	j	1504 <print_board+0x14c>
    14dc:	03892583          	lw	a1,56(s2)
    14e0:	01c92403          	lw	s0,28(s2)
    14e4:	fa9ff06f          	j	148c <print_board+0xd4>
    14e8:	00279793          	slli	a5,a5,0x2
    14ec:	00f907b3          	add	a5,s2,a5
    14f0:	0007a583          	lw	a1,0(a5)
    14f4:	474a0513          	addi	a0,s4,1140 # 20474 <__clz_tab+0x14c>
    14f8:	128030ef          	jal	4620 <printf>
    14fc:	00140413          	addi	s0,s0,1
    1500:	01340a63          	beq	s0,s3,1514 <print_board+0x15c>
    1504:	00040793          	mv	a5,s0
    1508:	ff5480e3          	beq	s1,s5,14e8 <print_board+0x130>
    150c:	00740793          	addi	a5,s0,7
    1510:	fd9ff06f          	j	14e8 <print_board+0x130>
    1514:	00a00513          	li	a0,10
    1518:	0d4030ef          	jal	45ec <putchar>
    151c:	00100793          	li	a5,1
    1520:	04f48663          	beq	s1,a5,156c <print_board+0x1b4>
    1524:	00020637          	lui	a2,0x20
    1528:	42860613          	addi	a2,a2,1064 # 20428 <__clz_tab+0x100>
    152c:	000205b7          	lui	a1,0x20
    1530:	43058593          	addi	a1,a1,1072 # 20430 <__clz_tab+0x108>
    1534:	00020537          	lui	a0,0x20
    1538:	43850513          	addi	a0,a0,1080 # 20438 <__clz_tab+0x110>
    153c:	0e4030ef          	jal	4620 <printf>
    1540:	00a00513          	li	a0,10
    1544:	0a8030ef          	jal	45ec <putchar>
    1548:	01c12083          	lw	ra,28(sp)
    154c:	01812403          	lw	s0,24(sp)
    1550:	01412483          	lw	s1,20(sp)
    1554:	01012903          	lw	s2,16(sp)
    1558:	00c12983          	lw	s3,12(sp)
    155c:	00812a03          	lw	s4,8(sp)
    1560:	00412a83          	lw	s5,4(sp)
    1564:	02010113          	addi	sp,sp,32
    1568:	00008067          	ret
    156c:	00020637          	lui	a2,0x20
    1570:	42860613          	addi	a2,a2,1064 # 20428 <__clz_tab+0x100>
    1574:	000205b7          	lui	a1,0x20
    1578:	44c58593          	addi	a1,a1,1100 # 2044c <__clz_tab+0x124>
    157c:	00020537          	lui	a0,0x20
    1580:	45850513          	addi	a0,a0,1112 # 20458 <__clz_tab+0x130>
    1584:	09c030ef          	jal	4620 <printf>
    1588:	fb9ff06f          	j	1540 <print_board+0x188>

0000158c <is_game_over>:
    158c:	00450793          	addi	a5,a0,4
    1590:	01c50613          	addi	a2,a0,28
    1594:	00000713          	li	a4,0
    1598:	0007a683          	lw	a3,0(a5)
    159c:	00d70733          	add	a4,a4,a3
    15a0:	00478793          	addi	a5,a5,4
    15a4:	fec79ae3          	bne	a5,a2,1598 <is_game_over+0xc>
    15a8:	02050793          	addi	a5,a0,32
    15ac:	03850513          	addi	a0,a0,56
    15b0:	00000693          	li	a3,0
    15b4:	0007a603          	lw	a2,0(a5)
    15b8:	00c686b3          	add	a3,a3,a2
    15bc:	00478793          	addi	a5,a5,4
    15c0:	fea79ae3          	bne	a5,a0,15b4 <is_game_over+0x28>
    15c4:	00100513          	li	a0,1
    15c8:	00070463          	beqz	a4,15d0 <is_game_over+0x44>
    15cc:	0016b513          	seqz	a0,a3
    15d0:	00008067          	ret

000015d4 <store_input>:
    15d4:	fd010113          	addi	sp,sp,-48
    15d8:	02112623          	sw	ra,44(sp)
    15dc:	02812423          	sw	s0,40(sp)
    15e0:	02912223          	sw	s1,36(sp)
    15e4:	03212023          	sw	s2,32(sp)
    15e8:	01312e23          	sw	s3,28(sp)
    15ec:	01412c23          	sw	s4,24(sp)
    15f0:	01512a23          	sw	s5,20(sp)
    15f4:	01612823          	sw	s6,16(sp)
    15f8:	01712623          	sw	s7,12(sp)
    15fc:	00050493          	mv	s1,a0
    1600:	00058b13          	mv	s6,a1
    1604:	00000413          	li	s0,0
    1608:	000229b7          	lui	s3,0x22
    160c:	00800913          	li	s2,8
    1610:	01a00a13          	li	s4,26
    1614:	00a00a93          	li	s5,10
    1618:	02700b93          	li	s7,39
    161c:	01c0006f          	j	1638 <store_input+0x64>
    1620:	00040793          	mv	a5,s0
    1624:	00805863          	blez	s0,1634 <store_input+0x60>
    1628:	fff40793          	addi	a5,s0,-1
    162c:	00f48733          	add	a4,s1,a5
    1630:	00070023          	sb	zero,0(a4)
    1634:	00078413          	mv	s0,a5
    1638:	5f49a783          	lw	a5,1524(s3) # 225f4 <io_getch>
    163c:	000780e7          	jalr	a5
    1640:	ff2500e3          	beq	a0,s2,1620 <store_input+0x4c>
    1644:	05450c63          	beq	a0,s4,169c <store_input+0xc8>
    1648:	00140793          	addi	a5,s0,1
    164c:	00848433          	add	s0,s1,s0
    1650:	00a40023          	sb	a0,0(s0)
    1654:	07550463          	beq	a0,s5,16bc <store_input+0xe8>
    1658:	fd779ee3          	bne	a5,s7,1634 <store_input+0x60>
    165c:	020483a3          	sb	zero,39(s1)
    1660:	000227b7          	lui	a5,0x22
    1664:	5f87a783          	lw	a5,1528(a5) # 225f8 <io_putch>
    1668:	00a00513          	li	a0,10
    166c:	000780e7          	jalr	a5
    1670:	02c12083          	lw	ra,44(sp)
    1674:	02812403          	lw	s0,40(sp)
    1678:	02412483          	lw	s1,36(sp)
    167c:	02012903          	lw	s2,32(sp)
    1680:	01c12983          	lw	s3,28(sp)
    1684:	01812a03          	lw	s4,24(sp)
    1688:	01412a83          	lw	s5,20(sp)
    168c:	01012b03          	lw	s6,16(sp)
    1690:	00c12b83          	lw	s7,12(sp)
    1694:	03010113          	addi	sp,sp,48
    1698:	00008067          	ret
    169c:	00848533          	add	a0,s1,s0
    16a0:	00050023          	sb	zero,0(a0)
    16a4:	00020537          	lui	a0,0x20
    16a8:	50050513          	addi	a0,a0,1280 # 20500 <__clz_tab+0x1d8>
    16ac:	715020ef          	jal	45c0 <puts>
    16b0:	00100793          	li	a5,1
    16b4:	00fb2023          	sw	a5,0(s6) # 22000 <int_to_gpio>
    16b8:	fb9ff06f          	j	1670 <store_input+0x9c>
    16bc:	00f484b3          	add	s1,s1,a5
    16c0:	00048023          	sb	zero,0(s1)
    16c4:	fadff06f          	j	1670 <store_input+0x9c>

000016c8 <Mancala>:
    16c8:	f5010113          	addi	sp,sp,-176
    16cc:	0a112623          	sw	ra,172(sp)
    16d0:	0a812423          	sw	s0,168(sp)
    16d4:	0a912223          	sw	s1,164(sp)
    16d8:	0b212023          	sw	s2,160(sp)
    16dc:	09312e23          	sw	s3,156(sp)
    16e0:	09412c23          	sw	s4,152(sp)
    16e4:	09512a23          	sw	s5,148(sp)
    16e8:	09612823          	sw	s6,144(sp)
    16ec:	09712623          	sw	s7,140(sp)
    16f0:	09812423          	sw	s8,136(sp)
    16f4:	09912223          	sw	s9,132(sp)
    16f8:	09a12023          	sw	s10,128(sp)
    16fc:	07b12e23          	sw	s11,124(sp)
    1700:	03410513          	addi	a0,sp,52
    1704:	c71ff0ef          	jal	1374 <init_board>
    1708:	00012423          	sw	zero,8(sp)
    170c:	00000513          	li	a0,0
    1710:	368030ef          	jal	4a78 <set_uart_ID>
    1714:	00000513          	li	a0,0
    1718:	360030ef          	jal	4a78 <set_uart_ID>
    171c:	000209b7          	lui	s3,0x20
    1720:	51498513          	addi	a0,s3,1300 # 20514 <__clz_tab+0x1ec>
    1724:	69d020ef          	jal	45c0 <puts>
    1728:	00020937          	lui	s2,0x20
    172c:	54890513          	addi	a0,s2,1352 # 20548 <__clz_tab+0x220>
    1730:	691020ef          	jal	45c0 <puts>
    1734:	000204b7          	lui	s1,0x20
    1738:	59448513          	addi	a0,s1,1428 # 20594 <__clz_tab+0x26c>
    173c:	685020ef          	jal	45c0 <puts>
    1740:	00020437          	lui	s0,0x20
    1744:	7a440513          	addi	a0,s0,1956 # 207a4 <__clz_tab+0x47c>
    1748:	679020ef          	jal	45c0 <puts>
    174c:	00100513          	li	a0,1
    1750:	328030ef          	jal	4a78 <set_uart_ID>
    1754:	51498513          	addi	a0,s3,1300
    1758:	669020ef          	jal	45c0 <puts>
    175c:	54890513          	addi	a0,s2,1352
    1760:	661020ef          	jal	45c0 <puts>
    1764:	59448513          	addi	a0,s1,1428
    1768:	659020ef          	jal	45c0 <puts>
    176c:	7a440513          	addi	a0,s0,1956
    1770:	651020ef          	jal	45c0 <puts>
    1774:	00100993          	li	s3,1
    1778:	00021db7          	lui	s11,0x21
    177c:	00098a13          	mv	s4,s3
    1780:	00200a93          	li	s5,2
    1784:	0a40006f          	j	1828 <Mancala+0x160>
    1788:	00020b37          	lui	s6,0x20
    178c:	44cb0b13          	addi	s6,s6,1100 # 2044c <__clz_tab+0x124>
    1790:	1080006f          	j	1898 <Mancala+0x1d0>
    1794:	00021537          	lui	a0,0x21
    1798:	85c50513          	addi	a0,a0,-1956 # 2085c <__clz_tab+0x534>
    179c:	625020ef          	jal	45c0 <puts>
    17a0:	1140006f          	j	18b4 <Mancala+0x1ec>
    17a4:	00050593          	mv	a1,a0
    17a8:	00021537          	lui	a0,0x21
    17ac:	89850513          	addi	a0,a0,-1896 # 20898 <__clz_tab+0x570>
    17b0:	671020ef          	jal	4620 <printf>
    17b4:	1000006f          	j	18b4 <Mancala+0x1ec>
    17b8:	02848063          	beq	s1,s0,17d8 <Mancala+0x110>
    17bc:	00249793          	slli	a5,s1,0x2
    17c0:	016787b3          	add	a5,a5,s6
    17c4:	0007a703          	lw	a4,0(a5)
    17c8:	00170713          	addi	a4,a4,1
    17cc:	00e7a023          	sw	a4,0(a5)
    17d0:	fff90913          	addi	s2,s2,-1
    17d4:	03205263          	blez	s2,17f8 <Mancala+0x130>
    17d8:	00040593          	mv	a1,s0
    17dc:	00048513          	mv	a0,s1
    17e0:	3d8060ef          	jal	7bb8 <__modsi3>
    17e4:	00150493          	addi	s1,a0,1
    17e8:	fd4988e3          	beq	s3,s4,17b8 <Mancala+0xf0>
    17ec:	fd5998e3          	bne	s3,s5,17bc <Mancala+0xf4>
    17f0:	fd7496e3          	bne	s1,s7,17bc <Mancala+0xf4>
    17f4:	fe5ff06f          	j	17d8 <Mancala+0x110>
    17f8:	03410513          	addi	a0,sp,52
    17fc:	d91ff0ef          	jal	158c <is_game_over>
    1800:	16051863          	bnez	a0,1970 <Mancala+0x2a8>
    1804:	13498e63          	beq	s3,s4,1940 <Mancala+0x278>
    1808:	01599663          	bne	s3,s5,1814 <Mancala+0x14c>
    180c:	00e00793          	li	a5,14
    1810:	12f48c63          	beq	s1,a5,1948 <Mancala+0x280>
    1814:	00300793          	li	a5,3
    1818:	413789b3          	sub	s3,a5,s3
    181c:	00021537          	lui	a0,0x21
    1820:	8c850513          	addi	a0,a0,-1848 # 208c8 <__clz_tab+0x5a0>
    1824:	59d020ef          	jal	45c0 <puts>
    1828:	00000513          	li	a0,0
    182c:	24c030ef          	jal	4a78 <set_uart_ID>
    1830:	970d8513          	addi	a0,s11,-1680 # 20970 <__clz_tab+0x648>
    1834:	58d020ef          	jal	45c0 <puts>
    1838:	03410413          	addi	s0,sp,52
    183c:	00098613          	mv	a2,s3
    1840:	000a0593          	mv	a1,s4
    1844:	00040513          	mv	a0,s0
    1848:	b71ff0ef          	jal	13b8 <print_board>
    184c:	000a0513          	mv	a0,s4
    1850:	228030ef          	jal	4a78 <set_uart_ID>
    1854:	970d8513          	addi	a0,s11,-1680
    1858:	569020ef          	jal	45c0 <puts>
    185c:	00098613          	mv	a2,s3
    1860:	000a8593          	mv	a1,s5
    1864:	00040513          	mv	a0,s0
    1868:	b51ff0ef          	jal	13b8 <print_board>
    186c:	fff98413          	addi	s0,s3,-1
    1870:	00143513          	seqz	a0,s0
    1874:	204030ef          	jal	4a78 <set_uart_ID>
    1878:	00021537          	lui	a0,0x21
    187c:	99850513          	addi	a0,a0,-1640 # 20998 <__clz_tab+0x670>
    1880:	541020ef          	jal	45c0 <puts>
    1884:	00803533          	snez	a0,s0
    1888:	1f0030ef          	jal	4a78 <set_uart_ID>
    188c:	ef498ee3          	beq	s3,s4,1788 <Mancala+0xc0>
    1890:	00020b37          	lui	s6,0x20
    1894:	430b0b13          	addi	s6,s6,1072 # 20430 <__clz_tab+0x108>
    1898:	00812783          	lw	a5,8(sp)
    189c:	0c079a63          	bnez	a5,1970 <Mancala+0x2a8>
    18a0:	00020d37          	lui	s10,0x20
    18a4:	00020cb7          	lui	s9,0x20
    18a8:	03410413          	addi	s0,sp,52
    18ac:	00810c13          	addi	s8,sp,8
    18b0:	00c10b93          	addi	s7,sp,12
    18b4:	428d0693          	addi	a3,s10,1064 # 20428 <__clz_tab+0x100>
    18b8:	00098613          	mv	a2,s3
    18bc:	000b0593          	mv	a1,s6
    18c0:	7ecc8513          	addi	a0,s9,2028 # 207ec <__clz_tab+0x4c4>
    18c4:	55d020ef          	jal	4620 <printf>
    18c8:	00c10793          	addi	a5,sp,12
    18cc:	00078023          	sb	zero,0(a5)
    18d0:	00178793          	addi	a5,a5,1
    18d4:	fe879ce3          	bne	a5,s0,18cc <Mancala+0x204>
    18d8:	000c0593          	mv	a1,s8
    18dc:	000b8513          	mv	a0,s7
    18e0:	cf5ff0ef          	jal	15d4 <store_input>
    18e4:	00812783          	lw	a5,8(sp)
    18e8:	08079463          	bnez	a5,1970 <Mancala+0x2a8>
    18ec:	000b8513          	mv	a0,s7
    18f0:	698060ef          	jal	7f88 <atoi>
    18f4:	fff50793          	addi	a5,a0,-1
    18f8:	00500713          	li	a4,5
    18fc:	e8f76ce3          	bltu	a4,a5,1794 <Mancala+0xcc>
    1900:	00050493          	mv	s1,a0
    1904:	01498463          	beq	s3,s4,190c <Mancala+0x244>
    1908:	00750493          	addi	s1,a0,7
    190c:	00249793          	slli	a5,s1,0x2
    1910:	008787b3          	add	a5,a5,s0
    1914:	0007a903          	lw	s2,0(a5)
    1918:	e80906e3          	beqz	s2,17a4 <Mancala+0xdc>
    191c:	00249793          	slli	a5,s1,0x2
    1920:	07078793          	addi	a5,a5,112
    1924:	002787b3          	add	a5,a5,sp
    1928:	fc07a223          	sw	zero,-60(a5)
    192c:	ed2056e3          	blez	s2,17f8 <Mancala+0x130>
    1930:	00e00413          	li	s0,14
    1934:	03410b13          	addi	s6,sp,52
    1938:	00700b93          	li	s7,7
    193c:	e9dff06f          	j	17d8 <Mancala+0x110>
    1940:	00700793          	li	a5,7
    1944:	ecf498e3          	bne	s1,a5,1814 <Mancala+0x14c>
    1948:	000206b7          	lui	a3,0x20
    194c:	42868693          	addi	a3,a3,1064 # 20428 <__clz_tab+0x100>
    1950:	00021637          	lui	a2,0x21
    1954:	91c60613          	addi	a2,a2,-1764 # 2091c <__clz_tab+0x5f4>
    1958:	000215b7          	lui	a1,0x21
    195c:	92458593          	addi	a1,a1,-1756 # 20924 <__clz_tab+0x5fc>
    1960:	00021537          	lui	a0,0x21
    1964:	92c50513          	addi	a0,a0,-1748 # 2092c <__clz_tab+0x604>
    1968:	4b9020ef          	jal	4620 <printf>
    196c:	ebdff06f          	j	1828 <Mancala+0x160>
    1970:	03410793          	addi	a5,sp,52
    1974:	04c10693          	addi	a3,sp,76
    1978:	00078713          	mv	a4,a5
    197c:	00000493          	li	s1,0
    1980:	00472603          	lw	a2,4(a4)
    1984:	00c484b3          	add	s1,s1,a2
    1988:	00470713          	addi	a4,a4,4
    198c:	fee69ae3          	bne	a3,a4,1980 <Mancala+0x2b8>
    1990:	00000413          	li	s0,0
    1994:	0207a703          	lw	a4,32(a5)
    1998:	00e40433          	add	s0,s0,a4
    199c:	00478793          	addi	a5,a5,4
    19a0:	fef69ae3          	bne	a3,a5,1994 <Mancala+0x2cc>
    19a4:	00000513          	li	a0,0
    19a8:	0d0030ef          	jal	4a78 <set_uart_ID>
    19ac:	000219b7          	lui	s3,0x21
    19b0:	9c098513          	addi	a0,s3,-1600 # 209c0 <__clz_tab+0x698>
    19b4:	40d020ef          	jal	45c0 <puts>
    19b8:	03410913          	addi	s2,sp,52
    19bc:	00000613          	li	a2,0
    19c0:	00100593          	li	a1,1
    19c4:	00090513          	mv	a0,s2
    19c8:	9f1ff0ef          	jal	13b8 <print_board>
    19cc:	00100513          	li	a0,1
    19d0:	0a8030ef          	jal	4a78 <set_uart_ID>
    19d4:	9c098513          	addi	a0,s3,-1600
    19d8:	3e9020ef          	jal	45c0 <puts>
    19dc:	00000613          	li	a2,0
    19e0:	00200593          	li	a1,2
    19e4:	00090513          	mv	a0,s2
    19e8:	9d1ff0ef          	jal	13b8 <print_board>
    19ec:	00100913          	li	s2,1
    19f0:	00048663          	beqz	s1,19fc <Mancala+0x334>
    19f4:	00143413          	seqz	s0,s0
    19f8:	00141913          	slli	s2,s0,0x1
    19fc:	00000513          	li	a0,0
    1a00:	078030ef          	jal	4a78 <set_uart_ID>
    1a04:	00090513          	mv	a0,s2
    1a08:	0ac12083          	lw	ra,172(sp)
    1a0c:	0a812403          	lw	s0,168(sp)
    1a10:	0a412483          	lw	s1,164(sp)
    1a14:	0a012903          	lw	s2,160(sp)
    1a18:	09c12983          	lw	s3,156(sp)
    1a1c:	09812a03          	lw	s4,152(sp)
    1a20:	09412a83          	lw	s5,148(sp)
    1a24:	09012b03          	lw	s6,144(sp)
    1a28:	08c12b83          	lw	s7,140(sp)
    1a2c:	08812c03          	lw	s8,136(sp)
    1a30:	08412c83          	lw	s9,132(sp)
    1a34:	08012d03          	lw	s10,128(sp)
    1a38:	07c12d83          	lw	s11,124(sp)
    1a3c:	0b010113          	addi	sp,sp,176
    1a40:	00008067          	ret

00001a44 <roll_dice>:
    1a44:	ff010113          	addi	sp,sp,-16
    1a48:	00112623          	sw	ra,12(sp)
    1a4c:	00812423          	sw	s0,8(sp)
    1a50:	00912223          	sw	s1,4(sp)
    1a54:	01212023          	sw	s2,0(sp)
    1a58:	00050413          	mv	s0,a0
    1a5c:	01450913          	addi	s2,a0,20
    1a60:	00600493          	li	s1,6
    1a64:	550060ef          	jal	7fb4 <rand>
    1a68:	00048593          	mv	a1,s1
    1a6c:	14c060ef          	jal	7bb8 <__modsi3>
    1a70:	00150513          	addi	a0,a0,1
    1a74:	00a42023          	sw	a0,0(s0)
    1a78:	00440413          	addi	s0,s0,4
    1a7c:	ff2414e3          	bne	s0,s2,1a64 <roll_dice+0x20>
    1a80:	00c12083          	lw	ra,12(sp)
    1a84:	00812403          	lw	s0,8(sp)
    1a88:	00412483          	lw	s1,4(sp)
    1a8c:	00012903          	lw	s2,0(sp)
    1a90:	01010113          	addi	sp,sp,16
    1a94:	00008067          	ret

00001a98 <yacht_score>:
    1a98:	fc010113          	addi	sp,sp,-64
    1a9c:	02112e23          	sw	ra,60(sp)
    1aa0:	02812c23          	sw	s0,56(sp)
    1aa4:	02912a23          	sw	s1,52(sp)
    1aa8:	03212823          	sw	s2,48(sp)
    1aac:	03312623          	sw	s3,44(sp)
    1ab0:	03412423          	sw	s4,40(sp)
    1ab4:	00058913          	mv	s2,a1
    1ab8:	00012223          	sw	zero,4(sp)
    1abc:	00012423          	sw	zero,8(sp)
    1ac0:	00012623          	sw	zero,12(sp)
    1ac4:	00012823          	sw	zero,16(sp)
    1ac8:	00012a23          	sw	zero,20(sp)
    1acc:	00012c23          	sw	zero,24(sp)
    1ad0:	00012e23          	sw	zero,28(sp)
    1ad4:	00050693          	mv	a3,a0
    1ad8:	01450513          	addi	a0,a0,20
    1adc:	00000493          	li	s1,0
    1ae0:	00000413          	li	s0,0
    1ae4:	00410593          	addi	a1,sp,4
    1ae8:	00c0006f          	j	1af4 <yacht_score+0x5c>
    1aec:	00468693          	addi	a3,a3,4
    1af0:	02a68663          	beq	a3,a0,1b1c <yacht_score+0x84>
    1af4:	0006a603          	lw	a2,0(a3)
    1af8:	00261713          	slli	a4,a2,0x2
    1afc:	00b70733          	add	a4,a4,a1
    1b00:	00072783          	lw	a5,0(a4)
    1b04:	00178793          	addi	a5,a5,1
    1b08:	00f72023          	sw	a5,0(a4)
    1b0c:	00c40433          	add	s0,s0,a2
    1b10:	fcf4dee3          	bge	s1,a5,1aec <yacht_score+0x54>
    1b14:	00078493          	mv	s1,a5
    1b18:	fd5ff06f          	j	1aec <yacht_score+0x54>
    1b1c:	00410a13          	addi	s4,sp,4
    1b20:	01c10613          	addi	a2,sp,28
    1b24:	000a0713          	mv	a4,s4
    1b28:	00000993          	li	s3,0
    1b2c:	00200693          	li	a3,2
    1b30:	00472783          	lw	a5,4(a4)
    1b34:	40d787b3          	sub	a5,a5,a3
    1b38:	0017b793          	seqz	a5,a5
    1b3c:	00f989b3          	add	s3,s3,a5
    1b40:	00470713          	addi	a4,a4,4
    1b44:	fec716e3          	bne	a4,a2,1b30 <yacht_score+0x98>
    1b48:	000215b7          	lui	a1,0x21
    1b4c:	9d058593          	addi	a1,a1,-1584 # 209d0 <__clz_tab+0x6a8>
    1b50:	00090513          	mv	a0,s2
    1b54:	22c060ef          	jal	7d80 <strcmp>
    1b58:	0c050863          	beqz	a0,1c28 <yacht_score+0x190>
    1b5c:	000215b7          	lui	a1,0x21
    1b60:	9d858593          	addi	a1,a1,-1576 # 209d8 <__clz_tab+0x6b0>
    1b64:	00090513          	mv	a0,s2
    1b68:	218060ef          	jal	7d80 <strcmp>
    1b6c:	0e050263          	beqz	a0,1c50 <yacht_score+0x1b8>
    1b70:	000215b7          	lui	a1,0x21
    1b74:	9e058593          	addi	a1,a1,-1568 # 209e0 <__clz_tab+0x6b8>
    1b78:	00090513          	mv	a0,s2
    1b7c:	204060ef          	jal	7d80 <strcmp>
    1b80:	0c050e63          	beqz	a0,1c5c <yacht_score+0x1c4>
    1b84:	000215b7          	lui	a1,0x21
    1b88:	9e858593          	addi	a1,a1,-1560 # 209e8 <__clz_tab+0x6c0>
    1b8c:	00090513          	mv	a0,s2
    1b90:	1f0060ef          	jal	7d80 <strcmp>
    1b94:	0c050c63          	beqz	a0,1c6c <yacht_score+0x1d4>
    1b98:	000215b7          	lui	a1,0x21
    1b9c:	9f058593          	addi	a1,a1,-1552 # 209f0 <__clz_tab+0x6c8>
    1ba0:	00090513          	mv	a0,s2
    1ba4:	1dc060ef          	jal	7d80 <strcmp>
    1ba8:	0c050863          	beqz	a0,1c78 <yacht_score+0x1e0>
    1bac:	000215b7          	lui	a1,0x21
    1bb0:	9f858593          	addi	a1,a1,-1544 # 209f8 <__clz_tab+0x6d0>
    1bb4:	00090513          	mv	a0,s2
    1bb8:	1c8060ef          	jal	7d80 <strcmp>
    1bbc:	0c050663          	beqz	a0,1c88 <yacht_score+0x1f0>
    1bc0:	000215b7          	lui	a1,0x21
    1bc4:	a0058593          	addi	a1,a1,-1536 # 20a00 <__clz_tab+0x6d8>
    1bc8:	00090513          	mv	a0,s2
    1bcc:	1b4060ef          	jal	7d80 <strcmp>
    1bd0:	04050e63          	beqz	a0,1c2c <yacht_score+0x194>
    1bd4:	000215b7          	lui	a1,0x21
    1bd8:	a0858593          	addi	a1,a1,-1528 # 20a08 <__clz_tab+0x6e0>
    1bdc:	00090513          	mv	a0,s2
    1be0:	1a0060ef          	jal	7d80 <strcmp>
    1be4:	00051663          	bnez	a0,1bf0 <yacht_score+0x158>
    1be8:	00300793          	li	a5,3
    1bec:	0497c063          	blt	a5,s1,1c2c <yacht_score+0x194>
    1bf0:	000215b7          	lui	a1,0x21
    1bf4:	a1858593          	addi	a1,a1,-1512 # 20a18 <__clz_tab+0x6f0>
    1bf8:	00090513          	mv	a0,s2
    1bfc:	184060ef          	jal	7d80 <strcmp>
    1c00:	00051663          	bnez	a0,1c0c <yacht_score+0x174>
    1c04:	00300793          	li	a5,3
    1c08:	08f48a63          	beq	s1,a5,1c9c <yacht_score+0x204>
    1c0c:	000215b7          	lui	a1,0x21
    1c10:	a2458593          	addi	a1,a1,-1500 # 20a24 <__clz_tab+0x6fc>
    1c14:	00090513          	mv	a0,s2
    1c18:	168060ef          	jal	7d80 <strcmp>
    1c1c:	0a051e63          	bnez	a0,1cd8 <yacht_score+0x240>
    1c20:	00ca0713          	addi	a4,s4,12
    1c24:	08c0006f          	j	1cb0 <yacht_score+0x218>
    1c28:	00812403          	lw	s0,8(sp)
    1c2c:	00040513          	mv	a0,s0
    1c30:	03c12083          	lw	ra,60(sp)
    1c34:	03812403          	lw	s0,56(sp)
    1c38:	03412483          	lw	s1,52(sp)
    1c3c:	03012903          	lw	s2,48(sp)
    1c40:	02c12983          	lw	s3,44(sp)
    1c44:	02812a03          	lw	s4,40(sp)
    1c48:	04010113          	addi	sp,sp,64
    1c4c:	00008067          	ret
    1c50:	00c12403          	lw	s0,12(sp)
    1c54:	00141413          	slli	s0,s0,0x1
    1c58:	fd5ff06f          	j	1c2c <yacht_score+0x194>
    1c5c:	01012783          	lw	a5,16(sp)
    1c60:	00179413          	slli	s0,a5,0x1
    1c64:	00f40433          	add	s0,s0,a5
    1c68:	fc5ff06f          	j	1c2c <yacht_score+0x194>
    1c6c:	01412403          	lw	s0,20(sp)
    1c70:	00241413          	slli	s0,s0,0x2
    1c74:	fb9ff06f          	j	1c2c <yacht_score+0x194>
    1c78:	01812783          	lw	a5,24(sp)
    1c7c:	00279413          	slli	s0,a5,0x2
    1c80:	00f40433          	add	s0,s0,a5
    1c84:	fa9ff06f          	j	1c2c <yacht_score+0x194>
    1c88:	01c12783          	lw	a5,28(sp)
    1c8c:	00179413          	slli	s0,a5,0x1
    1c90:	00f40433          	add	s0,s0,a5
    1c94:	00141413          	slli	s0,s0,0x1
    1c98:	f95ff06f          	j	1c2c <yacht_score+0x194>
    1c9c:	00100793          	li	a5,1
    1ca0:	f6f996e3          	bne	s3,a5,1c0c <yacht_score+0x174>
    1ca4:	f89ff06f          	j	1c2c <yacht_score+0x194>
    1ca8:	004a0a13          	addi	s4,s4,4
    1cac:	02ea0663          	beq	s4,a4,1cd8 <yacht_score+0x240>
    1cb0:	004a2783          	lw	a5,4(s4)
    1cb4:	fe078ae3          	beqz	a5,1ca8 <yacht_score+0x210>
    1cb8:	008a2783          	lw	a5,8(s4)
    1cbc:	fe0786e3          	beqz	a5,1ca8 <yacht_score+0x210>
    1cc0:	00ca2783          	lw	a5,12(s4)
    1cc4:	fe0782e3          	beqz	a5,1ca8 <yacht_score+0x210>
    1cc8:	010a2783          	lw	a5,16(s4)
    1ccc:	fc078ee3          	beqz	a5,1ca8 <yacht_score+0x210>
    1cd0:	00f00413          	li	s0,15
    1cd4:	f59ff06f          	j	1c2c <yacht_score+0x194>
    1cd8:	000215b7          	lui	a1,0x21
    1cdc:	a3058593          	addi	a1,a1,-1488 # 20a30 <__clz_tab+0x708>
    1ce0:	00090513          	mv	a0,s2
    1ce4:	09c060ef          	jal	7d80 <strcmp>
    1ce8:	06051063          	bnez	a0,1d48 <yacht_score+0x2b0>
    1cec:	00812783          	lw	a5,8(sp)
    1cf0:	02078663          	beqz	a5,1d1c <yacht_score+0x284>
    1cf4:	00c12783          	lw	a5,12(sp)
    1cf8:	04078863          	beqz	a5,1d48 <yacht_score+0x2b0>
    1cfc:	01012783          	lw	a5,16(sp)
    1d00:	04078463          	beqz	a5,1d48 <yacht_score+0x2b0>
    1d04:	01412783          	lw	a5,20(sp)
    1d08:	02078263          	beqz	a5,1d2c <yacht_score+0x294>
    1d0c:	01812783          	lw	a5,24(sp)
    1d10:	01e00413          	li	s0,30
    1d14:	00078c63          	beqz	a5,1d2c <yacht_score+0x294>
    1d18:	f15ff06f          	j	1c2c <yacht_score+0x194>
    1d1c:	00c12783          	lw	a5,12(sp)
    1d20:	02078463          	beqz	a5,1d48 <yacht_score+0x2b0>
    1d24:	01012783          	lw	a5,16(sp)
    1d28:	02078063          	beqz	a5,1d48 <yacht_score+0x2b0>
    1d2c:	01412783          	lw	a5,20(sp)
    1d30:	00078c63          	beqz	a5,1d48 <yacht_score+0x2b0>
    1d34:	01812783          	lw	a5,24(sp)
    1d38:	00078863          	beqz	a5,1d48 <yacht_score+0x2b0>
    1d3c:	01c12783          	lw	a5,28(sp)
    1d40:	01e00413          	li	s0,30
    1d44:	ee0794e3          	bnez	a5,1c2c <yacht_score+0x194>
    1d48:	000215b7          	lui	a1,0x21
    1d4c:	a3c58593          	addi	a1,a1,-1476 # 20a3c <__clz_tab+0x714>
    1d50:	00090513          	mv	a0,s2
    1d54:	02c060ef          	jal	7d80 <strcmp>
    1d58:	00050413          	mv	s0,a0
    1d5c:	00051a63          	bnez	a0,1d70 <yacht_score+0x2d8>
    1d60:	00500793          	li	a5,5
    1d64:	ecf494e3          	bne	s1,a5,1c2c <yacht_score+0x194>
    1d68:	03200413          	li	s0,50
    1d6c:	ec1ff06f          	j	1c2c <yacht_score+0x194>
    1d70:	00000413          	li	s0,0
    1d74:	eb9ff06f          	j	1c2c <yacht_score+0x194>

00001d78 <uart_puts_id>:
    1d78:	ff010113          	addi	sp,sp,-16
    1d7c:	00112623          	sw	ra,12(sp)
    1d80:	00812423          	sw	s0,8(sp)
    1d84:	00912223          	sw	s1,4(sp)
    1d88:	00050493          	mv	s1,a0
    1d8c:	00058413          	mv	s0,a1
    1d90:	0005c783          	lbu	a5,0(a1)
    1d94:	02078063          	beqz	a5,1db4 <uart_puts_id+0x3c>
    1d98:	00048513          	mv	a0,s1
    1d9c:	4dd020ef          	jal	4a78 <set_uart_ID>
    1da0:	00044503          	lbu	a0,0(s0)
    1da4:	540030ef          	jal	52e4 <_UARTBuf_putch>
    1da8:	00140413          	addi	s0,s0,1
    1dac:	00044783          	lbu	a5,0(s0)
    1db0:	fe0794e3          	bnez	a5,1d98 <uart_puts_id+0x20>
    1db4:	00c12083          	lw	ra,12(sp)
    1db8:	00812403          	lw	s0,8(sp)
    1dbc:	00412483          	lw	s1,4(sp)
    1dc0:	01010113          	addi	sp,sp,16
    1dc4:	00008067          	ret

00001dc8 <uart_putint_id>:
    1dc8:	fd010113          	addi	sp,sp,-48
    1dcc:	02112623          	sw	ra,44(sp)
    1dd0:	01312e23          	sw	s3,28(sp)
    1dd4:	00050993          	mv	s3,a0
    1dd8:	000107a3          	sb	zero,15(sp)
    1ddc:	0a058663          	beqz	a1,1e88 <uart_putint_id+0xc0>
    1de0:	02812423          	sw	s0,40(sp)
    1de4:	02912223          	sw	s1,36(sp)
    1de8:	03212023          	sw	s2,32(sp)
    1dec:	01412c23          	sw	s4,24(sp)
    1df0:	01512a23          	sw	s5,20(sp)
    1df4:	00058a93          	mv	s5,a1
    1df8:	41f5d793          	srai	a5,a1,0x1f
    1dfc:	00b7c4b3          	xor	s1,a5,a1
    1e00:	40f484b3          	sub	s1,s1,a5
    1e04:	00f10413          	addi	s0,sp,15
    1e08:	00a00913          	li	s2,10
    1e0c:	00040a13          	mv	s4,s0
    1e10:	fff40413          	addi	s0,s0,-1
    1e14:	00090593          	mv	a1,s2
    1e18:	00048513          	mv	a0,s1
    1e1c:	59d050ef          	jal	7bb8 <__modsi3>
    1e20:	03050513          	addi	a0,a0,48
    1e24:	00a40023          	sb	a0,0(s0)
    1e28:	00090593          	mv	a1,s2
    1e2c:	00048513          	mv	a0,s1
    1e30:	505050ef          	jal	7b34 <__divsi3>
    1e34:	00050493          	mv	s1,a0
    1e38:	fc051ae3          	bnez	a0,1e0c <uart_putint_id+0x44>
    1e3c:	040ace63          	bltz	s5,1e98 <uart_putint_id+0xd0>
    1e40:	00044483          	lbu	s1,0(s0)
    1e44:	06048263          	beqz	s1,1ea8 <uart_putint_id+0xe0>
    1e48:	00098513          	mv	a0,s3
    1e4c:	42d020ef          	jal	4a78 <set_uart_ID>
    1e50:	00048513          	mv	a0,s1
    1e54:	490030ef          	jal	52e4 <_UARTBuf_putch>
    1e58:	00140413          	addi	s0,s0,1
    1e5c:	00044483          	lbu	s1,0(s0)
    1e60:	fe0494e3          	bnez	s1,1e48 <uart_putint_id+0x80>
    1e64:	02812403          	lw	s0,40(sp)
    1e68:	02412483          	lw	s1,36(sp)
    1e6c:	02012903          	lw	s2,32(sp)
    1e70:	01812a03          	lw	s4,24(sp)
    1e74:	01412a83          	lw	s5,20(sp)
    1e78:	02c12083          	lw	ra,44(sp)
    1e7c:	01c12983          	lw	s3,28(sp)
    1e80:	03010113          	addi	sp,sp,48
    1e84:	00008067          	ret
    1e88:	3f1020ef          	jal	4a78 <set_uart_ID>
    1e8c:	03000513          	li	a0,48
    1e90:	454030ef          	jal	52e4 <_UARTBuf_putch>
    1e94:	fe5ff06f          	j	1e78 <uart_putint_id+0xb0>
    1e98:	02d00793          	li	a5,45
    1e9c:	fef40fa3          	sb	a5,-1(s0)
    1ea0:	ffea0413          	addi	s0,s4,-2
    1ea4:	f9dff06f          	j	1e40 <uart_putint_id+0x78>
    1ea8:	02812403          	lw	s0,40(sp)
    1eac:	02412483          	lw	s1,36(sp)
    1eb0:	02012903          	lw	s2,32(sp)
    1eb4:	01812a03          	lw	s4,24(sp)
    1eb8:	01412a83          	lw	s5,20(sp)
    1ebc:	fbdff06f          	j	1e78 <uart_putint_id+0xb0>

00001ec0 <uart_newline_id>:
    1ec0:	ff010113          	addi	sp,sp,-16
    1ec4:	00112623          	sw	ra,12(sp)
    1ec8:	3b1020ef          	jal	4a78 <set_uart_ID>
    1ecc:	00a00513          	li	a0,10
    1ed0:	414030ef          	jal	52e4 <_UARTBuf_putch>
    1ed4:	00c12083          	lw	ra,12(sp)
    1ed8:	01010113          	addi	sp,sp,16
    1edc:	00008067          	ret

00001ee0 <recv_choice>:
    1ee0:	fe010113          	addi	sp,sp,-32
    1ee4:	00112e23          	sw	ra,28(sp)
    1ee8:	00812c23          	sw	s0,24(sp)
    1eec:	00912a23          	sw	s1,20(sp)
    1ef0:	01212823          	sw	s2,16(sp)
    1ef4:	01412423          	sw	s4,8(sp)
    1ef8:	00050a13          	mv	s4,a0
    1efc:	00058913          	mv	s2,a1
    1f00:	00060493          	mv	s1,a2
    1f04:	375020ef          	jal	4a78 <set_uart_ID>
    1f08:	00100793          	li	a5,1
    1f0c:	0297dc63          	bge	a5,s1,1f44 <recv_choice+0x64>
    1f10:	01312623          	sw	s3,12(sp)
    1f14:	fff48493          	addi	s1,s1,-1
    1f18:	00000413          	li	s0,0
    1f1c:	00a00993          	li	s3,10
    1f20:	464030ef          	jal	5384 <_UARTBuf_getch>
    1f24:	03350463          	beq	a0,s3,1f4c <recv_choice+0x6c>
    1f28:	00140413          	addi	s0,s0,1
    1f2c:	008907b3          	add	a5,s2,s0
    1f30:	fea78fa3          	sb	a0,-1(a5)
    1f34:	fe9416e3          	bne	s0,s1,1f20 <recv_choice+0x40>
    1f38:	00048413          	mv	s0,s1
    1f3c:	00c12983          	lw	s3,12(sp)
    1f40:	0100006f          	j	1f50 <recv_choice+0x70>
    1f44:	00000413          	li	s0,0
    1f48:	0080006f          	j	1f50 <recv_choice+0x70>
    1f4c:	00c12983          	lw	s3,12(sp)
    1f50:	00890933          	add	s2,s2,s0
    1f54:	00090023          	sb	zero,0(s2)
    1f58:	004a1793          	slli	a5,s4,0x4
    1f5c:	414787b3          	sub	a5,a5,s4
    1f60:	00279793          	slli	a5,a5,0x2
    1f64:	00022537          	lui	a0,0x22
    1f68:	69850513          	addi	a0,a0,1688 # 22698 <UART_BUF_RX>
    1f6c:	00f50533          	add	a0,a0,a5
    1f70:	488030ef          	jal	53f8 <UARTBuf_consume_new_line>
    1f74:	01c12083          	lw	ra,28(sp)
    1f78:	01812403          	lw	s0,24(sp)
    1f7c:	01412483          	lw	s1,20(sp)
    1f80:	01012903          	lw	s2,16(sp)
    1f84:	00812a03          	lw	s4,8(sp)
    1f88:	02010113          	addi	sp,sp,32
    1f8c:	00008067          	ret

00001f90 <Yacht>:
    1f90:	f7010113          	addi	sp,sp,-144
    1f94:	08112623          	sw	ra,140(sp)
    1f98:	08812423          	sw	s0,136(sp)
    1f9c:	08912223          	sw	s1,132(sp)
    1fa0:	09212023          	sw	s2,128(sp)
    1fa4:	07312e23          	sw	s3,124(sp)
    1fa8:	07412c23          	sw	s4,120(sp)
    1fac:	07512a23          	sw	s5,116(sp)
    1fb0:	07612823          	sw	s6,112(sp)
    1fb4:	07712623          	sw	s7,108(sp)
    1fb8:	07812423          	sw	s8,104(sp)
    1fbc:	07912223          	sw	s9,100(sp)
    1fc0:	07a12023          	sw	s10,96(sp)
    1fc4:	05b12e23          	sw	s11,92(sp)
    1fc8:	4a5020ef          	jal	4c6c <enable_UART_interrupt>
    1fcc:	000227b7          	lui	a5,0x22
    1fd0:	6087a783          	lw	a5,1544(a5) # 22608 <sysctrl>
    1fd4:	0107a503          	lw	a0,16(a5)
    1fd8:	0147a583          	lw	a1,20(a5)
    1fdc:	7c5050ef          	jal	7fa0 <srand>
    1fe0:	00000c93          	li	s9,0
    1fe4:	00000c13          	li	s8,0
    1fe8:	00100b93          	li	s7,1
    1fec:	00021db7          	lui	s11,0x21
    1ff0:	00021d37          	lui	s10,0x21
    1ff4:	03c10b13          	addi	s6,sp,60
    1ff8:	00021ab7          	lui	s5,0x21
    1ffc:	000b8913          	mv	s2,s7
    2000:	a44d8593          	addi	a1,s11,-1468 # 20a44 <__clz_tab+0x71c>
    2004:	00000513          	li	a0,0
    2008:	d71ff0ef          	jal	1d78 <uart_puts_id>
    200c:	000b8593          	mv	a1,s7
    2010:	00000513          	li	a0,0
    2014:	db5ff0ef          	jal	1dc8 <uart_putint_id>
    2018:	a50d0593          	addi	a1,s10,-1456 # 20a50 <__clz_tab+0x728>
    201c:	00000513          	li	a0,0
    2020:	d59ff0ef          	jal	1d78 <uart_puts_id>
    2024:	000b0513          	mv	a0,s6
    2028:	a1dff0ef          	jal	1a44 <roll_dice>
    202c:	000217b7          	lui	a5,0x21
    2030:	a5878593          	addi	a1,a5,-1448 # 20a58 <__clz_tab+0x730>
    2034:	00000513          	li	a0,0
    2038:	d41ff0ef          	jal	1d78 <uart_puts_id>
    203c:	000b0413          	mv	s0,s6
    2040:	05010493          	addi	s1,sp,80
    2044:	00042583          	lw	a1,0(s0)
    2048:	00000513          	li	a0,0
    204c:	d7dff0ef          	jal	1dc8 <uart_putint_id>
    2050:	a64a8593          	addi	a1,s5,-1436 # 20a64 <__clz_tab+0x73c>
    2054:	00000513          	li	a0,0
    2058:	d21ff0ef          	jal	1d78 <uart_puts_id>
    205c:	00440413          	addi	s0,s0,4
    2060:	fe9412e3          	bne	s0,s1,2044 <Yacht+0xb4>
    2064:	000217b7          	lui	a5,0x21
    2068:	a6878593          	addi	a1,a5,-1432 # 20a68 <__clz_tab+0x740>
    206c:	00000513          	li	a0,0
    2070:	d09ff0ef          	jal	1d78 <uart_puts_id>
    2074:	000229b7          	lui	s3,0x22
    2078:	00098993          	mv	s3,s3
    207c:	02898413          	addi	s0,s3,40 # 22028 <roles>
    2080:	05c98993          	addi	s3,s3,92
    2084:	00040493          	mv	s1,s0
    2088:	00021a37          	lui	s4,0x21
    208c:	0004a583          	lw	a1,0(s1)
    2090:	00000513          	li	a0,0
    2094:	ce5ff0ef          	jal	1d78 <uart_puts_id>
    2098:	a7ca0593          	addi	a1,s4,-1412 # 20a7c <__clz_tab+0x754>
    209c:	00000513          	li	a0,0
    20a0:	cd9ff0ef          	jal	1d78 <uart_puts_id>
    20a4:	00448493          	addi	s1,s1,4
    20a8:	ff3492e3          	bne	s1,s3,208c <Yacht+0xfc>
    20ac:	000215b7          	lui	a1,0x21
    20b0:	a8058593          	addi	a1,a1,-1408 # 20a80 <__clz_tab+0x758>
    20b4:	00000513          	li	a0,0
    20b8:	cc1ff0ef          	jal	1d78 <uart_puts_id>
    20bc:	01810493          	addi	s1,sp,24
    20c0:	01000613          	li	a2,16
    20c4:	00048593          	mv	a1,s1
    20c8:	00000513          	li	a0,0
    20cc:	e15ff0ef          	jal	1ee0 <recv_choice>
    20d0:	00048593          	mv	a1,s1
    20d4:	000b0513          	mv	a0,s6
    20d8:	9c1ff0ef          	jal	1a98 <yacht_score>
    20dc:	00050493          	mv	s1,a0
    20e0:	00ac0c33          	add	s8,s8,a0
    20e4:	000215b7          	lui	a1,0x21
    20e8:	a9058593          	addi	a1,a1,-1392 # 20a90 <__clz_tab+0x768>
    20ec:	00000513          	li	a0,0
    20f0:	c89ff0ef          	jal	1d78 <uart_puts_id>
    20f4:	00048593          	mv	a1,s1
    20f8:	00000513          	li	a0,0
    20fc:	ccdff0ef          	jal	1dc8 <uart_putint_id>
    2100:	00000513          	li	a0,0
    2104:	dbdff0ef          	jal	1ec0 <uart_newline_id>
    2108:	a44d8593          	addi	a1,s11,-1468
    210c:	00090513          	mv	a0,s2
    2110:	c69ff0ef          	jal	1d78 <uart_puts_id>
    2114:	000b8593          	mv	a1,s7
    2118:	00090513          	mv	a0,s2
    211c:	cadff0ef          	jal	1dc8 <uart_putint_id>
    2120:	a50d0593          	addi	a1,s10,-1456
    2124:	00090513          	mv	a0,s2
    2128:	c51ff0ef          	jal	1d78 <uart_puts_id>
    212c:	02810493          	addi	s1,sp,40
    2130:	00048513          	mv	a0,s1
    2134:	911ff0ef          	jal	1a44 <roll_dice>
    2138:	000217b7          	lui	a5,0x21
    213c:	a5878593          	addi	a1,a5,-1448 # 20a58 <__clz_tab+0x730>
    2140:	00090513          	mv	a0,s2
    2144:	c35ff0ef          	jal	1d78 <uart_puts_id>
    2148:	0004a583          	lw	a1,0(s1)
    214c:	00090513          	mv	a0,s2
    2150:	c79ff0ef          	jal	1dc8 <uart_putint_id>
    2154:	a64a8593          	addi	a1,s5,-1436
    2158:	00090513          	mv	a0,s2
    215c:	c1dff0ef          	jal	1d78 <uart_puts_id>
    2160:	00448493          	addi	s1,s1,4
    2164:	fe9b12e3          	bne	s6,s1,2148 <Yacht+0x1b8>
    2168:	000217b7          	lui	a5,0x21
    216c:	a6878593          	addi	a1,a5,-1432 # 20a68 <__clz_tab+0x740>
    2170:	00090513          	mv	a0,s2
    2174:	c05ff0ef          	jal	1d78 <uart_puts_id>
    2178:	000214b7          	lui	s1,0x21
    217c:	00042583          	lw	a1,0(s0)
    2180:	00090513          	mv	a0,s2
    2184:	bf5ff0ef          	jal	1d78 <uart_puts_id>
    2188:	a7c48593          	addi	a1,s1,-1412 # 20a7c <__clz_tab+0x754>
    218c:	00090513          	mv	a0,s2
    2190:	be9ff0ef          	jal	1d78 <uart_puts_id>
    2194:	00440413          	addi	s0,s0,4
    2198:	ff3412e3          	bne	s0,s3,217c <Yacht+0x1ec>
    219c:	000215b7          	lui	a1,0x21
    21a0:	a8058593          	addi	a1,a1,-1408 # 20a80 <__clz_tab+0x758>
    21a4:	00090513          	mv	a0,s2
    21a8:	bd1ff0ef          	jal	1d78 <uart_puts_id>
    21ac:	00810413          	addi	s0,sp,8
    21b0:	01000613          	li	a2,16
    21b4:	00040593          	mv	a1,s0
    21b8:	00090513          	mv	a0,s2
    21bc:	d25ff0ef          	jal	1ee0 <recv_choice>
    21c0:	00040593          	mv	a1,s0
    21c4:	02810513          	addi	a0,sp,40
    21c8:	8d1ff0ef          	jal	1a98 <yacht_score>
    21cc:	00050413          	mv	s0,a0
    21d0:	00ac8cb3          	add	s9,s9,a0
    21d4:	000215b7          	lui	a1,0x21
    21d8:	a9058593          	addi	a1,a1,-1392 # 20a90 <__clz_tab+0x768>
    21dc:	00090513          	mv	a0,s2
    21e0:	b99ff0ef          	jal	1d78 <uart_puts_id>
    21e4:	00040593          	mv	a1,s0
    21e8:	00090513          	mv	a0,s2
    21ec:	bddff0ef          	jal	1dc8 <uart_putint_id>
    21f0:	00090513          	mv	a0,s2
    21f4:	ccdff0ef          	jal	1ec0 <uart_newline_id>
    21f8:	001b8b93          	addi	s7,s7,1
    21fc:	00600793          	li	a5,6
    2200:	e0fb90e3          	bne	s7,a5,2000 <Yacht+0x70>
    2204:	000215b7          	lui	a1,0x21
    2208:	a9858593          	addi	a1,a1,-1384 # 20a98 <__clz_tab+0x770>
    220c:	00000513          	li	a0,0
    2210:	b69ff0ef          	jal	1d78 <uart_puts_id>
    2214:	000c0593          	mv	a1,s8
    2218:	00000513          	li	a0,0
    221c:	badff0ef          	jal	1dc8 <uart_putint_id>
    2220:	000215b7          	lui	a1,0x21
    2224:	aac58593          	addi	a1,a1,-1364 # 20aac <__clz_tab+0x784>
    2228:	00000513          	li	a0,0
    222c:	b4dff0ef          	jal	1d78 <uart_puts_id>
    2230:	000c8593          	mv	a1,s9
    2234:	00000513          	li	a0,0
    2238:	b91ff0ef          	jal	1dc8 <uart_putint_id>
    223c:	000215b7          	lui	a1,0x21
    2240:	a7c58593          	addi	a1,a1,-1412 # 20a7c <__clz_tab+0x754>
    2244:	00000513          	li	a0,0
    2248:	b31ff0ef          	jal	1d78 <uart_puts_id>
    224c:	00100513          	li	a0,1
    2250:	018cc663          	blt	s9,s8,225c <Yacht+0x2cc>
    2254:	019c2c33          	slt	s8,s8,s9
    2258:	001c1513          	slli	a0,s8,0x1
    225c:	08c12083          	lw	ra,140(sp)
    2260:	08812403          	lw	s0,136(sp)
    2264:	08412483          	lw	s1,132(sp)
    2268:	08012903          	lw	s2,128(sp)
    226c:	07c12983          	lw	s3,124(sp)
    2270:	07812a03          	lw	s4,120(sp)
    2274:	07412a83          	lw	s5,116(sp)
    2278:	07012b03          	lw	s6,112(sp)
    227c:	06c12b83          	lw	s7,108(sp)
    2280:	06812c03          	lw	s8,104(sp)
    2284:	06412c83          	lw	s9,100(sp)
    2288:	06012d03          	lw	s10,96(sp)
    228c:	05c12d83          	lw	s11,92(sp)
    2290:	09010113          	addi	sp,sp,144
    2294:	00008067          	ret

00002298 <card_to_point>:
    2298:	fce50793          	addi	a5,a0,-50
    229c:	0ff7f693          	zext.b	a3,a5
    22a0:	02200713          	li	a4,34
    22a4:	00d76e63          	bltu	a4,a3,22c0 <card_to_point+0x28>
    22a8:	00269793          	slli	a5,a3,0x2
    22ac:	00020737          	lui	a4,0x20
    22b0:	00070713          	mv	a4,a4
    22b4:	00e787b3          	add	a5,a5,a4
    22b8:	0007a783          	lw	a5,0(a5)
    22bc:	00078067          	jr	a5
    22c0:	00000513          	li	a0,0
    22c4:	00008067          	ret
    22c8:	fd050513          	addi	a0,a0,-48
    22cc:	00008067          	ret
    22d0:	00a00513          	li	a0,10
    22d4:	00008067          	ret
    22d8:	00b00513          	li	a0,11
    22dc:	00008067          	ret
    22e0:	00c00513          	li	a0,12
    22e4:	00008067          	ret
    22e8:	00d00513          	li	a0,13
    22ec:	00008067          	ret
    22f0:	00100513          	li	a0,1
    22f4:	00008067          	ret

000022f8 <dual_uart_puts>:
    22f8:	ff010113          	addi	sp,sp,-16
    22fc:	00112623          	sw	ra,12(sp)
    2300:	00812423          	sw	s0,8(sp)
    2304:	00050413          	mv	s0,a0
    2308:	00000513          	li	a0,0
    230c:	76c020ef          	jal	4a78 <set_uart_ID>
    2310:	00044503          	lbu	a0,0(s0)
    2314:	02050063          	beqz	a0,2334 <dual_uart_puts+0x3c>
    2318:	00912223          	sw	s1,4(sp)
    231c:	00040493          	mv	s1,s0
    2320:	7c5020ef          	jal	52e4 <_UARTBuf_putch>
    2324:	00148493          	addi	s1,s1,1
    2328:	0004c503          	lbu	a0,0(s1)
    232c:	fe051ae3          	bnez	a0,2320 <dual_uart_puts+0x28>
    2330:	00412483          	lw	s1,4(sp)
    2334:	00100513          	li	a0,1
    2338:	740020ef          	jal	4a78 <set_uart_ID>
    233c:	00044503          	lbu	a0,0(s0)
    2340:	00050a63          	beqz	a0,2354 <dual_uart_puts+0x5c>
    2344:	7a1020ef          	jal	52e4 <_UARTBuf_putch>
    2348:	00140413          	addi	s0,s0,1
    234c:	00044503          	lbu	a0,0(s0)
    2350:	fe051ae3          	bnez	a0,2344 <dual_uart_puts+0x4c>
    2354:	00c12083          	lw	ra,12(sp)
    2358:	00812403          	lw	s0,8(sp)
    235c:	01010113          	addi	sp,sp,16
    2360:	00008067          	ret

00002364 <dual_uart_putch>:
    2364:	ff010113          	addi	sp,sp,-16
    2368:	00112623          	sw	ra,12(sp)
    236c:	00812423          	sw	s0,8(sp)
    2370:	00050413          	mv	s0,a0
    2374:	00000513          	li	a0,0
    2378:	700020ef          	jal	4a78 <set_uart_ID>
    237c:	00040513          	mv	a0,s0
    2380:	765020ef          	jal	52e4 <_UARTBuf_putch>
    2384:	00100513          	li	a0,1
    2388:	6f0020ef          	jal	4a78 <set_uart_ID>
    238c:	00040513          	mv	a0,s0
    2390:	755020ef          	jal	52e4 <_UARTBuf_putch>
    2394:	00c12083          	lw	ra,12(sp)
    2398:	00812403          	lw	s0,8(sp)
    239c:	01010113          	addi	sp,sp,16
    23a0:	00008067          	ret

000023a4 <uart_has_input>:
    23a4:	000227b7          	lui	a5,0x22
    23a8:	00451713          	slli	a4,a0,0x4
    23ac:	40a70733          	sub	a4,a4,a0
    23b0:	00271713          	slli	a4,a4,0x2
    23b4:	69878793          	addi	a5,a5,1688 # 22698 <UART_BUF_RX>
    23b8:	00e787b3          	add	a5,a5,a4
    23bc:	0007c503          	lbu	a0,0(a5)
    23c0:	00008067          	ret

000023c4 <uart_receive>:
    23c4:	ff010113          	addi	sp,sp,-16
    23c8:	00112623          	sw	ra,12(sp)
    23cc:	6ac020ef          	jal	4a78 <set_uart_ID>
    23d0:	7b5020ef          	jal	5384 <_UARTBuf_getch>
    23d4:	00c12083          	lw	ra,12(sp)
    23d8:	01010113          	addi	sp,sp,16
    23dc:	00008067          	ret

000023e0 <uart_clear_buf>:
    23e0:	ff010113          	addi	sp,sp,-16
    23e4:	00112623          	sw	ra,12(sp)
    23e8:	00912223          	sw	s1,4(sp)
    23ec:	00050493          	mv	s1,a0
    23f0:	688020ef          	jal	4a78 <set_uart_ID>
    23f4:	000227b7          	lui	a5,0x22
    23f8:	00449713          	slli	a4,s1,0x4
    23fc:	40970733          	sub	a4,a4,s1
    2400:	00271713          	slli	a4,a4,0x2
    2404:	69878793          	addi	a5,a5,1688 # 22698 <UART_BUF_RX>
    2408:	00e787b3          	add	a5,a5,a4
    240c:	0007c783          	lbu	a5,0(a5)
    2410:	02078263          	beqz	a5,2434 <uart_clear_buf+0x54>
    2414:	00812423          	sw	s0,8(sp)
    2418:	00022437          	lui	s0,0x22
    241c:	69840413          	addi	s0,s0,1688 # 22698 <UART_BUF_RX>
    2420:	00e40433          	add	s0,s0,a4
    2424:	761020ef          	jal	5384 <_UARTBuf_getch>
    2428:	00044783          	lbu	a5,0(s0)
    242c:	fe079ce3          	bnez	a5,2424 <uart_clear_buf+0x44>
    2430:	00812403          	lw	s0,8(sp)
    2434:	00c12083          	lw	ra,12(sp)
    2438:	00412483          	lw	s1,4(sp)
    243c:	01010113          	addi	sp,sp,16
    2440:	00008067          	ret

00002444 <Speed>:
    2444:	fc010113          	addi	sp,sp,-64
    2448:	02112e23          	sw	ra,60(sp)
    244c:	02812c23          	sw	s0,56(sp)
    2450:	02912a23          	sw	s1,52(sp)
    2454:	03212823          	sw	s2,48(sp)
    2458:	03312623          	sw	s3,44(sp)
    245c:	03412423          	sw	s4,40(sp)
    2460:	03512223          	sw	s5,36(sp)
    2464:	03612023          	sw	s6,32(sp)
    2468:	01712e23          	sw	s7,28(sp)
    246c:	01812c23          	sw	s8,24(sp)
    2470:	01912a23          	sw	s9,20(sp)
    2474:	01a12823          	sw	s10,16(sp)
    2478:	7f4020ef          	jal	4c6c <enable_UART_interrupt>
    247c:	000227b7          	lui	a5,0x22
    2480:	6087a783          	lw	a5,1544(a5) # 22608 <sysctrl>
    2484:	0107a503          	lw	a0,16(a5)
    2488:	0147a583          	lw	a1,20(a5)
    248c:	315050ef          	jal	7fa0 <srand>
    2490:	00012423          	sw	zero,8(sp)
    2494:	00012623          	sw	zero,12(sp)
    2498:	00021537          	lui	a0,0x21
    249c:	ac050513          	addi	a0,a0,-1344 # 20ac0 <__clz_tab+0x798>
    24a0:	e59ff0ef          	jal	22f8 <dual_uart_puts>
    24a4:	00021537          	lui	a0,0x21
    24a8:	afc50513          	addi	a0,a0,-1284 # 20afc <__clz_tab+0x7d4>
    24ac:	e4dff0ef          	jal	22f8 <dual_uart_puts>
    24b0:	00100c13          	li	s8,1
    24b4:	00020cb7          	lui	s9,0x20
    24b8:	00d00a13          	li	s4,13
    24bc:	00a00993          	li	s3,10
    24c0:	00200913          	li	s2,2
    24c4:	0ec0006f          	j	25b0 <Speed+0x16c>
    24c8:	00040513          	mv	a0,s0
    24cc:	ef9ff0ef          	jal	23c4 <uart_receive>
    24d0:	00050d13          	mv	s10,a0
    24d4:	19350463          	beq	a0,s3,265c <Speed+0x218>
    24d8:	19450263          	beq	a0,s4,265c <Speed+0x218>
    24dc:	b88b8513          	addi	a0,s7,-1144
    24e0:	e19ff0ef          	jal	22f8 <dual_uart_puts>
    24e4:	00803533          	snez	a0,s0
    24e8:	03150513          	addi	a0,a0,49
    24ec:	e79ff0ef          	jal	2364 <dual_uart_putch>
    24f0:	b90b0513          	addi	a0,s6,-1136
    24f4:	e05ff0ef          	jal	22f8 <dual_uart_puts>
    24f8:	000d0513          	mv	a0,s10
    24fc:	e69ff0ef          	jal	2364 <dual_uart_putch>
    2500:	00021537          	lui	a0,0x21
    2504:	b9850513          	addi	a0,a0,-1128 # 20b98 <__clz_tab+0x870>
    2508:	df1ff0ef          	jal	22f8 <dual_uart_puts>
    250c:	01aa8a63          	beq	s5,s10,2520 <Speed+0xdc>
    2510:	00021537          	lui	a0,0x21
    2514:	bb850513          	addi	a0,a0,-1096 # 20bb8 <__clz_tab+0x890>
    2518:	de1ff0ef          	jal	22f8 <dual_uart_puts>
    251c:	1400006f          	j	265c <Speed+0x218>
    2520:	000d0513          	mv	a0,s10
    2524:	d75ff0ef          	jal	2298 <card_to_point>
    2528:	00050d13          	mv	s10,a0
    252c:	00241793          	slli	a5,s0,0x2
    2530:	00810713          	addi	a4,sp,8
    2534:	00e787b3          	add	a5,a5,a4
    2538:	0007a703          	lw	a4,0(a5)
    253c:	00a70733          	add	a4,a4,a0
    2540:	00e7a023          	sw	a4,0(a5)
    2544:	00021537          	lui	a0,0x21
    2548:	b9c50513          	addi	a0,a0,-1124 # 20b9c <__clz_tab+0x874>
    254c:	dadff0ef          	jal	22f8 <dual_uart_puts>
    2550:	00098593          	mv	a1,s3
    2554:	000d0513          	mv	a0,s10
    2558:	5dc050ef          	jal	7b34 <__divsi3>
    255c:	03050513          	addi	a0,a0,48
    2560:	0ff57513          	zext.b	a0,a0
    2564:	e01ff0ef          	jal	2364 <dual_uart_putch>
    2568:	00098593          	mv	a1,s3
    256c:	000d0513          	mv	a0,s10
    2570:	648050ef          	jal	7bb8 <__modsi3>
    2574:	03050513          	addi	a0,a0,48
    2578:	0ff57513          	zext.b	a0,a0
    257c:	de9ff0ef          	jal	2364 <dual_uart_putch>
    2580:	00021537          	lui	a0,0x21
    2584:	ba850513          	addi	a0,a0,-1112 # 20ba8 <__clz_tab+0x880>
    2588:	d71ff0ef          	jal	22f8 <dual_uart_puts>
    258c:	fff00793          	li	a5,-1
    2590:	0af40663          	beq	s0,a5,263c <Speed+0x1f8>
    2594:	00000513          	li	a0,0
    2598:	e49ff0ef          	jal	23e0 <uart_clear_buf>
    259c:	00100513          	li	a0,1
    25a0:	e41ff0ef          	jal	23e0 <uart_clear_buf>
    25a4:	001c0c13          	addi	s8,s8,1
    25a8:	00b00793          	li	a5,11
    25ac:	0afc0e63          	beq	s8,a5,2668 <Speed+0x224>
    25b0:	205050ef          	jal	7fb4 <rand>
    25b4:	0e0c8413          	addi	s0,s9,224 # 200e0 <ranks>
    25b8:	000a0593          	mv	a1,s4
    25bc:	5fc050ef          	jal	7bb8 <__modsi3>
    25c0:	00a40433          	add	s0,s0,a0
    25c4:	00044a83          	lbu	s5,0(s0)
    25c8:	00021537          	lui	a0,0x21
    25cc:	b5050513          	addi	a0,a0,-1200 # 20b50 <__clz_tab+0x828>
    25d0:	d29ff0ef          	jal	22f8 <dual_uart_puts>
    25d4:	00098593          	mv	a1,s3
    25d8:	000c0513          	mv	a0,s8
    25dc:	558050ef          	jal	7b34 <__divsi3>
    25e0:	03050513          	addi	a0,a0,48
    25e4:	0ff57513          	zext.b	a0,a0
    25e8:	d7dff0ef          	jal	2364 <dual_uart_putch>
    25ec:	00098593          	mv	a1,s3
    25f0:	000c0513          	mv	a0,s8
    25f4:	5c4050ef          	jal	7bb8 <__modsi3>
    25f8:	03050513          	addi	a0,a0,48
    25fc:	0ff57513          	zext.b	a0,a0
    2600:	d65ff0ef          	jal	2364 <dual_uart_putch>
    2604:	00021537          	lui	a0,0x21
    2608:	a5050513          	addi	a0,a0,-1456 # 20a50 <__clz_tab+0x728>
    260c:	cedff0ef          	jal	22f8 <dual_uart_puts>
    2610:	00021537          	lui	a0,0x21
    2614:	b6450513          	addi	a0,a0,-1180 # 20b64 <__clz_tab+0x83c>
    2618:	ce1ff0ef          	jal	22f8 <dual_uart_puts>
    261c:	000a8513          	mv	a0,s5
    2620:	d45ff0ef          	jal	2364 <dual_uart_putch>
    2624:	00021537          	lui	a0,0x21
    2628:	b7850513          	addi	a0,a0,-1160 # 20b78 <__clz_tab+0x850>
    262c:	ccdff0ef          	jal	22f8 <dual_uart_puts>
    2630:	000224b7          	lui	s1,0x22
    2634:	00021bb7          	lui	s7,0x21
    2638:	00021b37          	lui	s6,0x21
    263c:	00000413          	li	s0,0
    2640:	69848713          	addi	a4,s1,1688 # 22698 <UART_BUF_RX>
    2644:	00441793          	slli	a5,s0,0x4
    2648:	408787b3          	sub	a5,a5,s0
    264c:	00279793          	slli	a5,a5,0x2
    2650:	00f707b3          	add	a5,a4,a5
    2654:	0007c783          	lbu	a5,0(a5)
    2658:	e60798e3          	bnez	a5,24c8 <Speed+0x84>
    265c:	00140413          	addi	s0,s0,1
    2660:	fd240ee3          	beq	s0,s2,263c <Speed+0x1f8>
    2664:	fddff06f          	j	2640 <Speed+0x1fc>
    2668:	00021537          	lui	a0,0x21
    266c:	bc450513          	addi	a0,a0,-1084 # 20bc4 <__clz_tab+0x89c>
    2670:	c89ff0ef          	jal	22f8 <dual_uart_puts>
    2674:	00021537          	lui	a0,0x21
    2678:	bdc50513          	addi	a0,a0,-1060 # 20bdc <__clz_tab+0x8b4>
    267c:	c7dff0ef          	jal	22f8 <dual_uart_puts>
    2680:	00812403          	lw	s0,8(sp)
    2684:	00a00593          	li	a1,10
    2688:	00040513          	mv	a0,s0
    268c:	4a8050ef          	jal	7b34 <__divsi3>
    2690:	03050513          	addi	a0,a0,48
    2694:	0ff57513          	zext.b	a0,a0
    2698:	ccdff0ef          	jal	2364 <dual_uart_putch>
    269c:	00a00593          	li	a1,10
    26a0:	00040513          	mv	a0,s0
    26a4:	514050ef          	jal	7bb8 <__modsi3>
    26a8:	03050513          	addi	a0,a0,48
    26ac:	0ff57513          	zext.b	a0,a0
    26b0:	cb5ff0ef          	jal	2364 <dual_uart_putch>
    26b4:	00021937          	lui	s2,0x21
    26b8:	a7c90513          	addi	a0,s2,-1412 # 20a7c <__clz_tab+0x754>
    26bc:	c3dff0ef          	jal	22f8 <dual_uart_puts>
    26c0:	00021537          	lui	a0,0x21
    26c4:	bf050513          	addi	a0,a0,-1040 # 20bf0 <__clz_tab+0x8c8>
    26c8:	c31ff0ef          	jal	22f8 <dual_uart_puts>
    26cc:	00c12483          	lw	s1,12(sp)
    26d0:	00a00593          	li	a1,10
    26d4:	00048513          	mv	a0,s1
    26d8:	45c050ef          	jal	7b34 <__divsi3>
    26dc:	03050513          	addi	a0,a0,48
    26e0:	0ff57513          	zext.b	a0,a0
    26e4:	c81ff0ef          	jal	2364 <dual_uart_putch>
    26e8:	00a00593          	li	a1,10
    26ec:	00048513          	mv	a0,s1
    26f0:	4c8050ef          	jal	7bb8 <__modsi3>
    26f4:	03050513          	addi	a0,a0,48
    26f8:	0ff57513          	zext.b	a0,a0
    26fc:	c69ff0ef          	jal	2364 <dual_uart_putch>
    2700:	a7c90513          	addi	a0,s2,-1412
    2704:	bf5ff0ef          	jal	22f8 <dual_uart_puts>
    2708:	00021537          	lui	a0,0x21
    270c:	c0450513          	addi	a0,a0,-1020 # 20c04 <__clz_tab+0x8dc>
    2710:	be9ff0ef          	jal	22f8 <dual_uart_puts>
    2714:	0684c663          	blt	s1,s0,2780 <Speed+0x33c>
    2718:	08945a63          	bge	s0,s1,27ac <Speed+0x368>
    271c:	00021537          	lui	a0,0x21
    2720:	c4c50513          	addi	a0,a0,-948 # 20c4c <__clz_tab+0x924>
    2724:	bd5ff0ef          	jal	22f8 <dual_uart_puts>
    2728:	00021537          	lui	a0,0x21
    272c:	c2050513          	addi	a0,a0,-992 # 20c20 <__clz_tab+0x8f8>
    2730:	bc9ff0ef          	jal	22f8 <dual_uart_puts>
    2734:	00021537          	lui	a0,0x21
    2738:	c3050513          	addi	a0,a0,-976 # 20c30 <__clz_tab+0x908>
    273c:	bbdff0ef          	jal	22f8 <dual_uart_puts>
    2740:	00942533          	slt	a0,s0,s1
    2744:	00151513          	slli	a0,a0,0x1
    2748:	03c12083          	lw	ra,60(sp)
    274c:	03812403          	lw	s0,56(sp)
    2750:	03412483          	lw	s1,52(sp)
    2754:	03012903          	lw	s2,48(sp)
    2758:	02c12983          	lw	s3,44(sp)
    275c:	02812a03          	lw	s4,40(sp)
    2760:	02412a83          	lw	s5,36(sp)
    2764:	02012b03          	lw	s6,32(sp)
    2768:	01c12b83          	lw	s7,28(sp)
    276c:	01812c03          	lw	s8,24(sp)
    2770:	01412c83          	lw	s9,20(sp)
    2774:	01012d03          	lw	s10,16(sp)
    2778:	04010113          	addi	sp,sp,64
    277c:	00008067          	ret
    2780:	00021537          	lui	a0,0x21
    2784:	c1850513          	addi	a0,a0,-1000 # 20c18 <__clz_tab+0x8f0>
    2788:	b71ff0ef          	jal	22f8 <dual_uart_puts>
    278c:	00021537          	lui	a0,0x21
    2790:	c2050513          	addi	a0,a0,-992 # 20c20 <__clz_tab+0x8f8>
    2794:	b65ff0ef          	jal	22f8 <dual_uart_puts>
    2798:	00021537          	lui	a0,0x21
    279c:	c3050513          	addi	a0,a0,-976 # 20c30 <__clz_tab+0x908>
    27a0:	b59ff0ef          	jal	22f8 <dual_uart_puts>
    27a4:	00100513          	li	a0,1
    27a8:	fa1ff06f          	j	2748 <Speed+0x304>
    27ac:	00021537          	lui	a0,0x21
    27b0:	c5450513          	addi	a0,a0,-940 # 20c54 <__clz_tab+0x92c>
    27b4:	b45ff0ef          	jal	22f8 <dual_uart_puts>
    27b8:	f71ff06f          	j	2728 <Speed+0x2e4>

000027bc <Nine_Mens_Morris>:
    27bc:	f3010113          	addi	sp,sp,-208
    27c0:	0c112623          	sw	ra,204(sp)
    27c4:	0c812423          	sw	s0,200(sp)
    27c8:	0c912223          	sw	s1,196(sp)
    27cc:	0d212023          	sw	s2,192(sp)
    27d0:	0b312e23          	sw	s3,188(sp)
    27d4:	0b412c23          	sw	s4,184(sp)
    27d8:	0b512a23          	sw	s5,180(sp)
    27dc:	0b612823          	sw	s6,176(sp)
    27e0:	0b712623          	sw	s7,172(sp)
    27e4:	0b812423          	sw	s8,168(sp)
    27e8:	0b912223          	sw	s9,164(sp)
    27ec:	0ba12023          	sw	s10,160(sp)
    27f0:	09b12e23          	sw	s11,156(sp)
    27f4:	000206b7          	lui	a3,0x20
    27f8:	0e068693          	addi	a3,a3,224 # 200e0 <ranks>
    27fc:	01068793          	addi	a5,a3,16
    2800:	02810713          	addi	a4,sp,40
    2804:	04068693          	addi	a3,a3,64
    2808:	0007a803          	lw	a6,0(a5)
    280c:	0047a503          	lw	a0,4(a5)
    2810:	0087a583          	lw	a1,8(a5)
    2814:	00c7a603          	lw	a2,12(a5)
    2818:	01072023          	sw	a6,0(a4) # 20000 <DATA_START>
    281c:	00a72223          	sw	a0,4(a4)
    2820:	00b72423          	sw	a1,8(a4)
    2824:	00c72623          	sw	a2,12(a4)
    2828:	01078793          	addi	a5,a5,16
    282c:	01070713          	addi	a4,a4,16
    2830:	fcd79ce3          	bne	a5,a3,2808 <Nine_Mens_Morris+0x4c>
    2834:	0007c783          	lbu	a5,0(a5)
    2838:	00f70023          	sb	a5,0(a4)
    283c:	00000513          	li	a0,0
    2840:	368060ef          	jal	8ba8 <time>
    2844:	75c050ef          	jal	7fa0 <srand>
    2848:	000227b7          	lui	a5,0x22
    284c:	6047a783          	lw	a5,1540(a5) # 22604 <gpio>
    2850:	0007a023          	sw	zero,0(a5)
    2854:	00000793          	li	a5,0
    2858:	00700c93          	li	s9,7
    285c:	4a90006f          	j	3504 <Nine_Mens_Morris+0xd48>
    2860:	030ac703          	lbu	a4,48(s5)
    2864:	02dac683          	lbu	a3,45(s5)
    2868:	02aac603          	lbu	a2,42(s5)
    286c:	00098593          	mv	a1,s3
    2870:	00021537          	lui	a0,0x21
    2874:	c6450513          	addi	a0,a0,-924 # 20c64 <__clz_tab+0x93c>
    2878:	5a9010ef          	jal	4620 <printf>
    287c:	0d2a6663          	bltu	s4,s2,2948 <Nine_Mens_Morris+0x18c>
    2880:	00291913          	slli	s2,s2,0x2
    2884:	08cb8793          	addi	a5,s7,140 # 2108c <__clz_tab+0xd64>
    2888:	00f90933          	add	s2,s2,a5
    288c:	00092783          	lw	a5,0(s2)
    2890:	00078067          	jr	a5
    2894:	02fac703          	lbu	a4,47(s5)
    2898:	02dac683          	lbu	a3,45(s5)
    289c:	02bac603          	lbu	a2,43(s5)
    28a0:	00098593          	mv	a1,s3
    28a4:	00021537          	lui	a0,0x21
    28a8:	c8850513          	addi	a0,a0,-888 # 20c88 <__clz_tab+0x960>
    28ac:	575010ef          	jal	4620 <printf>
    28b0:	fcdff06f          	j	287c <Nine_Mens_Morris+0xc0>
    28b4:	02eac703          	lbu	a4,46(s5)
    28b8:	02dac683          	lbu	a3,45(s5)
    28bc:	02cac603          	lbu	a2,44(s5)
    28c0:	00098593          	mv	a1,s3
    28c4:	00021537          	lui	a0,0x21
    28c8:	cac50513          	addi	a0,a0,-852 # 20cac <__clz_tab+0x984>
    28cc:	555010ef          	jal	4620 <printf>
    28d0:	fadff06f          	j	287c <Nine_Mens_Morris+0xc0>
    28d4:	04314883          	lbu	a7,67(sp)
    28d8:	04214803          	lbu	a6,66(sp)
    28dc:	04114783          	lbu	a5,65(sp)
    28e0:	03f14703          	lbu	a4,63(sp)
    28e4:	03e14683          	lbu	a3,62(sp)
    28e8:	03d14603          	lbu	a2,61(sp)
    28ec:	00048593          	mv	a1,s1
    28f0:	00021537          	lui	a0,0x21
    28f4:	cd050513          	addi	a0,a0,-816 # 20cd0 <__clz_tab+0x9a8>
    28f8:	529010ef          	jal	4620 <printf>
    28fc:	000217b7          	lui	a5,0x21
    2900:	d3878513          	addi	a0,a5,-712 # 20d38 <__clz_tab+0xa10>
    2904:	4bd010ef          	jal	45c0 <puts>
    2908:	00c0006f          	j	2914 <Nine_Mens_Morris+0x158>
    290c:	cf8c0513          	addi	a0,s8,-776
    2910:	4b1010ef          	jal	45c0 <puts>
    2914:	fff98993          	addi	s3,s3,-1
    2918:	ff9a8a93          	addi	s5,s5,-7
    291c:	fff98913          	addi	s2,s3,-1
    2920:	f52a6ee3          	bltu	s4,s2,287c <Nine_Mens_Morris+0xc0>
    2924:	00291793          	slli	a5,s2,0x2
    2928:	00020737          	lui	a4,0x20
    292c:	0a870713          	addi	a4,a4,168 # 200a8 <DATA_START+0xa8>
    2930:	00e787b3          	add	a5,a5,a4
    2934:	0007a783          	lw	a5,0(a5)
    2938:	00078067          	jr	a5
    293c:	d18d8513          	addi	a0,s11,-744
    2940:	481010ef          	jal	45c0 <puts>
    2944:	fd1ff06f          	j	2914 <Nine_Mens_Morris+0x158>
    2948:	fff98993          	addi	s3,s3,-1
    294c:	08099063          	bnez	s3,29cc <Nine_Mens_Morris+0x210>
    2950:	06100913          	li	s2,97
    2954:	00021ab7          	lui	s5,0x21
    2958:	06800993          	li	s3,104
    295c:	00090593          	mv	a1,s2
    2960:	d58a8513          	addi	a0,s5,-680 # 20d58 <__clz_tab+0xa30>
    2964:	4bd010ef          	jal	4620 <printf>
    2968:	00190913          	addi	s2,s2,1
    296c:	ff3918e3          	bne	s2,s3,295c <Nine_Mens_Morris+0x1a0>
    2970:	00a00513          	li	a0,10
    2974:	479010ef          	jal	45ec <putchar>
    2978:	01012903          	lw	s2,16(sp)
    297c:	00090693          	mv	a3,s2
    2980:	00040613          	mv	a2,s0
    2984:	000d0593          	mv	a1,s10
    2988:	00021537          	lui	a0,0x21
    298c:	d6050513          	addi	a0,a0,-672 # 20d60 <__clz_tab+0xa38>
    2990:	491010ef          	jal	4620 <printf>
    2994:	001b0b13          	addi	s6,s6,1 # 21001 <__clz_tab+0xcd9>
    2998:	00200793          	li	a5,2
    299c:	02fb0c63          	beq	s6,a5,29d4 <Nine_Mens_Morris+0x218>
    29a0:	000b0513          	mv	a0,s6
    29a4:	0d4020ef          	jal	4a78 <set_uart_ID>
    29a8:	02810793          	addi	a5,sp,40
    29ac:	00f12a23          	sw	a5,20(sp)
    29b0:	00078a93          	mv	s5,a5
    29b4:	00700993          	li	s3,7
    29b8:	00020bb7          	lui	s7,0x20
    29bc:	00021db7          	lui	s11,0x21
    29c0:	00021c37          	lui	s8,0x21
    29c4:	00400493          	li	s1,4
    29c8:	f55ff06f          	j	291c <Nine_Mens_Morris+0x160>
    29cc:	ff9a8a93          	addi	s5,s5,-7
    29d0:	f4dff06f          	j	291c <Nine_Mens_Morris+0x160>
    29d4:	00012483          	lw	s1,0(sp)
    29d8:	00412403          	lw	s0,4(sp)
    29dc:	00040513          	mv	a0,s0
    29e0:	098020ef          	jal	4a78 <set_uart_ID>
    29e4:	00021537          	lui	a0,0x21
    29e8:	d9050513          	addi	a0,a0,-624 # 20d90 <__clz_tab+0xa68>
    29ec:	3d5010ef          	jal	45c0 <puts>
    29f0:	01200793          	li	a5,18
    29f4:	0727d463          	bge	a5,s2,2a5c <Nine_Mens_Morris+0x2a0>
    29f8:	01412783          	lw	a5,20(sp)
    29fc:	00778613          	addi	a2,a5,7
    2a00:	03878593          	addi	a1,a5,56
    2a04:	00000693          	li	a3,0
    2a08:	ff960713          	addi	a4,a2,-7
    2a0c:	00074783          	lbu	a5,0(a4)
    2a10:	41a787b3          	sub	a5,a5,s10
    2a14:	0017b793          	seqz	a5,a5
    2a18:	00f686b3          	add	a3,a3,a5
    2a1c:	00170713          	addi	a4,a4,1
    2a20:	fec716e3          	bne	a4,a2,2a0c <Nine_Mens_Morris+0x250>
    2a24:	00760613          	addi	a2,a2,7
    2a28:	feb610e3          	bne	a2,a1,2a08 <Nine_Mens_Morris+0x24c>
    2a2c:	00200793          	li	a5,2
    2a30:	4ad7d2e3          	bge	a5,a3,36d4 <Nine_Mens_Morris+0xf18>
    2a34:	00100793          	li	a5,1
    2a38:	00f12623          	sw	a5,12(sp)
    2a3c:	00000913          	li	s2,0
    2a40:	00500b93          	li	s7,5
    2a44:	00078d93          	mv	s11,a5
    2a48:	00300c13          	li	s8,3
    2a4c:	00600a93          	li	s5,6
    2a50:	05800a13          	li	s4,88
    2a54:	00800b13          	li	s6,8
    2a58:	2800006f          	j	2cd8 <Nine_Mens_Morris+0x51c>
    2a5c:	fcfd0513          	addi	a0,s10,-49
    2a60:	018020ef          	jal	4a78 <set_uart_ID>
    2a64:	00021b37          	lui	s6,0x21
    2a68:	000229b7          	lui	s3,0x22
    2a6c:	00022937          	lui	s2,0x22
    2a70:	00a00a93          	li	s5,10
    2a74:	00600a13          	li	s4,6
    2a78:	05800b93          	li	s7,88
    2a7c:	01c0006f          	j	2a98 <Nine_Mens_Morris+0x2dc>
    2a80:	000a8513          	mv	a0,s5
    2a84:	369010ef          	jal	45ec <putchar>
    2a88:	04c0006f          	j	2ad4 <Nine_Mens_Morris+0x318>
    2a8c:	60c9a783          	lw	a5,1548(s3) # 2260c <_impure_ptr>
    2a90:	0087a503          	lw	a0,8(a5)
    2a94:	2e5050ef          	jal	8578 <fflush>
    2a98:	dc0b0513          	addi	a0,s6,-576 # 20dc0 <__clz_tab+0xa98>
    2a9c:	385010ef          	jal	4620 <printf>
    2aa0:	60c9a783          	lw	a5,1548(s3)
    2aa4:	0087a503          	lw	a0,8(a5)
    2aa8:	2d1050ef          	jal	8578 <fflush>
    2aac:	5f492783          	lw	a5,1524(s2) # 225f4 <io_getch>
    2ab0:	000780e7          	jalr	a5
    2ab4:	00050493          	mv	s1,a0
    2ab8:	5f492783          	lw	a5,1524(s2)
    2abc:	000780e7          	jalr	a5
    2ac0:	00050413          	mv	s0,a0
    2ac4:	fcf50d93          	addi	s11,a0,-49
    2ac8:	5f492783          	lw	a5,1524(s2)
    2acc:	000780e7          	jalr	a5
    2ad0:	fb5518e3          	bne	a0,s5,2a80 <Nine_Mens_Morris+0x2c4>
    2ad4:	fbba6ce3          	bltu	s4,s11,2a8c <Nine_Mens_Morris+0x2d0>
    2ad8:	f9f48793          	addi	a5,s1,-97
    2adc:	0ff7f793          	zext.b	a5,a5
    2ae0:	fafa66e3          	bltu	s4,a5,2a8c <Nine_Mens_Morris+0x2d0>
    2ae4:	f9f48713          	addi	a4,s1,-97
    2ae8:	003d9793          	slli	a5,s11,0x3
    2aec:	41b787b3          	sub	a5,a5,s11
    2af0:	07078793          	addi	a5,a5,112
    2af4:	02010693          	addi	a3,sp,32
    2af8:	00d787b3          	add	a5,a5,a3
    2afc:	00e787b3          	add	a5,a5,a4
    2b00:	f987c783          	lbu	a5,-104(a5)
    2b04:	f97794e3          	bne	a5,s7,2a8c <Nine_Mens_Morris+0x2d0>
    2b08:	00e12623          	sw	a4,12(sp)
    2b0c:	003d9793          	slli	a5,s11,0x3
    2b10:	41b787b3          	sub	a5,a5,s11
    2b14:	07078793          	addi	a5,a5,112
    2b18:	00d787b3          	add	a5,a5,a3
    2b1c:	00e787b3          	add	a5,a5,a4
    2b20:	f9a78c23          	sb	s10,-104(a5)
    2b24:	00000513          	li	a0,0
    2b28:	751010ef          	jal	4a78 <set_uart_ID>
    2b2c:	fd040413          	addi	s0,s0,-48
    2b30:	000d0693          	mv	a3,s10
    2b34:	00040613          	mv	a2,s0
    2b38:	00048593          	mv	a1,s1
    2b3c:	00021937          	lui	s2,0x21
    2b40:	df490513          	addi	a0,s2,-524 # 20df4 <__clz_tab+0xacc>
    2b44:	2dd010ef          	jal	4620 <printf>
    2b48:	00100513          	li	a0,1
    2b4c:	72d010ef          	jal	4a78 <set_uart_ID>
    2b50:	000d0693          	mv	a3,s10
    2b54:	00040613          	mv	a2,s0
    2b58:	00048593          	mv	a1,s1
    2b5c:	df490513          	addi	a0,s2,-524
    2b60:	2c1010ef          	jal	4620 <printf>
    2b64:	54c0006f          	j	30b0 <Nine_Mens_Morris+0x8f4>
    2b68:	ffa90413          	addi	s0,s2,-6
    2b6c:	000d8713          	mv	a4,s11
    2b70:	00000993          	li	s3,0
    2b74:	000c0513          	mv	a0,s8
    2b78:	19c0006f          	j	2d14 <Nine_Mens_Morris+0x558>
    2b7c:	008706b3          	add	a3,a4,s0
    2b80:	00369793          	slli	a5,a3,0x3
    2b84:	40d787b3          	sub	a5,a5,a3
    2b88:	07078793          	addi	a5,a5,112
    2b8c:	02010693          	addi	a3,sp,32
    2b90:	00d787b3          	add	a5,a5,a3
    2b94:	00a787b3          	add	a5,a5,a0
    2b98:	013787b3          	add	a5,a5,s3
    2b9c:	f987c783          	lbu	a5,-104(a5)
    2ba0:	19479c63          	bne	a5,s4,2d38 <Nine_Mens_Morris+0x57c>
    2ba4:	00012623          	sw	zero,12(sp)
    2ba8:	1280006f          	j	2cd0 <Nine_Mens_Morris+0x514>
    2bac:	008706b3          	add	a3,a4,s0
    2bb0:	00369793          	slli	a5,a3,0x3
    2bb4:	40d787b3          	sub	a5,a5,a3
    2bb8:	07078793          	addi	a5,a5,112
    2bbc:	02010693          	addi	a3,sp,32
    2bc0:	00d787b3          	add	a5,a5,a3
    2bc4:	00a787b3          	add	a5,a5,a0
    2bc8:	013787b3          	add	a5,a5,s3
    2bcc:	f987c783          	lbu	a5,-104(a5)
    2bd0:	17a79463          	bne	a5,s10,2d38 <Nine_Mens_Morris+0x57c>
    2bd4:	00012623          	sw	zero,12(sp)
    2bd8:	0f80006f          	j	2cd0 <Nine_Mens_Morris+0x514>
    2bdc:	013506b3          	add	a3,a0,s3
    2be0:	00369793          	slli	a5,a3,0x3
    2be4:	40d787b3          	sub	a5,a5,a3
    2be8:	07078793          	addi	a5,a5,112
    2bec:	02010693          	addi	a3,sp,32
    2bf0:	00d787b3          	add	a5,a5,a3
    2bf4:	008787b3          	add	a5,a5,s0
    2bf8:	00e787b3          	add	a5,a5,a4
    2bfc:	f987c783          	lbu	a5,-104(a5)
    2c00:	15479e63          	bne	a5,s4,2d5c <Nine_Mens_Morris+0x5a0>
    2c04:	00012623          	sw	zero,12(sp)
    2c08:	0c80006f          	j	2cd0 <Nine_Mens_Morris+0x514>
    2c0c:	013506b3          	add	a3,a0,s3
    2c10:	00369793          	slli	a5,a3,0x3
    2c14:	40d787b3          	sub	a5,a5,a3
    2c18:	07078793          	addi	a5,a5,112
    2c1c:	02010693          	addi	a3,sp,32
    2c20:	00d787b3          	add	a5,a5,a3
    2c24:	008787b3          	add	a5,a5,s0
    2c28:	00e787b3          	add	a5,a5,a4
    2c2c:	f987c783          	lbu	a5,-104(a5)
    2c30:	13a79663          	bne	a5,s10,2d5c <Nine_Mens_Morris+0x5a0>
    2c34:	00012623          	sw	zero,12(sp)
    2c38:	0980006f          	j	2cd0 <Nine_Mens_Morris+0x514>
    2c3c:	40e40633          	sub	a2,s0,a4
    2c40:	413506b3          	sub	a3,a0,s3
    2c44:	00361793          	slli	a5,a2,0x3
    2c48:	40c787b3          	sub	a5,a5,a2
    2c4c:	07078793          	addi	a5,a5,112
    2c50:	02010613          	addi	a2,sp,32
    2c54:	00c787b3          	add	a5,a5,a2
    2c58:	00d787b3          	add	a5,a5,a3
    2c5c:	f987c783          	lbu	a5,-104(a5)
    2c60:	13479463          	bne	a5,s4,2d88 <Nine_Mens_Morris+0x5cc>
    2c64:	00012623          	sw	zero,12(sp)
    2c68:	0680006f          	j	2cd0 <Nine_Mens_Morris+0x514>
    2c6c:	40e40633          	sub	a2,s0,a4
    2c70:	413506b3          	sub	a3,a0,s3
    2c74:	00361793          	slli	a5,a2,0x3
    2c78:	40c787b3          	sub	a5,a5,a2
    2c7c:	07078793          	addi	a5,a5,112
    2c80:	02010613          	addi	a2,sp,32
    2c84:	00c787b3          	add	a5,a5,a2
    2c88:	00d787b3          	add	a5,a5,a3
    2c8c:	f987c783          	lbu	a5,-104(a5)
    2c90:	0fa79c63          	bne	a5,s10,2d88 <Nine_Mens_Morris+0x5cc>
    2c94:	00012623          	sw	zero,12(sp)
    2c98:	0380006f          	j	2cd0 <Nine_Mens_Morris+0x514>
    2c9c:	41350533          	sub	a0,a0,s3
    2ca0:	40e40433          	sub	s0,s0,a4
    2ca4:	00351793          	slli	a5,a0,0x3
    2ca8:	40a787b3          	sub	a5,a5,a0
    2cac:	07078793          	addi	a5,a5,112
    2cb0:	00d787b3          	add	a5,a5,a3
    2cb4:	008787b3          	add	a5,a5,s0
    2cb8:	f987c783          	lbu	a5,-104(a5)
    2cbc:	fa878793          	addi	a5,a5,-88
    2cc0:	00f037b3          	snez	a5,a5
    2cc4:	00c12703          	lw	a4,12(sp)
    2cc8:	00f777b3          	and	a5,a4,a5
    2ccc:	00f12623          	sw	a5,12(sp)
    2cd0:	00190913          	addi	s2,s2,1
    2cd4:	11690a63          	beq	s2,s6,2de8 <Nine_Mens_Morris+0x62c>
    2cd8:	e92bc8e3          	blt	s7,s2,2b68 <Nine_Mens_Morris+0x3ac>
    2cdc:	01f95493          	srli	s1,s2,0x1f
    2ce0:	012484b3          	add	s1,s1,s2
    2ce4:	4014d493          	srai	s1,s1,0x1
    2ce8:	409004b3          	neg	s1,s1
    2cec:	00348993          	addi	s3,s1,3
    2cf0:	40900433          	neg	s0,s1
    2cf4:	01f95513          	srli	a0,s2,0x1f
    2cf8:	00a907b3          	add	a5,s2,a0
    2cfc:	0017f793          	andi	a5,a5,1
    2d00:	00098593          	mv	a1,s3
    2d04:	40a78533          	sub	a0,a5,a0
    2d08:	609040ef          	jal	7b10 <__mulsi3>
    2d0c:	40950533          	sub	a0,a0,s1
    2d10:	00000713          	li	a4,0
    2d14:	00341793          	slli	a5,s0,0x3
    2d18:	408787b3          	sub	a5,a5,s0
    2d1c:	07078793          	addi	a5,a5,112
    2d20:	02010693          	addi	a3,sp,32
    2d24:	00d787b3          	add	a5,a5,a3
    2d28:	00a787b3          	add	a5,a5,a0
    2d2c:	f987c783          	lbu	a5,-104(a5)
    2d30:	e5a786e3          	beq	a5,s10,2b7c <Nine_Mens_Morris+0x3c0>
    2d34:	e7478ce3          	beq	a5,s4,2bac <Nine_Mens_Morris+0x3f0>
    2d38:	00351793          	slli	a5,a0,0x3
    2d3c:	40a787b3          	sub	a5,a5,a0
    2d40:	07078793          	addi	a5,a5,112
    2d44:	02010693          	addi	a3,sp,32
    2d48:	00d787b3          	add	a5,a5,a3
    2d4c:	008787b3          	add	a5,a5,s0
    2d50:	f987c783          	lbu	a5,-104(a5)
    2d54:	e9a784e3          	beq	a5,s10,2bdc <Nine_Mens_Morris+0x420>
    2d58:	eb478ae3          	beq	a5,s4,2c0c <Nine_Mens_Morris+0x450>
    2d5c:	408a8433          	sub	s0,s5,s0
    2d60:	40aa8533          	sub	a0,s5,a0
    2d64:	00341793          	slli	a5,s0,0x3
    2d68:	408787b3          	sub	a5,a5,s0
    2d6c:	07078793          	addi	a5,a5,112
    2d70:	02010693          	addi	a3,sp,32
    2d74:	00d787b3          	add	a5,a5,a3
    2d78:	00a787b3          	add	a5,a5,a0
    2d7c:	f987c783          	lbu	a5,-104(a5)
    2d80:	eba78ee3          	beq	a5,s10,2c3c <Nine_Mens_Morris+0x480>
    2d84:	ef4784e3          	beq	a5,s4,2c6c <Nine_Mens_Morris+0x4b0>
    2d88:	00351793          	slli	a5,a0,0x3
    2d8c:	40a787b3          	sub	a5,a5,a0
    2d90:	07078793          	addi	a5,a5,112
    2d94:	02010693          	addi	a3,sp,32
    2d98:	00d787b3          	add	a5,a5,a3
    2d9c:	008787b3          	add	a5,a5,s0
    2da0:	f987c783          	lbu	a5,-104(a5)
    2da4:	efa78ce3          	beq	a5,s10,2c9c <Nine_Mens_Morris+0x4e0>
    2da8:	f34794e3          	bne	a5,s4,2cd0 <Nine_Mens_Morris+0x514>
    2dac:	41350533          	sub	a0,a0,s3
    2db0:	40e40433          	sub	s0,s0,a4
    2db4:	00351793          	slli	a5,a0,0x3
    2db8:	40a787b3          	sub	a5,a5,a0
    2dbc:	07078793          	addi	a5,a5,112
    2dc0:	02010713          	addi	a4,sp,32
    2dc4:	00e787b3          	add	a5,a5,a4
    2dc8:	008787b3          	add	a5,a5,s0
    2dcc:	f987c783          	lbu	a5,-104(a5)
    2dd0:	41a787b3          	sub	a5,a5,s10
    2dd4:	00f037b3          	snez	a5,a5
    2dd8:	00c12703          	lw	a4,12(sp)
    2ddc:	00f777b3          	and	a5,a4,a5
    2de0:	00f12623          	sw	a5,12(sp)
    2de4:	eedff06f          	j	2cd0 <Nine_Mens_Morris+0x514>
    2de8:	00c12783          	lw	a5,12(sp)
    2dec:	02079263          	bnez	a5,2e10 <Nine_Mens_Morris+0x654>
    2df0:	fcfd0793          	addi	a5,s10,-49
    2df4:	00f12023          	sw	a5,0(sp)
    2df8:	00021b37          	lui	s6,0x21
    2dfc:	00022ab7          	lui	s5,0x22
    2e00:	000229b7          	lui	s3,0x22
    2e04:	00600a13          	li	s4,6
    2e08:	00a00b93          	li	s7,10
    2e0c:	03c0006f          	j	2e48 <Nine_Mens_Morris+0x68c>
    2e10:	00000513          	li	a0,0
    2e14:	465010ef          	jal	4a78 <set_uart_ID>
    2e18:	000d0593          	mv	a1,s10
    2e1c:	00021437          	lui	s0,0x21
    2e20:	e1840513          	addi	a0,s0,-488 # 20e18 <__clz_tab+0xaf0>
    2e24:	7fc010ef          	jal	4620 <printf>
    2e28:	00100513          	li	a0,1
    2e2c:	44d010ef          	jal	4a78 <set_uart_ID>
    2e30:	000d0593          	mv	a1,s10
    2e34:	e1840513          	addi	a0,s0,-488
    2e38:	7e8010ef          	jal	4620 <printf>
    2e3c:	6c40006f          	j	3500 <Nine_Mens_Morris+0xd44>
    2e40:	000b8513          	mv	a0,s7
    2e44:	7a8010ef          	jal	45ec <putchar>
    2e48:	00012503          	lw	a0,0(sp)
    2e4c:	42d010ef          	jal	4a78 <set_uart_ID>
    2e50:	e48b0513          	addi	a0,s6,-440 # 20e48 <__clz_tab+0xb20>
    2e54:	7cc010ef          	jal	4620 <printf>
    2e58:	60caa783          	lw	a5,1548(s5) # 2260c <_impure_ptr>
    2e5c:	0087a503          	lw	a0,8(a5)
    2e60:	718050ef          	jal	8578 <fflush>
    2e64:	5f49a783          	lw	a5,1524(s3) # 225f4 <io_getch>
    2e68:	000780e7          	jalr	a5
    2e6c:	00050413          	mv	s0,a0
    2e70:	5f49a783          	lw	a5,1524(s3)
    2e74:	000780e7          	jalr	a5
    2e78:	00050493          	mv	s1,a0
    2e7c:	fcf50913          	addi	s2,a0,-49
    2e80:	fd2a60e3          	bltu	s4,s2,2e40 <Nine_Mens_Morris+0x684>
    2e84:	f9f40793          	addi	a5,s0,-97
    2e88:	0ff7f793          	zext.b	a5,a5
    2e8c:	fafa6ae3          	bltu	s4,a5,2e40 <Nine_Mens_Morris+0x684>
    2e90:	f9f40c13          	addi	s8,s0,-97
    2e94:	00391793          	slli	a5,s2,0x3
    2e98:	412787b3          	sub	a5,a5,s2
    2e9c:	07078793          	addi	a5,a5,112
    2ea0:	02010713          	addi	a4,sp,32
    2ea4:	00e787b3          	add	a5,a5,a4
    2ea8:	018787b3          	add	a5,a5,s8
    2eac:	f987c783          	lbu	a5,-104(a5)
    2eb0:	f9a798e3          	bne	a5,s10,2e40 <Nine_Mens_Morris+0x684>
    2eb4:	000217b7          	lui	a5,0x21
    2eb8:	e7478513          	addi	a0,a5,-396 # 20e74 <__clz_tab+0xb4c>
    2ebc:	764010ef          	jal	4620 <printf>
    2ec0:	60caa783          	lw	a5,1548(s5)
    2ec4:	0087a503          	lw	a0,8(a5)
    2ec8:	6b0050ef          	jal	8578 <fflush>
    2ecc:	5f49a783          	lw	a5,1524(s3)
    2ed0:	000780e7          	jalr	a5
    2ed4:	00a12223          	sw	a0,4(sp)
    2ed8:	5f49a783          	lw	a5,1524(s3)
    2edc:	000780e7          	jalr	a5
    2ee0:	00a12423          	sw	a0,8(sp)
    2ee4:	fcf50d93          	addi	s11,a0,-49
    2ee8:	5f49a783          	lw	a5,1524(s3)
    2eec:	000780e7          	jalr	a5
    2ef0:	07751463          	bne	a0,s7,2f58 <Nine_Mens_Morris+0x79c>
    2ef4:	f5ba6ae3          	bltu	s4,s11,2e48 <Nine_Mens_Morris+0x68c>
    2ef8:	00412783          	lw	a5,4(sp)
    2efc:	f9f78713          	addi	a4,a5,-97
    2f00:	f40744e3          	bltz	a4,2e48 <Nine_Mens_Morris+0x68c>
    2f04:	003d9793          	slli	a5,s11,0x3
    2f08:	41b787b3          	sub	a5,a5,s11
    2f0c:	07078793          	addi	a5,a5,112
    2f10:	02010693          	addi	a3,sp,32
    2f14:	00d787b3          	add	a5,a5,a3
    2f18:	00e787b3          	add	a5,a5,a4
    2f1c:	f987c683          	lbu	a3,-104(a5)
    2f20:	05800793          	li	a5,88
    2f24:	f2f692e3          	bne	a3,a5,2e48 <Nine_Mens_Morris+0x68c>
    2f28:	00812783          	lw	a5,8(sp)
    2f2c:	02f48c63          	beq	s1,a5,2f64 <Nine_Mens_Morris+0x7a8>
    2f30:	00412783          	lw	a5,4(sp)
    2f34:	f0f41ae3          	bne	s0,a5,2e48 <Nine_Mens_Morris+0x68c>
    2f38:	00090693          	mv	a3,s2
    2f3c:	012dd463          	bge	s11,s2,2f44 <Nine_Mens_Morris+0x788>
    2f40:	000d8693          	mv	a3,s11
    2f44:	00090593          	mv	a1,s2
    2f48:	01b95463          	bge	s2,s11,2f50 <Nine_Mens_Morris+0x794>
    2f4c:	000d8593          	mv	a1,s11
    2f50:	00070613          	mv	a2,a4
    2f54:	02c0006f          	j	2f80 <Nine_Mens_Morris+0x7c4>
    2f58:	000b8513          	mv	a0,s7
    2f5c:	690010ef          	jal	45ec <putchar>
    2f60:	f95ff06f          	j	2ef4 <Nine_Mens_Morris+0x738>
    2f64:	000c0693          	mv	a3,s8
    2f68:	01875463          	bge	a4,s8,2f70 <Nine_Mens_Morris+0x7b4>
    2f6c:	00070693          	mv	a3,a4
    2f70:	000c0593          	mv	a1,s8
    2f74:	00ec5463          	bge	s8,a4,2f7c <Nine_Mens_Morris+0x7c0>
    2f78:	00070593          	mv	a1,a4
    2f7c:	000d8613          	mv	a2,s11
    2f80:	02060a63          	beqz	a2,2fb4 <Nine_Mens_Morris+0x7f8>
    2f84:	00600793          	li	a5,6
    2f88:	02f60663          	beq	a2,a5,2fb4 <Nine_Mens_Morris+0x7f8>
    2f8c:	ffb67793          	andi	a5,a2,-5
    2f90:	00100513          	li	a0,1
    2f94:	04a79c63          	bne	a5,a0,2fec <Nine_Mens_Morris+0x830>
    2f98:	00268513          	addi	a0,a3,2
    2f9c:	00c12783          	lw	a5,12(sp)
    2fa0:	02b51063          	bne	a0,a1,2fc0 <Nine_Mens_Morris+0x804>
    2fa4:	ffd6f793          	andi	a5,a3,-3
    2fa8:	fff78793          	addi	a5,a5,-1
    2fac:	0017b793          	seqz	a5,a5
    2fb0:	0100006f          	j	2fc0 <Nine_Mens_Morris+0x804>
    2fb4:	00368513          	addi	a0,a3,3
    2fb8:	00c12783          	lw	a5,12(sp)
    2fbc:	00b50e63          	beq	a0,a1,2fd8 <Nine_Mens_Morris+0x81c>
    2fc0:	00300513          	li	a0,3
    2fc4:	04a61063          	bne	a2,a0,3004 <Nine_Mens_Morris+0x848>
    2fc8:	00168613          	addi	a2,a3,1
    2fcc:	02b61c63          	bne	a2,a1,3004 <Nine_Mens_Morris+0x848>
    2fd0:	02a68a63          	beq	a3,a0,3004 <Nine_Mens_Morris+0x848>
    2fd4:	0380006f          	j	300c <Nine_Mens_Morris+0x850>
    2fd8:	00100793          	li	a5,1
    2fdc:	fe0682e3          	beqz	a3,2fc0 <Nine_Mens_Morris+0x804>
    2fe0:	ffd68793          	addi	a5,a3,-3
    2fe4:	0017b793          	seqz	a5,a5
    2fe8:	fd9ff06f          	j	2fc0 <Nine_Mens_Morris+0x804>
    2fec:	ffe60793          	addi	a5,a2,-2
    2ff0:	ffd7f793          	andi	a5,a5,-3
    2ff4:	10079e63          	bnez	a5,3110 <Nine_Mens_Morris+0x954>
    2ff8:	00168613          	addi	a2,a3,1
    2ffc:	00c12783          	lw	a5,12(sp)
    3000:	10b60263          	beq	a2,a1,3104 <Nine_Mens_Morris+0x948>
    3004:	00100693          	li	a3,1
    3008:	e4d790e3          	bne	a5,a3,2e48 <Nine_Mens_Morris+0x68c>
    300c:	00070693          	mv	a3,a4
    3010:	00e12623          	sw	a4,12(sp)
    3014:	00391793          	slli	a5,s2,0x3
    3018:	412787b3          	sub	a5,a5,s2
    301c:	07078793          	addi	a5,a5,112
    3020:	02010713          	addi	a4,sp,32
    3024:	00e787b3          	add	a5,a5,a4
    3028:	018787b3          	add	a5,a5,s8
    302c:	05800713          	li	a4,88
    3030:	f8e78c23          	sb	a4,-104(a5)
    3034:	003d9793          	slli	a5,s11,0x3
    3038:	41b787b3          	sub	a5,a5,s11
    303c:	07078793          	addi	a5,a5,112
    3040:	02010713          	addi	a4,sp,32
    3044:	00e787b3          	add	a5,a5,a4
    3048:	00d787b3          	add	a5,a5,a3
    304c:	f9a78c23          	sb	s10,-104(a5)
    3050:	00000513          	li	a0,0
    3054:	225010ef          	jal	4a78 <set_uart_ID>
    3058:	fd048493          	addi	s1,s1,-48
    305c:	00812783          	lw	a5,8(sp)
    3060:	03078993          	addi	s3,a5,48
    3064:	00412783          	lw	a5,4(sp)
    3068:	fa078913          	addi	s2,a5,-96
    306c:	00090793          	mv	a5,s2
    3070:	00098713          	mv	a4,s3
    3074:	000d0693          	mv	a3,s10
    3078:	00048613          	mv	a2,s1
    307c:	00040593          	mv	a1,s0
    3080:	00021a37          	lui	s4,0x21
    3084:	e7ca0513          	addi	a0,s4,-388 # 20e7c <__clz_tab+0xb54>
    3088:	598010ef          	jal	4620 <printf>
    308c:	00100513          	li	a0,1
    3090:	1e9010ef          	jal	4a78 <set_uart_ID>
    3094:	00090793          	mv	a5,s2
    3098:	00098713          	mv	a4,s3
    309c:	000d0693          	mv	a3,s10
    30a0:	00048613          	mv	a2,s1
    30a4:	00040593          	mv	a1,s0
    30a8:	e7ca0513          	addi	a0,s4,-388
    30ac:	574010ef          	jal	4620 <printf>
    30b0:	05c10b93          	addi	s7,sp,92
    30b4:	01412603          	lw	a2,20(sp)
    30b8:	03160913          	addi	s2,a2,49
    30bc:	000b8593          	mv	a1,s7
    30c0:	00000793          	li	a5,0
    30c4:	00f58733          	add	a4,a1,a5
    30c8:	00f606b3          	add	a3,a2,a5
    30cc:	0006c683          	lbu	a3,0(a3)
    30d0:	00d70023          	sb	a3,0(a4)
    30d4:	00178793          	addi	a5,a5,1
    30d8:	ff9796e3          	bne	a5,s9,30c4 <Nine_Mens_Morris+0x908>
    30dc:	00760613          	addi	a2,a2,7
    30e0:	00758593          	addi	a1,a1,7
    30e4:	fd261ee3          	bne	a2,s2,30c0 <Nine_Mens_Morris+0x904>
    30e8:	00012023          	sw	zero,0(sp)
    30ec:	00000413          	li	s0,0
    30f0:	00300a93          	li	s5,3
    30f4:	00200c13          	li	s8,2
    30f8:	00800b13          	li	s6,8
    30fc:	01b12223          	sw	s11,4(sp)
    3100:	0940006f          	j	3194 <Nine_Mens_Morris+0x9d8>
    3104:	ffe68793          	addi	a5,a3,-2
    3108:	0027b793          	sltiu	a5,a5,2
    310c:	ef9ff06f          	j	3004 <Nine_Mens_Morris+0x848>
    3110:	00c12783          	lw	a5,12(sp)
    3114:	eadff06f          	j	2fc0 <Nine_Mens_Morris+0x804>
    3118:	ffd40d93          	addi	s11,s0,-3
    311c:	00040493          	mv	s1,s0
    3120:	000a8993          	mv	s3,s5
    3124:	41b98a33          	sub	s4,s3,s11
    3128:	00349793          	slli	a5,s1,0x3
    312c:	409787b3          	sub	a5,a5,s1
    3130:	07078793          	addi	a5,a5,112
    3134:	02010713          	addi	a4,sp,32
    3138:	00e787b3          	add	a5,a5,a4
    313c:	01378733          	add	a4,a5,s3
    3140:	f9874703          	lbu	a4,-104(a4)
    3144:	014787b3          	add	a5,a5,s4
    3148:	f987c783          	lbu	a5,-104(a5)
    314c:	08e78263          	beq	a5,a4,31d0 <Nine_Mens_Morris+0xa14>
    3150:	00399793          	slli	a5,s3,0x3
    3154:	413787b3          	sub	a5,a5,s3
    3158:	07078793          	addi	a5,a5,112
    315c:	02010713          	addi	a4,sp,32
    3160:	00e787b3          	add	a5,a5,a4
    3164:	009787b3          	add	a5,a5,s1
    3168:	f987c703          	lbu	a4,-104(a5)
    316c:	003a1793          	slli	a5,s4,0x3
    3170:	414787b3          	sub	a5,a5,s4
    3174:	07078793          	addi	a5,a5,112
    3178:	02010693          	addi	a3,sp,32
    317c:	00d787b3          	add	a5,a5,a3
    3180:	009787b3          	add	a5,a5,s1
    3184:	f987c783          	lbu	a5,-104(a5)
    3188:	20e78e63          	beq	a5,a4,33a4 <Nine_Mens_Morris+0xbe8>
    318c:	00140413          	addi	s0,s0,1
    3190:	37640263          	beq	s0,s6,34f4 <Nine_Mens_Morris+0xd38>
    3194:	01540e63          	beq	s0,s5,31b0 <Nine_Mens_Morris+0x9f4>
    3198:	03940463          	beq	s0,s9,31c0 <Nine_Mens_Morris+0xa04>
    319c:	f68c4ee3          	blt	s8,s0,3118 <Nine_Mens_Morris+0x95c>
    31a0:	408a8db3          	sub	s11,s5,s0
    31a4:	00040493          	mv	s1,s0
    31a8:	000a8993          	mv	s3,s5
    31ac:	f79ff06f          	j	3124 <Nine_Mens_Morris+0x968>
    31b0:	00040493          	mv	s1,s0
    31b4:	00100d93          	li	s11,1
    31b8:	000d8993          	mv	s3,s11
    31bc:	f69ff06f          	j	3124 <Nine_Mens_Morris+0x968>
    31c0:	00100d93          	li	s11,1
    31c4:	00500993          	li	s3,5
    31c8:	000a8493          	mv	s1,s5
    31cc:	f59ff06f          	j	3124 <Nine_Mens_Morris+0x968>
    31d0:	013d86b3          	add	a3,s11,s3
    31d4:	00349793          	slli	a5,s1,0x3
    31d8:	409787b3          	sub	a5,a5,s1
    31dc:	07078793          	addi	a5,a5,112
    31e0:	02010613          	addi	a2,sp,32
    31e4:	00c787b3          	add	a5,a5,a2
    31e8:	00d787b3          	add	a5,a5,a3
    31ec:	f987c783          	lbu	a5,-104(a5)
    31f0:	f6e790e3          	bne	a5,a4,3150 <Nine_Mens_Morris+0x994>
    31f4:	01812783          	lw	a5,24(sp)
    31f8:	04f70a63          	beq	a4,a5,324c <Nine_Mens_Morris+0xa90>
    31fc:	f5a71ae3          	bne	a4,s10,3150 <Nine_Mens_Morris+0x994>
    3200:	00412783          	lw	a5,4(sp)
    3204:	f49796e3          	bne	a5,s1,3150 <Nine_Mens_Morris+0x994>
    3208:	06048a63          	beqz	s1,327c <Nine_Mens_Morris+0xac0>
    320c:	00600793          	li	a5,6
    3210:	06f48663          	beq	s1,a5,327c <Nine_Mens_Morris+0xac0>
    3214:	ffb4f793          	andi	a5,s1,-5
    3218:	00100713          	li	a4,1
    321c:	0ce78263          	beq	a5,a4,32e0 <Nine_Mens_Morris+0xb24>
    3220:	ffe48793          	addi	a5,s1,-2
    3224:	ffd7f793          	andi	a5,a5,-3
    3228:	06079263          	bnez	a5,328c <Nine_Mens_Morris+0xad0>
    322c:	00100793          	li	a5,1
    3230:	00c12703          	lw	a4,12(sp)
    3234:	48e7d663          	bge	a5,a4,36c0 <Nine_Mens_Morris+0xf04>
    3238:	00400793          	li	a5,4
    323c:	04e7c863          	blt	a5,a4,328c <Nine_Mens_Morris+0xad0>
    3240:	00100793          	li	a5,1
    3244:	00f12023          	sw	a5,0(sp)
    3248:	f09ff06f          	j	3150 <Nine_Mens_Morris+0x994>
    324c:	00349793          	slli	a5,s1,0x3
    3250:	409787b3          	sub	a5,a5,s1
    3254:	07078793          	addi	a5,a5,112
    3258:	00c787b3          	add	a5,a5,a2
    325c:	00d786b3          	add	a3,a5,a3
    3260:	05800713          	li	a4,88
    3264:	fce68623          	sb	a4,-52(a3)
    3268:	013786b3          	add	a3,a5,s3
    326c:	fce68623          	sb	a4,-52(a3)
    3270:	014787b3          	add	a5,a5,s4
    3274:	fce78623          	sb	a4,-52(a5)
    3278:	ed9ff06f          	j	3150 <Nine_Mens_Morris+0x994>
    327c:	00300593          	li	a1,3
    3280:	00c12503          	lw	a0,12(sp)
    3284:	135040ef          	jal	7bb8 <__modsi3>
    3288:	10050863          	beqz	a0,3398 <Nine_Mens_Morris+0xbdc>
    328c:	00300793          	li	a5,3
    3290:	06f40a63          	beq	s0,a5,3304 <Nine_Mens_Morris+0xb48>
    3294:	00700793          	li	a5,7
    3298:	08f40263          	beq	s0,a5,331c <Nine_Mens_Morris+0xb60>
    329c:	00399793          	slli	a5,s3,0x3
    32a0:	413787b3          	sub	a5,a5,s3
    32a4:	07078793          	addi	a5,a5,112
    32a8:	02010713          	addi	a4,sp,32
    32ac:	00e787b3          	add	a5,a5,a4
    32b0:	009787b3          	add	a5,a5,s1
    32b4:	f987c703          	lbu	a4,-104(a5)
    32b8:	003a1793          	slli	a5,s4,0x3
    32bc:	414787b3          	sub	a5,a5,s4
    32c0:	07078793          	addi	a5,a5,112
    32c4:	02010693          	addi	a3,sp,32
    32c8:	00d787b3          	add	a5,a5,a3
    32cc:	009787b3          	add	a5,a5,s1
    32d0:	f987c783          	lbu	a5,-104(a5)
    32d4:	0ce78863          	beq	a5,a4,33a4 <Nine_Mens_Morris+0xbe8>
    32d8:	00140413          	addi	s0,s0,1
    32dc:	eb9ff06f          	j	3194 <Nine_Mens_Morris+0x9d8>
    32e0:	00c12783          	lw	a5,12(sp)
    32e4:	01f7d713          	srli	a4,a5,0x1f
    32e8:	00e787b3          	add	a5,a5,a4
    32ec:	0017f793          	andi	a5,a5,1
    32f0:	40e787b3          	sub	a5,a5,a4
    32f4:	00100713          	li	a4,1
    32f8:	f8e79ae3          	bne	a5,a4,328c <Nine_Mens_Morris+0xad0>
    32fc:	00f12023          	sw	a5,0(sp)
    3300:	e51ff06f          	j	3150 <Nine_Mens_Morris+0x994>
    3304:	00c12783          	lw	a5,12(sp)
    3308:	0037a793          	slti	a5,a5,3
    330c:	00012703          	lw	a4,0(sp)
    3310:	00f767b3          	or	a5,a4,a5
    3314:	00f12023          	sw	a5,0(sp)
    3318:	f85ff06f          	j	329c <Nine_Mens_Morris+0xae0>
    331c:	00c12783          	lw	a5,12(sp)
    3320:	0047a793          	slti	a5,a5,4
    3324:	0017b793          	seqz	a5,a5
    3328:	00012703          	lw	a4,0(sp)
    332c:	00f767b3          	or	a5,a4,a5
    3330:	00f12023          	sw	a5,0(sp)
    3334:	00399793          	slli	a5,s3,0x3
    3338:	413787b3          	sub	a5,a5,s3
    333c:	07078793          	addi	a5,a5,112
    3340:	02010713          	addi	a4,sp,32
    3344:	00e787b3          	add	a5,a5,a4
    3348:	009787b3          	add	a5,a5,s1
    334c:	f987c703          	lbu	a4,-104(a5)
    3350:	003a1793          	slli	a5,s4,0x3
    3354:	414787b3          	sub	a5,a5,s4
    3358:	07078793          	addi	a5,a5,112
    335c:	02010693          	addi	a3,sp,32
    3360:	00d787b3          	add	a5,a5,a3
    3364:	009787b3          	add	a5,a5,s1
    3368:	f987c783          	lbu	a5,-104(a5)
    336c:	18e79463          	bne	a5,a4,34f4 <Nine_Mens_Morris+0xd38>
    3370:	013d8db3          	add	s11,s11,s3
    3374:	003d9793          	slli	a5,s11,0x3
    3378:	41b787b3          	sub	a5,a5,s11
    337c:	07078793          	addi	a5,a5,112
    3380:	02010693          	addi	a3,sp,32
    3384:	00d787b3          	add	a5,a5,a3
    3388:	009787b3          	add	a5,a5,s1
    338c:	f987c783          	lbu	a5,-104(a5)
    3390:	16e79263          	bne	a5,a4,34f4 <Nine_Mens_Morris+0xd38>
    3394:	0340006f          	j	33c8 <Nine_Mens_Morris+0xc0c>
    3398:	00100793          	li	a5,1
    339c:	00f12023          	sw	a5,0(sp)
    33a0:	db1ff06f          	j	3150 <Nine_Mens_Morris+0x994>
    33a4:	013d8db3          	add	s11,s11,s3
    33a8:	003d9793          	slli	a5,s11,0x3
    33ac:	41b787b3          	sub	a5,a5,s11
    33b0:	07078793          	addi	a5,a5,112
    33b4:	02010693          	addi	a3,sp,32
    33b8:	00d787b3          	add	a5,a5,a3
    33bc:	009787b3          	add	a5,a5,s1
    33c0:	f987c783          	lbu	a5,-104(a5)
    33c4:	dce794e3          	bne	a5,a4,318c <Nine_Mens_Morris+0x9d0>
    33c8:	01812783          	lw	a5,24(sp)
    33cc:	04e78a63          	beq	a5,a4,3420 <Nine_Mens_Morris+0xc64>
    33d0:	daed1ee3          	bne	s10,a4,318c <Nine_Mens_Morris+0x9d0>
    33d4:	00c12783          	lw	a5,12(sp)
    33d8:	da979ae3          	bne	a5,s1,318c <Nine_Mens_Morris+0x9d0>
    33dc:	08048e63          	beqz	s1,3478 <Nine_Mens_Morris+0xcbc>
    33e0:	00600793          	li	a5,6
    33e4:	08f48a63          	beq	s1,a5,3478 <Nine_Mens_Morris+0xcbc>
    33e8:	ffb4f793          	andi	a5,s1,-5
    33ec:	00100713          	li	a4,1
    33f0:	0ae78863          	beq	a5,a4,34a0 <Nine_Mens_Morris+0xce4>
    33f4:	ffe48793          	addi	a5,s1,-2
    33f8:	ffd7f793          	andi	a5,a5,-3
    33fc:	08079663          	bnez	a5,3488 <Nine_Mens_Morris+0xccc>
    3400:	00100793          	li	a5,1
    3404:	00412703          	lw	a4,4(sp)
    3408:	2ae7d263          	bge	a5,a4,36ac <Nine_Mens_Morris+0xef0>
    340c:	00400793          	li	a5,4
    3410:	06e7cc63          	blt	a5,a4,3488 <Nine_Mens_Morris+0xccc>
    3414:	00100793          	li	a5,1
    3418:	00f12023          	sw	a5,0(sp)
    341c:	d71ff06f          	j	318c <Nine_Mens_Morris+0x9d0>
    3420:	003d9793          	slli	a5,s11,0x3
    3424:	41b787b3          	sub	a5,a5,s11
    3428:	07078793          	addi	a5,a5,112
    342c:	02010693          	addi	a3,sp,32
    3430:	00d787b3          	add	a5,a5,a3
    3434:	009787b3          	add	a5,a5,s1
    3438:	05800693          	li	a3,88
    343c:	fcd78623          	sb	a3,-52(a5)
    3440:	00399793          	slli	a5,s3,0x3
    3444:	413787b3          	sub	a5,a5,s3
    3448:	07078793          	addi	a5,a5,112
    344c:	02010613          	addi	a2,sp,32
    3450:	00c787b3          	add	a5,a5,a2
    3454:	009787b3          	add	a5,a5,s1
    3458:	fcd78623          	sb	a3,-52(a5)
    345c:	003a1793          	slli	a5,s4,0x3
    3460:	414787b3          	sub	a5,a5,s4
    3464:	07078793          	addi	a5,a5,112
    3468:	00c787b3          	add	a5,a5,a2
    346c:	009787b3          	add	a5,a5,s1
    3470:	fcd78623          	sb	a3,-52(a5)
    3474:	f5dff06f          	j	33d0 <Nine_Mens_Morris+0xc14>
    3478:	00300593          	li	a1,3
    347c:	00412503          	lw	a0,4(sp)
    3480:	738040ef          	jal	7bb8 <__modsi3>
    3484:	0c050e63          	beqz	a0,3560 <Nine_Mens_Morris+0xda4>
    3488:	00300793          	li	a5,3
    348c:	02f40c63          	beq	s0,a5,34c4 <Nine_Mens_Morris+0xd08>
    3490:	00700793          	li	a5,7
    3494:	04f40463          	beq	s0,a5,34dc <Nine_Mens_Morris+0xd20>
    3498:	00140413          	addi	s0,s0,1
    349c:	cf9ff06f          	j	3194 <Nine_Mens_Morris+0x9d8>
    34a0:	00412783          	lw	a5,4(sp)
    34a4:	01f7d713          	srli	a4,a5,0x1f
    34a8:	00e787b3          	add	a5,a5,a4
    34ac:	0017f793          	andi	a5,a5,1
    34b0:	40e787b3          	sub	a5,a5,a4
    34b4:	00100713          	li	a4,1
    34b8:	fce798e3          	bne	a5,a4,3488 <Nine_Mens_Morris+0xccc>
    34bc:	00f12023          	sw	a5,0(sp)
    34c0:	ccdff06f          	j	318c <Nine_Mens_Morris+0x9d0>
    34c4:	00412783          	lw	a5,4(sp)
    34c8:	0037a793          	slti	a5,a5,3
    34cc:	00012703          	lw	a4,0(sp)
    34d0:	00f767b3          	or	a5,a4,a5
    34d4:	00f12023          	sw	a5,0(sp)
    34d8:	fc1ff06f          	j	3498 <Nine_Mens_Morris+0xcdc>
    34dc:	00412d83          	lw	s11,4(sp)
    34e0:	004da793          	slti	a5,s11,4
    34e4:	0017b793          	seqz	a5,a5
    34e8:	00012703          	lw	a4,0(sp)
    34ec:	00f767b3          	or	a5,a4,a5
    34f0:	00f12023          	sw	a5,0(sp)
    34f4:	00100793          	li	a5,1
    34f8:	00012703          	lw	a4,0(sp)
    34fc:	06f70863          	beq	a4,a5,356c <Nine_Mens_Morris+0xdb0>
    3500:	01012783          	lw	a5,16(sp)
    3504:	00178693          	addi	a3,a5,1
    3508:	00d12823          	sw	a3,16(sp)
    350c:	01f6d713          	srli	a4,a3,0x1f
    3510:	00e684b3          	add	s1,a3,a4
    3514:	0014f493          	andi	s1,s1,1
    3518:	40e484b3          	sub	s1,s1,a4
    351c:	fff48713          	addi	a4,s1,-1
    3520:	00e03733          	snez	a4,a4
    3524:	03170d13          	addi	s10,a4,49
    3528:	0016f413          	andi	s0,a3,1
    352c:	03140713          	addi	a4,s0,49
    3530:	00e12e23          	sw	a4,28(sp)
    3534:	00e12c23          	sw	a4,24(sp)
    3538:	00278793          	addi	a5,a5,2
    353c:	01f7db93          	srli	s7,a5,0x1f
    3540:	00fb8bb3          	add	s7,s7,a5
    3544:	401bdb93          	srai	s7,s7,0x1
    3548:	00000b13          	li	s6,0
    354c:	00600a13          	li	s4,6
    3550:	00912023          	sw	s1,0(sp)
    3554:	00812223          	sw	s0,4(sp)
    3558:	000b8413          	mv	s0,s7
    355c:	c44ff06f          	j	29a0 <Nine_Mens_Morris+0x1e4>
    3560:	00100793          	li	a5,1
    3564:	00f12023          	sw	a5,0(sp)
    3568:	c25ff06f          	j	318c <Nine_Mens_Morris+0x9d0>
    356c:	007b8693          	addi	a3,s7,7 # 20007 <DATA_START+0x7>
    3570:	038b8613          	addi	a2,s7,56
    3574:	00000413          	li	s0,0
    3578:	01812583          	lw	a1,24(sp)
    357c:	ff968713          	addi	a4,a3,-7
    3580:	00074783          	lbu	a5,0(a4)
    3584:	40b787b3          	sub	a5,a5,a1
    3588:	0017b793          	seqz	a5,a5
    358c:	00f40433          	add	s0,s0,a5
    3590:	00170713          	addi	a4,a4,1
    3594:	fed716e3          	bne	a4,a3,3580 <Nine_Mens_Morris+0xdc4>
    3598:	00768693          	addi	a3,a3,7
    359c:	fec690e3          	bne	a3,a2,357c <Nine_Mens_Morris+0xdc0>
    35a0:	02040063          	beqz	s0,35c0 <Nine_Mens_Morris+0xe04>
    35a4:	211040ef          	jal	7fb4 <rand>
    35a8:	00040593          	mv	a1,s0
    35ac:	60c040ef          	jal	7bb8 <__modsi3>
    35b0:	00150713          	addi	a4,a0,1
    35b4:	00000493          	li	s1,0
    35b8:	01812683          	lw	a3,24(sp)
    35bc:	0c80006f          	j	3684 <Nine_Mens_Morris+0xec8>
    35c0:	000b8593          	mv	a1,s7
    35c4:	00040693          	mv	a3,s0
    35c8:	01412503          	lw	a0,20(sp)
    35cc:	01812803          	lw	a6,24(sp)
    35d0:	00040713          	mv	a4,s0
    35d4:	00e507b3          	add	a5,a0,a4
    35d8:	0007c783          	lbu	a5,0(a5)
    35dc:	00e58633          	add	a2,a1,a4
    35e0:	00f60023          	sb	a5,0(a2)
    35e4:	410787b3          	sub	a5,a5,a6
    35e8:	0017b793          	seqz	a5,a5
    35ec:	00f686b3          	add	a3,a3,a5
    35f0:	00170713          	addi	a4,a4,1
    35f4:	ff9710e3          	bne	a4,s9,35d4 <Nine_Mens_Morris+0xe18>
    35f8:	00750513          	addi	a0,a0,7
    35fc:	00758593          	addi	a1,a1,7
    3600:	fd2518e3          	bne	a0,s2,35d0 <Nine_Mens_Morris+0xe14>
    3604:	00068413          	mv	s0,a3
    3608:	f9dff06f          	j	35a4 <Nine_Mens_Morris+0xde8>
    360c:	00349793          	slli	a5,s1,0x3
    3610:	409787b3          	sub	a5,a5,s1
    3614:	07078793          	addi	a5,a5,112
    3618:	02010713          	addi	a4,sp,32
    361c:	00e787b3          	add	a5,a5,a4
    3620:	008787b3          	add	a5,a5,s0
    3624:	05800713          	li	a4,88
    3628:	f8e78c23          	sb	a4,-104(a5)
    362c:	00000513          	li	a0,0
    3630:	448010ef          	jal	4a78 <set_uart_ID>
    3634:	06140413          	addi	s0,s0,97
    3638:	00148493          	addi	s1,s1,1
    363c:	01c12983          	lw	s3,28(sp)
    3640:	00098693          	mv	a3,s3
    3644:	00048613          	mv	a2,s1
    3648:	00040593          	mv	a1,s0
    364c:	00021937          	lui	s2,0x21
    3650:	ea890513          	addi	a0,s2,-344 # 20ea8 <__clz_tab+0xb80>
    3654:	7cd000ef          	jal	4620 <printf>
    3658:	00100513          	li	a0,1
    365c:	41c010ef          	jal	4a78 <set_uart_ID>
    3660:	00098693          	mv	a3,s3
    3664:	00048613          	mv	a2,s1
    3668:	00040593          	mv	a1,s0
    366c:	ea890513          	addi	a0,s2,-344
    3670:	7b1000ef          	jal	4620 <printf>
    3674:	e8dff06f          	j	3500 <Nine_Mens_Morris+0xd44>
    3678:	00148493          	addi	s1,s1,1
    367c:	007b8b93          	addi	s7,s7,7
    3680:	e99480e3          	beq	s1,s9,3500 <Nine_Mens_Morris+0xd44>
    3684:	00000413          	li	s0,0
    3688:	008b87b3          	add	a5,s7,s0
    368c:	0007c783          	lbu	a5,0(a5)
    3690:	40d787b3          	sub	a5,a5,a3
    3694:	0017b793          	seqz	a5,a5
    3698:	40f70733          	sub	a4,a4,a5
    369c:	f60708e3          	beqz	a4,360c <Nine_Mens_Morris+0xe50>
    36a0:	00140413          	addi	s0,s0,1
    36a4:	ff9412e3          	bne	s0,s9,3688 <Nine_Mens_Morris+0xecc>
    36a8:	fd1ff06f          	j	3678 <Nine_Mens_Morris+0xebc>
    36ac:	00300793          	li	a5,3
    36b0:	def410e3          	bne	s0,a5,3490 <Nine_Mens_Morris+0xcd4>
    36b4:	00100793          	li	a5,1
    36b8:	00f12023          	sw	a5,0(sp)
    36bc:	dddff06f          	j	3498 <Nine_Mens_Morris+0xcdc>
    36c0:	00300793          	li	a5,3
    36c4:	bcf418e3          	bne	s0,a5,3294 <Nine_Mens_Morris+0xad8>
    36c8:	00100793          	li	a5,1
    36cc:	00f12023          	sw	a5,0(sp)
    36d0:	bcdff06f          	j	329c <Nine_Mens_Morris+0xae0>
    36d4:	00100513          	li	a0,1
    36d8:	40950533          	sub	a0,a0,s1
    36dc:	0cc12083          	lw	ra,204(sp)
    36e0:	0c812403          	lw	s0,200(sp)
    36e4:	0c412483          	lw	s1,196(sp)
    36e8:	0c012903          	lw	s2,192(sp)
    36ec:	0bc12983          	lw	s3,188(sp)
    36f0:	0b812a03          	lw	s4,184(sp)
    36f4:	0b412a83          	lw	s5,180(sp)
    36f8:	0b012b03          	lw	s6,176(sp)
    36fc:	0ac12b83          	lw	s7,172(sp)
    3700:	0a812c03          	lw	s8,168(sp)
    3704:	0a412c83          	lw	s9,164(sp)
    3708:	0a012d03          	lw	s10,160(sp)
    370c:	09c12d83          	lw	s11,156(sp)
    3710:	0d010113          	addi	sp,sp,208
    3714:	00008067          	ret

00003718 <Hit_and_Blow>:
    3718:	f8010113          	addi	sp,sp,-128
    371c:	06112e23          	sw	ra,124(sp)
    3720:	06812c23          	sw	s0,120(sp)
    3724:	06912a23          	sw	s1,116(sp)
    3728:	07212823          	sw	s2,112(sp)
    372c:	07312623          	sw	s3,108(sp)
    3730:	07412423          	sw	s4,104(sp)
    3734:	07512223          	sw	s5,100(sp)
    3738:	07612023          	sw	s6,96(sp)
    373c:	05712e23          	sw	s7,92(sp)
    3740:	05812c23          	sw	s8,88(sp)
    3744:	05912a23          	sw	s9,84(sp)
    3748:	05a12823          	sw	s10,80(sp)
    374c:	05b12623          	sw	s11,76(sp)
    3750:	08010413          	addi	s0,sp,128
    3754:	e8010113          	addi	sp,sp,-384
    3758:	00010a93          	mv	s5,sp
    375c:	000227b7          	lui	a5,0x22
    3760:	6047a783          	lw	a5,1540(a5) # 22604 <gpio>
    3764:	0007a023          	sw	zero,0(a5)
    3768:	00000513          	li	a0,0
    376c:	43c050ef          	jal	8ba8 <time>
    3770:	031040ef          	jal	7fa0 <srand>
    3774:	fa840793          	addi	a5,s0,-88
    3778:	f8f42a23          	sw	a5,-108(s0)
    377c:	00078493          	mv	s1,a5
    3780:	00000913          	li	s2,0
    3784:	00a00993          	li	s3,10
    3788:	00400b13          	li	s6,4
    378c:	0080006f          	j	3794 <Hit_and_Blow+0x7c>
    3790:	020a0e63          	beqz	s4,37cc <Hit_and_Blow+0xb4>
    3794:	021040ef          	jal	7fb4 <rand>
    3798:	00098593          	mv	a1,s3
    379c:	41c040ef          	jal	7bb8 <__modsi3>
    37a0:	00a4a023          	sw	a0,0(s1)
    37a4:	43205063          	blez	s2,3bc4 <Hit_and_Blow+0x4ac>
    37a8:	f9442703          	lw	a4,-108(s0)
    37ac:	00000a13          	li	s4,0
    37b0:	00072783          	lw	a5,0(a4)
    37b4:	40a787b3          	sub	a5,a5,a0
    37b8:	0017b793          	seqz	a5,a5
    37bc:	00fa6a33          	or	s4,s4,a5
    37c0:	00470713          	addi	a4,a4,4
    37c4:	fe9716e3          	bne	a4,s1,37b0 <Hit_and_Blow+0x98>
    37c8:	fc9ff06f          	j	3790 <Hit_and_Blow+0x78>
    37cc:	00190913          	addi	s2,s2,1
    37d0:	03691463          	bne	s2,s6,37f8 <Hit_and_Blow+0xe0>
    37d4:	010a8c13          	addi	s8,s5,16
    37d8:	f9842023          	sw	s8,-128(s0)
    37dc:	f9542823          	sw	s5,-112(s0)
    37e0:	f8042623          	sw	zero,-116(s0)
    37e4:	00400b13          	li	s6,4
    37e8:	00022d37          	lui	s10,0x22
    37ec:	fbc40913          	addi	s2,s0,-68
    37f0:	000229b7          	lui	s3,0x22
    37f4:	3500006f          	j	3b44 <Hit_and_Blow+0x42c>
    37f8:	00448493          	addi	s1,s1,4
    37fc:	f99ff06f          	j	3794 <Hit_and_Blow+0x7c>
    3800:	00000513          	li	a0,0
    3804:	274010ef          	jal	4a78 <set_uart_ID>
    3808:	00021537          	lui	a0,0x21
    380c:	ef050513          	addi	a0,a0,-272 # 20ef0 <__clz_tab+0xbc8>
    3810:	611000ef          	jal	4620 <printf>
    3814:	f9442903          	lw	s2,-108(s0)
    3818:	01090993          	addi	s3,s2,16
    381c:	00021a37          	lui	s4,0x21
    3820:	00092583          	lw	a1,0(s2)
    3824:	f1ca0513          	addi	a0,s4,-228 # 20f1c <__clz_tab+0xbf4>
    3828:	5f9000ef          	jal	4620 <printf>
    382c:	00490913          	addi	s2,s2,4
    3830:	ff3918e3          	bne	s2,s3,3820 <Hit_and_Blow+0x108>
    3834:	00021537          	lui	a0,0x21
    3838:	f2050513          	addi	a0,a0,-224 # 20f20 <__clz_tab+0xbf8>
    383c:	5e5000ef          	jal	4620 <printf>
    3840:	00100513          	li	a0,1
    3844:	234010ef          	jal	4a78 <set_uart_ID>
    3848:	00021537          	lui	a0,0x21
    384c:	ef050513          	addi	a0,a0,-272 # 20ef0 <__clz_tab+0xbc8>
    3850:	5d1000ef          	jal	4620 <printf>
    3854:	00021937          	lui	s2,0x21
    3858:	f9442a03          	lw	s4,-108(s0)
    385c:	000a2583          	lw	a1,0(s4)
    3860:	f1c90513          	addi	a0,s2,-228 # 20f1c <__clz_tab+0xbf4>
    3864:	5bd000ef          	jal	4620 <printf>
    3868:	004a0793          	addi	a5,s4,4
    386c:	f8f42a23          	sw	a5,-108(s0)
    3870:	fef994e3          	bne	s3,a5,3858 <Hit_and_Blow+0x140>
    3874:	00021537          	lui	a0,0x21
    3878:	f2050513          	addi	a0,a0,-224 # 20f20 <__clz_tab+0xbf8>
    387c:	5a5000ef          	jal	4620 <printf>
    3880:	00048513          	mv	a0,s1
    3884:	f8040113          	addi	sp,s0,-128
    3888:	07c12083          	lw	ra,124(sp)
    388c:	07812403          	lw	s0,120(sp)
    3890:	07412483          	lw	s1,116(sp)
    3894:	07012903          	lw	s2,112(sp)
    3898:	06c12983          	lw	s3,108(sp)
    389c:	06812a03          	lw	s4,104(sp)
    38a0:	06412a83          	lw	s5,100(sp)
    38a4:	06012b03          	lw	s6,96(sp)
    38a8:	05c12b83          	lw	s7,92(sp)
    38ac:	05812c03          	lw	s8,88(sp)
    38b0:	05412c83          	lw	s9,84(sp)
    38b4:	05012d03          	lw	s10,80(sp)
    38b8:	04c12d83          	lw	s11,76(sp)
    38bc:	08010113          	addi	sp,sp,128
    38c0:	00008067          	ret
    38c4:	000a8713          	mv	a4,s5
    38c8:	000a0493          	mv	s1,s4
    38cc:	00074783          	lbu	a5,0(a4)
    38d0:	fd078793          	addi	a5,a5,-48
    38d4:	0ff7f793          	zext.b	a5,a5
    38d8:	00a7b793          	sltiu	a5,a5,10
    38dc:	0017b793          	seqz	a5,a5
    38e0:	00f4e4b3          	or	s1,s1,a5
    38e4:	00170713          	addi	a4,a4,1
    38e8:	ff2712e3          	bne	a4,s2,38cc <Hit_and_Blow+0x1b4>
    38ec:	fb844783          	lbu	a5,-72(s0)
    38f0:	07978063          	beq	a5,s9,3950 <Hit_and_Blow+0x238>
    38f4:	0e048463          	beqz	s1,39dc <Hit_and_Blow+0x2c4>
    38f8:	000b0693          	mv	a3,s6
    38fc:	f9842603          	lw	a2,-104(s0)
    3900:	f9c42583          	lw	a1,-100(s0)
    3904:	000217b7          	lui	a5,0x21
    3908:	fa878513          	addi	a0,a5,-88 # 20fa8 <__clz_tab+0xc80>
    390c:	515000ef          	jal	4620 <printf>
    3910:	60cd2783          	lw	a5,1548(s10) # 2260c <_impure_ptr>
    3914:	0087a503          	lw	a0,8(a5)
    3918:	461040ef          	jal	8578 <fflush>
    391c:	fb840a93          	addi	s5,s0,-72
    3920:	000a8493          	mv	s1,s5
    3924:	5f49a783          	lw	a5,1524(s3) # 225f4 <io_getch>
    3928:	000780e7          	jalr	a5
    392c:	00a48023          	sb	a0,0(s1)
    3930:	00148493          	addi	s1,s1,1
    3934:	ff2498e3          	bne	s1,s2,3924 <Hit_and_Blow+0x20c>
    3938:	5f49a783          	lw	a5,1524(s3)
    393c:	000780e7          	jalr	a5
    3940:	f97502e3          	beq	a0,s7,38c4 <Hit_and_Blow+0x1ac>
    3944:	000b8513          	mv	a0,s7
    3948:	4a5000ef          	jal	45ec <putchar>
    394c:	f79ff06f          	j	38c4 <Hit_and_Blow+0x1ac>
    3950:	fb944703          	lbu	a4,-71(s0)
    3954:	06100793          	li	a5,97
    3958:	f8f71ee3          	bne	a4,a5,38f4 <Hit_and_Blow+0x1dc>
    395c:	fba44703          	lbu	a4,-70(s0)
    3960:	07400793          	li	a5,116
    3964:	f8f718e3          	bne	a4,a5,38f4 <Hit_and_Blow+0x1dc>
    3968:	fbb44703          	lbu	a4,-69(s0)
    396c:	06100793          	li	a5,97
    3970:	f8f712e3          	bne	a4,a5,38f4 <Hit_and_Blow+0x1dc>
    3974:	f8442783          	lw	a5,-124(s0)
    3978:	f6f05ee3          	blez	a5,38f4 <Hit_and_Blow+0x1dc>
    397c:	f8042783          	lw	a5,-128(s0)
    3980:	f8f42423          	sw	a5,-120(s0)
    3984:	000217b7          	lui	a5,0x21
    3988:	00078513          	mv	a0,a5
    398c:	495000ef          	jal	4620 <printf>
    3990:	f8842783          	lw	a5,-120(s0)
    3994:	ff078d93          	addi	s11,a5,-16 # 20ff0 <__clz_tab+0xcc8>
    3998:	000da583          	lw	a1,0(s11) # 21000 <__clz_tab+0xcd8>
    399c:	000217b7          	lui	a5,0x21
    39a0:	00878513          	addi	a0,a5,8 # 21008 <__clz_tab+0xce0>
    39a4:	47d000ef          	jal	4620 <printf>
    39a8:	004d8d93          	addi	s11,s11,4
    39ac:	f8842783          	lw	a5,-120(s0)
    39b0:	fefd94e3          	bne	s11,a5,3998 <Hit_and_Blow+0x280>
    39b4:	00078d93          	mv	s11,a5
    39b8:	0047a603          	lw	a2,4(a5)
    39bc:	0007a583          	lw	a1,0(a5)
    39c0:	000217b7          	lui	a5,0x21
    39c4:	00c78513          	addi	a0,a5,12 # 2100c <__clz_tab+0xce4>
    39c8:	459000ef          	jal	4620 <printf>
    39cc:	018d8793          	addi	a5,s11,24
    39d0:	f8f42423          	sw	a5,-120(s0)
    39d4:	fb8798e3          	bne	a5,s8,3984 <Hit_and_Blow+0x26c>
    39d8:	f1dff06f          	j	38f4 <Hit_and_Blow+0x1dc>
    39dc:	f9042803          	lw	a6,-112(s0)
    39e0:	00048b93          	mv	s7,s1
    39e4:	f8942e23          	sw	s1,-100(s0)
    39e8:	00048593          	mv	a1,s1
    39ec:	00000513          	li	a0,0
    39f0:	000228b7          	lui	a7,0x22
    39f4:	0400006f          	j	3a34 <Hit_and_Blow+0x31c>
    39f8:	f9c42603          	lw	a2,-100(s0)
    39fc:	00160613          	addi	a2,a2,1
    3a00:	f8c42e23          	sw	a2,-100(s0)
    3a04:	00178793          	addi	a5,a5,1
    3a08:	00470713          	addi	a4,a4,4
    3a0c:	01678c63          	beq	a5,s6,3a24 <Hit_and_Blow+0x30c>
    3a10:	00072603          	lw	a2,0(a4)
    3a14:	fec698e3          	bne	a3,a2,3a04 <Hit_and_Blow+0x2ec>
    3a18:	fef580e3          	beq	a1,a5,39f8 <Hit_and_Blow+0x2e0>
    3a1c:	001b8b93          	addi	s7,s7,1
    3a20:	fe5ff06f          	j	3a04 <Hit_and_Blow+0x2ec>
    3a24:	00158593          	addi	a1,a1,1
    3a28:	001a8a93          	addi	s5,s5,1
    3a2c:	00480813          	addi	a6,a6,4
    3a30:	03658a63          	beq	a1,s6,3a64 <Hit_and_Blow+0x34c>
    3a34:	000ac683          	lbu	a3,0(s5)
    3a38:	fd068693          	addi	a3,a3,-48
    3a3c:	00d82023          	sw	a3,0(a6)
    3a40:	00851513          	slli	a0,a0,0x8
    3a44:	00088793          	mv	a5,a7
    3a48:	00269713          	slli	a4,a3,0x2
    3a4c:	00e787b3          	add	a5,a5,a4
    3a50:	0007a783          	lw	a5,0(a5)
    3a54:	00f56533          	or	a0,a0,a5
    3a58:	f9442703          	lw	a4,-108(s0)
    3a5c:	00048793          	mv	a5,s1
    3a60:	fb1ff06f          	j	3a10 <Hit_and_Blow+0x2f8>
    3a64:	000237b7          	lui	a5,0x23
    3a68:	88a7a823          	sw	a0,-1904(a5) # 22890 <N1>
    3a6c:	00048d93          	mv	s11,s1
    3a70:	00021cb7          	lui	s9,0x21
    3a74:	000d8513          	mv	a0,s11
    3a78:	000010ef          	jal	4a78 <set_uart_ID>
    3a7c:	000217b7          	lui	a5,0x21
    3a80:	00078513          	mv	a0,a5
    3a84:	39d000ef          	jal	4620 <printf>
    3a88:	f9042a83          	lw	s5,-112(s0)
    3a8c:	000aa583          	lw	a1,0(s5)
    3a90:	008c8513          	addi	a0,s9,8 # 21008 <__clz_tab+0xce0>
    3a94:	38d000ef          	jal	4620 <printf>
    3a98:	004a8a93          	addi	s5,s5,4
    3a9c:	ff8a98e3          	bne	s5,s8,3a8c <Hit_and_Blow+0x374>
    3aa0:	000b8613          	mv	a2,s7
    3aa4:	f9c42a83          	lw	s5,-100(s0)
    3aa8:	000a8593          	mv	a1,s5
    3aac:	000217b7          	lui	a5,0x21
    3ab0:	00c78513          	addi	a0,a5,12 # 2100c <__clz_tab+0xce4>
    3ab4:	36d000ef          	jal	4620 <printf>
    3ab8:	001d8d93          	addi	s11,s11,1
    3abc:	00200793          	li	a5,2
    3ac0:	fafd9ae3          	bne	s11,a5,3a74 <Hit_and_Blow+0x35c>
    3ac4:	015c2023          	sw	s5,0(s8) # 21000 <__clz_tab+0xcd8>
    3ac8:	017c2223          	sw	s7,4(s8)
    3acc:	00022737          	lui	a4,0x22
    3ad0:	00070713          	mv	a4,a4
    3ad4:	002a9793          	slli	a5,s5,0x2
    3ad8:	00f707b3          	add	a5,a4,a5
    3adc:	0007a783          	lw	a5,0(a5)
    3ae0:	01879793          	slli	a5,a5,0x18
    3ae4:	002b9b93          	slli	s7,s7,0x2
    3ae8:	01770733          	add	a4,a4,s7
    3aec:	00072703          	lw	a4,0(a4) # 22000 <int_to_gpio>
    3af0:	00871713          	slli	a4,a4,0x8
    3af4:	00e7e7b3          	or	a5,a5,a4
    3af8:	00740737          	lui	a4,0x740
    3afc:	07c70713          	addi	a4,a4,124 # 74007c <stack_bot+0x71b07c>
    3b00:	00e7e7b3          	or	a5,a5,a4
    3b04:	00023737          	lui	a4,0x23
    3b08:	88f72623          	sw	a5,-1908(a4) # 2288c <N0>
    3b0c:	00022737          	lui	a4,0x22
    3b10:	60472703          	lw	a4,1540(a4) # 22604 <gpio>
    3b14:	000236b7          	lui	a3,0x23
    3b18:	8906a683          	lw	a3,-1904(a3) # 22890 <N1>
    3b1c:	00d72423          	sw	a3,8(a4)
    3b20:	00f72223          	sw	a5,4(a4)
    3b24:	096a8863          	beq	s5,s6,3bb4 <Hit_and_Blow+0x49c>
    3b28:	018c0c13          	addi	s8,s8,24
    3b2c:	f9042783          	lw	a5,-112(s0)
    3b30:	01878793          	addi	a5,a5,24
    3b34:	f8f42823          	sw	a5,-112(s0)
    3b38:	01000793          	li	a5,16
    3b3c:	f8c42703          	lw	a4,-116(s0)
    3b40:	ccf700e3          	beq	a4,a5,3800 <Hit_and_Blow+0xe8>
    3b44:	f8c42783          	lw	a5,-116(s0)
    3b48:	00078a93          	mv	s5,a5
    3b4c:	f8f42223          	sw	a5,-124(s0)
    3b50:	00178493          	addi	s1,a5,1
    3b54:	f8942623          	sw	s1,-116(s0)
    3b58:	fff4c513          	not	a0,s1
    3b5c:	00157513          	andi	a0,a0,1
    3b60:	719000ef          	jal	4a78 <set_uart_ID>
    3b64:	01f4d793          	srli	a5,s1,0x1f
    3b68:	00f484b3          	add	s1,s1,a5
    3b6c:	0014f493          	andi	s1,s1,1
    3b70:	40f484b3          	sub	s1,s1,a5
    3b74:	00148593          	addi	a1,s1,1
    3b78:	f8b42e23          	sw	a1,-100(s0)
    3b7c:	01fad793          	srli	a5,s5,0x1f
    3b80:	015787b3          	add	a5,a5,s5
    3b84:	4017d793          	srai	a5,a5,0x1
    3b88:	00178793          	addi	a5,a5,1
    3b8c:	f8f42c23          	sw	a5,-104(s0)
    3b90:	00078613          	mv	a2,a5
    3b94:	000217b7          	lui	a5,0x21
    3b98:	f2c78513          	addi	a0,a5,-212 # 20f2c <__clz_tab+0xc04>
    3b9c:	285000ef          	jal	4620 <printf>
    3ba0:	00048513          	mv	a0,s1
    3ba4:	6d5000ef          	jal	4a78 <set_uart_ID>
    3ba8:	00a00b93          	li	s7,10
    3bac:	06400c93          	li	s9,100
    3bb0:	d49ff06f          	j	38f8 <Hit_and_Blow+0x1e0>
    3bb4:	f8c42783          	lw	a5,-116(s0)
    3bb8:	0017f793          	andi	a5,a5,1
    3bbc:	00178493          	addi	s1,a5,1
    3bc0:	cc1ff06f          	j	3880 <Hit_and_Blow+0x168>
    3bc4:	00190913          	addi	s2,s2,1
    3bc8:	00448493          	addi	s1,s1,4
    3bcc:	bc9ff06f          	j	3794 <Hit_and_Blow+0x7c>

00003bd0 <Hit_and_Blow_2_print>:
    3bd0:	fe010113          	addi	sp,sp,-32
    3bd4:	00112e23          	sw	ra,28(sp)
    3bd8:	00812c23          	sw	s0,24(sp)
    3bdc:	00912a23          	sw	s1,20(sp)
    3be0:	01212823          	sw	s2,16(sp)
    3be4:	01312623          	sw	s3,12(sp)
    3be8:	01412423          	sw	s4,8(sp)
    3bec:	00050493          	mv	s1,a0
    3bf0:	00f00413          	li	s0,15
    3bf4:	03000a13          	li	s4,48
    3bf8:	03100993          	li	s3,49
    3bfc:	fff00913          	li	s2,-1
    3c00:	0140006f          	j	3c14 <Hit_and_Blow_2_print+0x44>
    3c04:	000a0513          	mv	a0,s4
    3c08:	1e5000ef          	jal	45ec <putchar>
    3c0c:	fff40413          	addi	s0,s0,-1
    3c10:	03240063          	beq	s0,s2,3c30 <Hit_and_Blow_2_print+0x60>
    3c14:	0004d783          	lhu	a5,0(s1)
    3c18:	4087d7b3          	sra	a5,a5,s0
    3c1c:	0017f793          	andi	a5,a5,1
    3c20:	fe0782e3          	beqz	a5,3c04 <Hit_and_Blow_2_print+0x34>
    3c24:	00098513          	mv	a0,s3
    3c28:	1c5000ef          	jal	45ec <putchar>
    3c2c:	fe1ff06f          	j	3c0c <Hit_and_Blow_2_print+0x3c>
    3c30:	0064d683          	lhu	a3,6(s1)
    3c34:	0044d603          	lhu	a2,4(s1)
    3c38:	0024d583          	lhu	a1,2(s1)
    3c3c:	00021537          	lui	a0,0x21
    3c40:	02050513          	addi	a0,a0,32 # 21020 <__clz_tab+0xcf8>
    3c44:	1dd000ef          	jal	4620 <printf>
    3c48:	01c12083          	lw	ra,28(sp)
    3c4c:	01812403          	lw	s0,24(sp)
    3c50:	01412483          	lw	s1,20(sp)
    3c54:	01012903          	lw	s2,16(sp)
    3c58:	00c12983          	lw	s3,12(sp)
    3c5c:	00812a03          	lw	s4,8(sp)
    3c60:	02010113          	addi	sp,sp,32
    3c64:	00008067          	ret

00003c68 <Hit_and_Blow_2>:
    3c68:	ec010113          	addi	sp,sp,-320
    3c6c:	12112e23          	sw	ra,316(sp)
    3c70:	12812c23          	sw	s0,312(sp)
    3c74:	12912a23          	sw	s1,308(sp)
    3c78:	13212823          	sw	s2,304(sp)
    3c7c:	13312623          	sw	s3,300(sp)
    3c80:	13412423          	sw	s4,296(sp)
    3c84:	13512223          	sw	s5,292(sp)
    3c88:	13612023          	sw	s6,288(sp)
    3c8c:	11712e23          	sw	s7,284(sp)
    3c90:	11812c23          	sw	s8,280(sp)
    3c94:	11912a23          	sw	s9,276(sp)
    3c98:	11a12823          	sw	s10,272(sp)
    3c9c:	11b12623          	sw	s11,268(sp)
    3ca0:	00021537          	lui	a0,0x21
    3ca4:	03c50513          	addi	a0,a0,60 # 2103c <__clz_tab+0xd14>
    3ca8:	119000ef          	jal	45c0 <puts>
    3cac:	00000513          	li	a0,0
    3cb0:	5c9000ef          	jal	4a78 <set_uart_ID>
    3cb4:	00021537          	lui	a0,0x21
    3cb8:	04450513          	addi	a0,a0,68 # 21044 <__clz_tab+0xd1c>
    3cbc:	105000ef          	jal	45c0 <puts>
    3cc0:	000227b7          	lui	a5,0x22
    3cc4:	5f47a783          	lw	a5,1524(a5) # 225f4 <io_getch>
    3cc8:	000780e7          	jalr	a5
    3ccc:	000227b7          	lui	a5,0x22
    3cd0:	6047a783          	lw	a5,1540(a5) # 22604 <gpio>
    3cd4:	0007a783          	lw	a5,0(a5)
    3cd8:	00f12623          	sw	a5,12(sp)
    3cdc:	01010b93          	addi	s7,sp,16
    3ce0:	00100713          	li	a4,1
    3ce4:	00e12423          	sw	a4,8(sp)
    3ce8:	00022db7          	lui	s11,0x22
    3cec:	01079c93          	slli	s9,a5,0x10
    3cf0:	010cdc93          	srli	s9,s9,0x10
    3cf4:	1880006f          	j	3e7c <Hit_and_Blow_2+0x214>
    3cf8:	00021537          	lui	a0,0x21
    3cfc:	0cc50513          	addi	a0,a0,204 # 210cc <__clz_tab+0xda4>
    3d00:	0c1000ef          	jal	45c0 <puts>
    3d04:	00f00413          	li	s0,15
    3d08:	00c15483          	lhu	s1,12(sp)
    3d0c:	03000a93          	li	s5,48
    3d10:	03100a13          	li	s4,49
    3d14:	000219b7          	lui	s3,0x21
    3d18:	fff00913          	li	s2,-1
    3d1c:	01c0006f          	j	3d38 <Hit_and_Blow_2+0xd0>
    3d20:	000a8513          	mv	a0,s5
    3d24:	0c9000ef          	jal	45ec <putchar>
    3d28:	10098513          	addi	a0,s3,256 # 21100 <__clz_tab+0xdd8>
    3d2c:	095000ef          	jal	45c0 <puts>
    3d30:	fff40413          	addi	s0,s0,-1
    3d34:	21240063          	beq	s0,s2,3f34 <Hit_and_Blow_2+0x2cc>
    3d38:	4084d7b3          	sra	a5,s1,s0
    3d3c:	0017f793          	andi	a5,a5,1
    3d40:	fe0780e3          	beqz	a5,3d20 <Hit_and_Blow_2+0xb8>
    3d44:	000a0513          	mv	a0,s4
    3d48:	0a5000ef          	jal	45ec <putchar>
    3d4c:	fddff06f          	j	3d28 <Hit_and_Blow_2+0xc0>
    3d50:	5f4aa783          	lw	a5,1524(s5)
    3d54:	000780e7          	jalr	a5
    3d58:	15a50e63          	beq	a0,s10,3eb4 <Hit_and_Blow_2+0x24c>
    3d5c:	000217b7          	lui	a5,0x21
    3d60:	15078513          	addi	a0,a5,336 # 21150 <__clz_tab+0xe28>
    3d64:	0bd000ef          	jal	4620 <printf>
    3d68:	60cda783          	lw	a5,1548(s11) # 2260c <_impure_ptr>
    3d6c:	0087a503          	lw	a0,8(a5)
    3d70:	009040ef          	jal	8578 <fflush>
    3d74:	00f00493          	li	s1,15
    3d78:	00000913          	li	s2,0
    3d7c:	00000993          	li	s3,0
    3d80:	00000a13          	li	s4,0
    3d84:	00000413          	li	s0,0
    3d88:	5f4aa783          	lw	a5,1524(s5)
    3d8c:	000780e7          	jalr	a5
    3d90:	fd6500e3          	beq	a0,s6,3d50 <Hit_and_Blow_2+0xe8>
    3d94:	fd050793          	addi	a5,a0,-48
    3d98:	0ff7f793          	zext.b	a5,a5
    3d9c:	fcfc60e3          	bltu	s8,a5,3d5c <Hit_and_Blow_2+0xf4>
    3da0:	00141413          	slli	s0,s0,0x1
    3da4:	01041413          	slli	s0,s0,0x10
    3da8:	01045413          	srli	s0,s0,0x10
    3dac:	fd050793          	addi	a5,a0,-48
    3db0:	00f46433          	or	s0,s0,a5
    3db4:	01041413          	slli	s0,s0,0x10
    3db8:	01045413          	srli	s0,s0,0x10
    3dbc:	409cd733          	sra	a4,s9,s1
    3dc0:	00e547b3          	xor	a5,a0,a4
    3dc4:	0017f793          	andi	a5,a5,1
    3dc8:	0017b793          	seqz	a5,a5
    3dcc:	00f90933          	add	s2,s2,a5
    3dd0:	00e577b3          	and	a5,a0,a4
    3dd4:	0017f793          	andi	a5,a5,1
    3dd8:	00f989b3          	add	s3,s3,a5
    3ddc:	00e56533          	or	a0,a0,a4
    3de0:	00157513          	andi	a0,a0,1
    3de4:	00aa0a33          	add	s4,s4,a0
    3de8:	fff48493          	addi	s1,s1,-1
    3dec:	f804dee3          	bgez	s1,3d88 <Hit_and_Blow_2+0x120>
    3df0:	008b9023          	sh	s0,0(s7)
    3df4:	000237b7          	lui	a5,0x23
    3df8:	8927a223          	sw	s2,-1916(a5) # 22884 <HiB_hit>
    3dfc:	012b9123          	sh	s2,2(s7)
    3e00:	000237b7          	lui	a5,0x23
    3e04:	8937a023          	sw	s3,-1920(a5) # 22880 <HiB_and>
    3e08:	013b9223          	sh	s3,4(s7)
    3e0c:	000237b7          	lui	a5,0x23
    3e10:	8747ae23          	sw	s4,-1924(a5) # 2287c <HiB_or>
    3e14:	014b9323          	sh	s4,6(s7)
    3e18:	000a0713          	mv	a4,s4
    3e1c:	00098693          	mv	a3,s3
    3e20:	00090613          	mv	a2,s2
    3e24:	00040593          	mv	a1,s0
    3e28:	00021537          	lui	a0,0x21
    3e2c:	18050513          	addi	a0,a0,384 # 21180 <__clz_tab+0xe58>
    3e30:	7f0000ef          	jal	4620 <printf>
    3e34:	000b8513          	mv	a0,s7
    3e38:	d99ff0ef          	jal	3bd0 <Hit_and_Blow_2_print>
    3e3c:	3e800513          	li	a0,1000
    3e40:	5ec010ef          	jal	542c <set_mtimer_interval>
    3e44:	00023737          	lui	a4,0x23
    3e48:	000017b7          	lui	a5,0x1
    3e4c:	09078793          	addi	a5,a5,144 # 1090 <Hit_and_Blow_2_timer_handler>
    3e50:	88f72c23          	sw	a5,-1896(a4) # 22898 <timer_interrupt_hook>
    3e54:	624010ef          	jal	5478 <enable_timer_interrupt>
    3e58:	01000793          	li	a5,16
    3e5c:	0cf90263          	beq	s2,a5,3f20 <Hit_and_Blow_2+0x2b8>
    3e60:	00812783          	lw	a5,8(sp)
    3e64:	00178793          	addi	a5,a5,1
    3e68:	00078713          	mv	a4,a5
    3e6c:	00f12423          	sw	a5,8(sp)
    3e70:	008b8b93          	addi	s7,s7,8
    3e74:	01f00793          	li	a5,31
    3e78:	e8f700e3          	beq	a4,a5,3cf8 <Hit_and_Blow_2+0x90>
    3e7c:	00812583          	lw	a1,8(sp)
    3e80:	000217b7          	lui	a5,0x21
    3e84:	10878513          	addi	a0,a5,264 # 21108 <__clz_tab+0xde0>
    3e88:	798000ef          	jal	4620 <printf>
    3e8c:	00000913          	li	s2,0
    3e90:	00000993          	li	s3,0
    3e94:	00000a13          	li	s4,0
    3e98:	00f00493          	li	s1,15
    3e9c:	00000413          	li	s0,0
    3ea0:	00022ab7          	lui	s5,0x22
    3ea4:	06400b13          	li	s6,100
    3ea8:	00100c13          	li	s8,1
    3eac:	06100d13          	li	s10,97
    3eb0:	ed9ff06f          	j	3d88 <Hit_and_Blow_2+0x120>
    3eb4:	000227b7          	lui	a5,0x22
    3eb8:	5f47a783          	lw	a5,1524(a5) # 225f4 <io_getch>
    3ebc:	000780e7          	jalr	a5
    3ec0:	07400793          	li	a5,116
    3ec4:	e8f51ce3          	bne	a0,a5,3d5c <Hit_and_Blow_2+0xf4>
    3ec8:	000227b7          	lui	a5,0x22
    3ecc:	5f47a783          	lw	a5,1524(a5) # 225f4 <io_getch>
    3ed0:	000780e7          	jalr	a5
    3ed4:	06100793          	li	a5,97
    3ed8:	e8f512e3          	bne	a0,a5,3d5c <Hit_and_Blow_2+0xf4>
    3edc:	000227b7          	lui	a5,0x22
    3ee0:	5f47a783          	lw	a5,1524(a5) # 225f4 <io_getch>
    3ee4:	000780e7          	jalr	a5
    3ee8:	00a00793          	li	a5,10
    3eec:	e6f518e3          	bne	a0,a5,3d5c <Hit_and_Blow_2+0xf4>
    3ef0:	00812783          	lw	a5,8(sp)
    3ef4:	fff78793          	addi	a5,a5,-1
    3ef8:	e6f052e3          	blez	a5,3d5c <Hit_and_Blow_2+0xf4>
    3efc:	01010413          	addi	s0,sp,16
    3f00:	000214b7          	lui	s1,0x21
    3f04:	00048513          	mv	a0,s1
    3f08:	718000ef          	jal	4620 <printf>
    3f0c:	00040513          	mv	a0,s0
    3f10:	cc1ff0ef          	jal	3bd0 <Hit_and_Blow_2_print>
    3f14:	00840413          	addi	s0,s0,8
    3f18:	ff7416e3          	bne	s0,s7,3f04 <Hit_and_Blow_2+0x29c>
    3f1c:	e41ff06f          	j	3d5c <Hit_and_Blow_2+0xf4>
    3f20:	00021537          	lui	a0,0x21
    3f24:	19050513          	addi	a0,a0,400 # 21190 <__clz_tab+0xe68>
    3f28:	6f8000ef          	jal	4620 <printf>
    3f2c:	08000793          	li	a5,128
    3f30:	3047b073          	csrc	mie,a5
    3f34:	00812503          	lw	a0,8(sp)
    3f38:	13c12083          	lw	ra,316(sp)
    3f3c:	13812403          	lw	s0,312(sp)
    3f40:	13412483          	lw	s1,308(sp)
    3f44:	13012903          	lw	s2,304(sp)
    3f48:	12c12983          	lw	s3,300(sp)
    3f4c:	12812a03          	lw	s4,296(sp)
    3f50:	12412a83          	lw	s5,292(sp)
    3f54:	12012b03          	lw	s6,288(sp)
    3f58:	11c12b83          	lw	s7,284(sp)
    3f5c:	11812c03          	lw	s8,280(sp)
    3f60:	11412c83          	lw	s9,276(sp)
    3f64:	11012d03          	lw	s10,272(sp)
    3f68:	10c12d83          	lw	s11,268(sp)
    3f6c:	14010113          	addi	sp,sp,320
    3f70:	00008067          	ret

00003f74 <main>:
    3f74:	fd010113          	addi	sp,sp,-48
    3f78:	02112623          	sw	ra,44(sp)
    3f7c:	02812423          	sw	s0,40(sp)
    3f80:	02912223          	sw	s1,36(sp)
    3f84:	03212023          	sw	s2,32(sp)
    3f88:	01312e23          	sw	s3,28(sp)
    3f8c:	01412c23          	sw	s4,24(sp)
    3f90:	01512a23          	sw	s5,20(sp)
    3f94:	000107a3          	sb	zero,15(sp)
    3f98:	00100413          	li	s0,1
    3f9c:	00812423          	sw	s0,8(sp)
    3fa0:	000227b7          	lui	a5,0x22
    3fa4:	6047a783          	lw	a5,1540(a5) # 22604 <gpio>
    3fa8:	0007a023          	sw	zero,0(a5)
    3fac:	00000513          	li	a0,0
    3fb0:	2c9000ef          	jal	4a78 <set_uart_ID>
    3fb4:	000224b7          	lui	s1,0x22
    3fb8:	05c48493          	addi	s1,s1,92 # 2205c <game_list>
    3fbc:	00048993          	mv	s3,s1
    3fc0:	00021ab7          	lui	s5,0x21
    3fc4:	00700a13          	li	s4,7
    3fc8:	0049a603          	lw	a2,4(s3)
    3fcc:	00040593          	mv	a1,s0
    3fd0:	198a8513          	addi	a0,s5,408 # 21198 <__clz_tab+0xe70>
    3fd4:	64c000ef          	jal	4620 <printf>
    3fd8:	00140413          	addi	s0,s0,1
    3fdc:	00498993          	addi	s3,s3,4
    3fe0:	ff4414e3          	bne	s0,s4,3fc8 <main+0x54>
    3fe4:	00100513          	li	a0,1
    3fe8:	291000ef          	jal	4a78 <set_uart_ID>
    3fec:	00100413          	li	s0,1
    3ff0:	00021a37          	lui	s4,0x21
    3ff4:	00700993          	li	s3,7
    3ff8:	0044a603          	lw	a2,4(s1)
    3ffc:	00040593          	mv	a1,s0
    4000:	198a0513          	addi	a0,s4,408 # 21198 <__clz_tab+0xe70>
    4004:	61c000ef          	jal	4620 <printf>
    4008:	00140413          	addi	s0,s0,1
    400c:	00448493          	addi	s1,s1,4
    4010:	ff3414e3          	bne	s0,s3,3ff8 <main+0x84>
    4014:	00100513          	li	a0,1
    4018:	261000ef          	jal	4a78 <set_uart_ID>
    401c:	00021537          	lui	a0,0x21
    4020:	1a050513          	addi	a0,a0,416 # 211a0 <__clz_tab+0xe78>
    4024:	59c000ef          	jal	45c0 <puts>
    4028:	00000513          	li	a0,0
    402c:	24d000ef          	jal	4a78 <set_uart_ID>
    4030:	00021537          	lui	a0,0x21
    4034:	1d850513          	addi	a0,a0,472 # 211d8 <__clz_tab+0xeb0>
    4038:	5e8000ef          	jal	4620 <printf>
    403c:	00810a13          	addi	s4,sp,8
    4040:	00f10993          	addi	s3,sp,15
    4044:	00500493          	li	s1,5
    4048:	000a0593          	mv	a1,s4
    404c:	00098513          	mv	a0,s3
    4050:	d84fd0ef          	jal	15d4 <store_input>
    4054:	00f14403          	lbu	s0,15(sp)
    4058:	fcf40793          	addi	a5,s0,-49
    405c:	0ff7f793          	zext.b	a5,a5
    4060:	fef4e4e3          	bltu	s1,a5,4048 <main+0xd4>
    4064:	00a00513          	li	a0,10
    4068:	584000ef          	jal	45ec <putchar>
    406c:	fd040413          	addi	s0,s0,-48
    4070:	00600793          	li	a5,6
    4074:	0287e263          	bltu	a5,s0,4098 <main+0x124>
    4078:	00241413          	slli	s0,s0,0x2
    407c:	000207b7          	lui	a5,0x20
    4080:	0c478793          	addi	a5,a5,196 # 200c4 <DATA_START+0xc4>
    4084:	00f40433          	add	s0,s0,a5
    4088:	00042783          	lw	a5,0(s0)
    408c:	00078067          	jr	a5
    4090:	e38fd0ef          	jal	16c8 <Mancala>
    4094:	00050913          	mv	s2,a0
    4098:	00100793          	li	a5,1
    409c:	0cf90863          	beq	s2,a5,416c <main+0x1f8>
    40a0:	00200793          	li	a5,2
    40a4:	18f90c63          	beq	s2,a5,423c <main+0x2c8>
    40a8:	1c091663          	bnez	s2,4274 <main+0x300>
    40ac:	00000513          	li	a0,0
    40b0:	1c9000ef          	jal	4a78 <set_uart_ID>
    40b4:	00021437          	lui	s0,0x21
    40b8:	22040513          	addi	a0,s0,544 # 21220 <__clz_tab+0xef8>
    40bc:	504000ef          	jal	45c0 <puts>
    40c0:	00100513          	li	a0,1
    40c4:	1b5000ef          	jal	4a78 <set_uart_ID>
    40c8:	22040513          	addi	a0,s0,544
    40cc:	4f4000ef          	jal	45c0 <puts>
    40d0:	05e00713          	li	a4,94
    40d4:	505ca7b7          	lui	a5,0x505ca
    40d8:	c1078793          	addi	a5,a5,-1008 # 505c9c10 <stack_bot+0x505a4c10>
    40dc:	0c00006f          	j	419c <main+0x228>
    40e0:	eb1fd0ef          	jal	1f90 <Yacht>
    40e4:	00050913          	mv	s2,a0
    40e8:	fb1ff06f          	j	4098 <main+0x124>
    40ec:	b58fe0ef          	jal	2444 <Speed>
    40f0:	00050913          	mv	s2,a0
    40f4:	fa5ff06f          	j	4098 <main+0x124>
    40f8:	ec4fe0ef          	jal	27bc <Nine_Mens_Morris>
    40fc:	00050913          	mv	s2,a0
    4100:	f99ff06f          	j	4098 <main+0x124>
    4104:	e14ff0ef          	jal	3718 <Hit_and_Blow>
    4108:	00050913          	mv	s2,a0
    410c:	f8dff06f          	j	4098 <main+0x124>
    4110:	b59ff0ef          	jal	3c68 <Hit_and_Blow_2>
    4114:	00050413          	mv	s0,a0
    4118:	8d8fd0ef          	jal	11f0 <print_segment_int>
    411c:	01e00793          	li	a5,30
    4120:	0287d463          	bge	a5,s0,4148 <main+0x1d4>
    4124:	000227b7          	lui	a5,0x22
    4128:	6047a703          	lw	a4,1540(a5) # 22604 <gpio>
    412c:	461c57b7          	lui	a5,0x461c5
    4130:	05478793          	addi	a5,a5,84 # 461c5054 <stack_bot+0x461a0054>
    4134:	00f72423          	sw	a5,8(a4)
    4138:	5c1c87b7          	lui	a5,0x5c1c8
    413c:	95078793          	addi	a5,a5,-1712 # 5c1c7950 <stack_bot+0x5c1a2950>
    4140:	00f72223          	sw	a5,4(a4)
    4144:	0840006f          	j	41c8 <main+0x254>
    4148:	000227b7          	lui	a5,0x22
    414c:	6047a703          	lw	a4,1540(a5) # 22604 <gpio>
    4150:	000237b7          	lui	a5,0x23
    4154:	88c7a783          	lw	a5,-1908(a5) # 2288c <N0>
    4158:	00f72423          	sw	a5,8(a4)
    415c:	461c57b7          	lui	a5,0x461c5
    4160:	05478793          	addi	a5,a5,84 # 461c5054 <stack_bot+0x461a0054>
    4164:	00f72223          	sw	a5,4(a4)
    4168:	0600006f          	j	41c8 <main+0x254>
    416c:	00000513          	li	a0,0
    4170:	109000ef          	jal	4a78 <set_uart_ID>
    4174:	00021437          	lui	s0,0x21
    4178:	20040513          	addi	a0,s0,512 # 21200 <__clz_tab+0xed8>
    417c:	444000ef          	jal	45c0 <puts>
    4180:	00100513          	li	a0,1
    4184:	0f5000ef          	jal	4a78 <set_uart_ID>
    4188:	20040513          	addi	a0,s0,512
    418c:	434000ef          	jal	45c0 <puts>
    4190:	60000713          	li	a4,1536
    4194:	be3017b7          	lui	a5,0xbe301
    4198:	05478793          	addi	a5,a5,84 # be301054 <stack_bot+0xbe2dc054>
    419c:	000236b7          	lui	a3,0x23
    41a0:	88e6a823          	sw	a4,-1904(a3) # 22890 <N1>
    41a4:	00023737          	lui	a4,0x23
    41a8:	88f72623          	sw	a5,-1908(a4) # 2288c <N0>
    41ac:	12c00513          	li	a0,300
    41b0:	27c010ef          	jal	542c <set_mtimer_interval>
    41b4:	00023737          	lui	a4,0x23
    41b8:	000017b7          	lui	a5,0x1
    41bc:	04478793          	addi	a5,a5,68 # 1044 <timer_handler>
    41c0:	88f72c23          	sw	a5,-1896(a4) # 22898 <timer_interrupt_hook>
    41c4:	2b4010ef          	jal	5478 <enable_timer_interrupt>
    41c8:	00000513          	li	a0,0
    41cc:	0ad000ef          	jal	4a78 <set_uart_ID>
    41d0:	00021537          	lui	a0,0x21
    41d4:	23050513          	addi	a0,a0,560 # 21230 <__clz_tab+0xf08>
    41d8:	3e8000ef          	jal	45c0 <puts>
    41dc:	000227b7          	lui	a5,0x22
    41e0:	5f47a783          	lw	a5,1524(a5) # 225f4 <io_getch>
    41e4:	000780e7          	jalr	a5
    41e8:	00000513          	li	a0,0
    41ec:	08d000ef          	jal	4a78 <set_uart_ID>
    41f0:	00021437          	lui	s0,0x21
    41f4:	25840513          	addi	a0,s0,600 # 21258 <__clz_tab+0xf30>
    41f8:	3c8000ef          	jal	45c0 <puts>
    41fc:	00100513          	li	a0,1
    4200:	079000ef          	jal	4a78 <set_uart_ID>
    4204:	25840513          	addi	a0,s0,600
    4208:	3b8000ef          	jal	45c0 <puts>
    420c:	08000793          	li	a5,128
    4210:	3047b073          	csrc	mie,a5
    4214:	00000513          	li	a0,0
    4218:	02c12083          	lw	ra,44(sp)
    421c:	02812403          	lw	s0,40(sp)
    4220:	02412483          	lw	s1,36(sp)
    4224:	02012903          	lw	s2,32(sp)
    4228:	01c12983          	lw	s3,28(sp)
    422c:	01812a03          	lw	s4,24(sp)
    4230:	01412a83          	lw	s5,20(sp)
    4234:	03010113          	addi	sp,sp,48
    4238:	00008067          	ret
    423c:	00000513          	li	a0,0
    4240:	039000ef          	jal	4a78 <set_uart_ID>
    4244:	00021437          	lui	s0,0x21
    4248:	21040513          	addi	a0,s0,528 # 21210 <__clz_tab+0xee8>
    424c:	374000ef          	jal	45c0 <puts>
    4250:	00100513          	li	a0,1
    4254:	025000ef          	jal	4a78 <set_uart_ID>
    4258:	21040513          	addi	a0,s0,528
    425c:	364000ef          	jal	45c0 <puts>
    4260:	00006737          	lui	a4,0x6
    4264:	b0070713          	addi	a4,a4,-1280 # 5b00 <__divdi3+0x544>
    4268:	be3017b7          	lui	a5,0xbe301
    426c:	05478793          	addi	a5,a5,84 # be301054 <stack_bot+0xbe2dc054>
    4270:	f2dff06f          	j	419c <main+0x228>
    4274:	00000513          	li	a0,0
    4278:	001000ef          	jal	4a78 <set_uart_ID>
    427c:	00021437          	lui	s0,0x21
    4280:	22840513          	addi	a0,s0,552 # 21228 <__clz_tab+0xf00>
    4284:	33c000ef          	jal	45c0 <puts>
    4288:	00100513          	li	a0,1
    428c:	7ec000ef          	jal	4a78 <set_uart_ID>
    4290:	22840513          	addi	a0,s0,552
    4294:	32c000ef          	jal	45c0 <puts>
    4298:	07900713          	li	a4,121
    429c:	505067b7          	lui	a5,0x50506
    42a0:	c5078793          	addi	a5,a5,-944 # 50505c50 <stack_bot+0x504e0c50>
    42a4:	ef9ff06f          	j	419c <main+0x228>

000042a8 <puthex>:
    42a8:	fe010113          	addi	sp,sp,-32
    42ac:	00112e23          	sw	ra,28(sp)
    42b0:	00912a23          	sw	s1,20(sp)
    42b4:	01312623          	sw	s3,12(sp)
    42b8:	00050993          	mv	s3,a0
    42bc:	00060493          	mv	s1,a2
    42c0:	06059863          	bnez	a1,4330 <puthex+0x88>
    42c4:	06058263          	beqz	a1,4328 <puthex+0x80>
    42c8:	00812c23          	sw	s0,24(sp)
    42cc:	01212823          	sw	s2,16(sp)
    42d0:	fff68413          	addi	s0,a3,-1
    42d4:	00022937          	lui	s2,0x22
    42d8:	06805c63          	blez	s0,4350 <puthex+0xa8>
    42dc:	5f892783          	lw	a5,1528(s2) # 225f8 <io_putch>
    42e0:	00048513          	mv	a0,s1
    42e4:	000780e7          	jalr	a5
    42e8:	fff40413          	addi	s0,s0,-1
    42ec:	fe0418e3          	bnez	s0,42dc <puthex+0x34>
    42f0:	01812403          	lw	s0,24(sp)
    42f4:	01012903          	lw	s2,16(sp)
    42f8:	00f9f513          	andi	a0,s3,15
    42fc:	00900793          	li	a5,9
    4300:	04a7ee63          	bltu	a5,a0,435c <puthex+0xb4>
    4304:	000227b7          	lui	a5,0x22
    4308:	5f87a783          	lw	a5,1528(a5) # 225f8 <io_putch>
    430c:	03050513          	addi	a0,a0,48
    4310:	000780e7          	jalr	a5
    4314:	01c12083          	lw	ra,28(sp)
    4318:	01412483          	lw	s1,20(sp)
    431c:	00c12983          	lw	s3,12(sp)
    4320:	02010113          	addi	sp,sp,32
    4324:	00008067          	ret
    4328:	00f00793          	li	a5,15
    432c:	f8a7fee3          	bgeu	a5,a0,42c8 <puthex+0x20>
    4330:	01c59793          	slli	a5,a1,0x1c
    4334:	0049d513          	srli	a0,s3,0x4
    4338:	fff68693          	addi	a3,a3,-1
    433c:	00048613          	mv	a2,s1
    4340:	00a7e533          	or	a0,a5,a0
    4344:	0045d593          	srli	a1,a1,0x4
    4348:	f61ff0ef          	jal	42a8 <puthex>
    434c:	fadff06f          	j	42f8 <puthex+0x50>
    4350:	01812403          	lw	s0,24(sp)
    4354:	01012903          	lw	s2,16(sp)
    4358:	fa1ff06f          	j	42f8 <puthex+0x50>
    435c:	000227b7          	lui	a5,0x22
    4360:	5f87a783          	lw	a5,1528(a5) # 225f8 <io_putch>
    4364:	05750513          	addi	a0,a0,87
    4368:	000780e7          	jalr	a5
    436c:	fa9ff06f          	j	4314 <puthex+0x6c>

00004370 <putdec>:
    4370:	fe010113          	addi	sp,sp,-32
    4374:	00112e23          	sw	ra,28(sp)
    4378:	00812c23          	sw	s0,24(sp)
    437c:	00912a23          	sw	s1,20(sp)
    4380:	01312623          	sw	s3,12(sp)
    4384:	01412423          	sw	s4,8(sp)
    4388:	01512223          	sw	s5,4(sp)
    438c:	00050a13          	mv	s4,a0
    4390:	00058993          	mv	s3,a1
    4394:	00060a93          	mv	s5,a2
    4398:	00068493          	mv	s1,a3
    439c:	04b04463          	bgtz	a1,43e4 <putdec+0x74>
    43a0:	02058e63          	beqz	a1,43dc <putdec+0x6c>
    43a4:	01212823          	sw	s2,16(sp)
    43a8:	fff70413          	addi	s0,a4,-1
    43ac:	00022937          	lui	s2,0x22
    43b0:	00805c63          	blez	s0,43c8 <putdec+0x58>
    43b4:	5f892783          	lw	a5,1528(s2) # 225f8 <io_putch>
    43b8:	00048513          	mv	a0,s1
    43bc:	000780e7          	jalr	a5
    43c0:	fff40413          	addi	s0,s0,-1
    43c4:	fe0418e3          	bnez	s0,43b4 <putdec+0x44>
    43c8:	060a8063          	beqz	s5,4428 <putdec+0xb8>
    43cc:	02000793          	li	a5,32
    43d0:	04f48063          	beq	s1,a5,4410 <putdec+0xa0>
    43d4:	01012903          	lw	s2,16(sp)
    43d8:	0540006f          	j	442c <putdec+0xbc>
    43dc:	00900793          	li	a5,9
    43e0:	fca7f2e3          	bgeu	a5,a0,43a4 <putdec+0x34>
    43e4:	fff70413          	addi	s0,a4,-1
    43e8:	00a00613          	li	a2,10
    43ec:	00000693          	li	a3,0
    43f0:	000a0513          	mv	a0,s4
    43f4:	00098593          	mv	a1,s3
    43f8:	1c4010ef          	jal	55bc <__divdi3>
    43fc:	00040713          	mv	a4,s0
    4400:	00048693          	mv	a3,s1
    4404:	000a8613          	mv	a2,s5
    4408:	f69ff0ef          	jal	4370 <putdec>
    440c:	0200006f          	j	442c <putdec+0xbc>
    4410:	000227b7          	lui	a5,0x22
    4414:	5f87a783          	lw	a5,1528(a5) # 225f8 <io_putch>
    4418:	02d00513          	li	a0,45
    441c:	000780e7          	jalr	a5
    4420:	01012903          	lw	s2,16(sp)
    4424:	0080006f          	j	442c <putdec+0xbc>
    4428:	01012903          	lw	s2,16(sp)
    442c:	00a00613          	li	a2,10
    4430:	00000693          	li	a3,0
    4434:	000a0513          	mv	a0,s4
    4438:	00098593          	mv	a1,s3
    443c:	790010ef          	jal	5bcc <__moddi3>
    4440:	03050513          	addi	a0,a0,48
    4444:	000227b7          	lui	a5,0x22
    4448:	5f87a783          	lw	a5,1528(a5) # 225f8 <io_putch>
    444c:	0ff57513          	zext.b	a0,a0
    4450:	000780e7          	jalr	a5
    4454:	01c12083          	lw	ra,28(sp)
    4458:	01812403          	lw	s0,24(sp)
    445c:	01412483          	lw	s1,20(sp)
    4460:	00c12983          	lw	s3,12(sp)
    4464:	00812a03          	lw	s4,8(sp)
    4468:	00412a83          	lw	s5,4(sp)
    446c:	02010113          	addi	sp,sp,32
    4470:	00008067          	ret

00004474 <putfloat>:
    4474:	fd010113          	addi	sp,sp,-48
    4478:	02112623          	sw	ra,44(sp)
    447c:	02812423          	sw	s0,40(sp)
    4480:	02912223          	sw	s1,36(sp)
    4484:	03212023          	sw	s2,32(sp)
    4488:	01312e23          	sw	s3,28(sp)
    448c:	01412c23          	sw	s4,24(sp)
    4490:	01512a23          	sw	s5,20(sp)
    4494:	01812423          	sw	s8,8(sp)
    4498:	00050493          	mv	s1,a0
    449c:	00058413          	mv	s0,a1
    44a0:	00060c13          	mv	s8,a2
    44a4:	000227b7          	lui	a5,0x22
    44a8:	5b07a603          	lw	a2,1456(a5) # 225b0 <__malloc_av_+0x408>
    44ac:	5b47a683          	lw	a3,1460(a5)
    44b0:	464020ef          	jal	6914 <__gedf2>
    44b4:	06055863          	bgez	a0,4524 <putfloat+0xb0>
    44b8:	00048513          	mv	a0,s1
    44bc:	00040593          	mv	a1,s0
    44c0:	3e8030ef          	jal	78a8 <__fixunsdfdi>
    44c4:	00050a93          	mv	s5,a0
    44c8:	00058a13          	mv	s4,a1
    44cc:	000c0713          	mv	a4,s8
    44d0:	03000693          	li	a3,48
    44d4:	00000613          	li	a2,0
    44d8:	e99ff0ef          	jal	4370 <putdec>
    44dc:	000a8513          	mv	a0,s5
    44e0:	000a0593          	mv	a1,s4
    44e4:	46c030ef          	jal	7950 <__floatundidf>
    44e8:	00050613          	mv	a2,a0
    44ec:	00058693          	mv	a3,a1
    44f0:	00048513          	mv	a0,s1
    44f4:	00040593          	mv	a1,s0
    44f8:	3a1020ef          	jal	7098 <__subdf3>
    44fc:	02c12083          	lw	ra,44(sp)
    4500:	02812403          	lw	s0,40(sp)
    4504:	02412483          	lw	s1,36(sp)
    4508:	02012903          	lw	s2,32(sp)
    450c:	01c12983          	lw	s3,28(sp)
    4510:	01812a03          	lw	s4,24(sp)
    4514:	01412a83          	lw	s5,20(sp)
    4518:	00812c03          	lw	s8,8(sp)
    451c:	03010113          	addi	sp,sp,48
    4520:	00008067          	ret
    4524:	01612823          	sw	s6,16(sp)
    4528:	01712623          	sw	s7,12(sp)
    452c:	01912223          	sw	s9,4(sp)
    4530:	00022cb7          	lui	s9,0x22
    4534:	5b0ca603          	lw	a2,1456(s9) # 225b0 <__malloc_av_+0x408>
    4538:	5b4ca683          	lw	a3,1460(s9)
    453c:	00048513          	mv	a0,s1
    4540:	00040593          	mv	a1,s0
    4544:	40d010ef          	jal	6150 <__divdf3>
    4548:	000c0613          	mv	a2,s8
    454c:	f29ff0ef          	jal	4474 <putfloat>
    4550:	5b0ca603          	lw	a2,1456(s9)
    4554:	5b4ca683          	lw	a3,1460(s9)
    4558:	48c020ef          	jal	69e4 <__muldf3>
    455c:	00050493          	mv	s1,a0
    4560:	00058413          	mv	s0,a1
    4564:	00900c13          	li	s8,9
    4568:	01012b03          	lw	s6,16(sp)
    456c:	00c12b83          	lw	s7,12(sp)
    4570:	00412c83          	lw	s9,4(sp)
    4574:	f45ff06f          	j	44b8 <putfloat+0x44>

00004578 <putline>:
    4578:	ff010113          	addi	sp,sp,-16
    457c:	00112623          	sw	ra,12(sp)
    4580:	00812423          	sw	s0,8(sp)
    4584:	00150413          	addi	s0,a0,1
    4588:	00054503          	lbu	a0,0(a0)
    458c:	02050263          	beqz	a0,45b0 <putline+0x38>
    4590:	00912223          	sw	s1,4(sp)
    4594:	000224b7          	lui	s1,0x22
    4598:	5f84a783          	lw	a5,1528(s1) # 225f8 <io_putch>
    459c:	000780e7          	jalr	a5
    45a0:	00140413          	addi	s0,s0,1
    45a4:	fff44503          	lbu	a0,-1(s0)
    45a8:	fe0518e3          	bnez	a0,4598 <putline+0x20>
    45ac:	00412483          	lw	s1,4(sp)
    45b0:	00c12083          	lw	ra,12(sp)
    45b4:	00812403          	lw	s0,8(sp)
    45b8:	01010113          	addi	sp,sp,16
    45bc:	00008067          	ret

000045c0 <puts>:
    45c0:	ff010113          	addi	sp,sp,-16
    45c4:	00112623          	sw	ra,12(sp)
    45c8:	fb1ff0ef          	jal	4578 <putline>
    45cc:	000227b7          	lui	a5,0x22
    45d0:	5f87a783          	lw	a5,1528(a5) # 225f8 <io_putch>
    45d4:	00a00513          	li	a0,10
    45d8:	000780e7          	jalr	a5
    45dc:	00100513          	li	a0,1
    45e0:	00c12083          	lw	ra,12(sp)
    45e4:	01010113          	addi	sp,sp,16
    45e8:	00008067          	ret

000045ec <putchar>:
    45ec:	ff010113          	addi	sp,sp,-16
    45f0:	00112623          	sw	ra,12(sp)
    45f4:	00812423          	sw	s0,8(sp)
    45f8:	00050413          	mv	s0,a0
    45fc:	000227b7          	lui	a5,0x22
    4600:	5f87a783          	lw	a5,1528(a5) # 225f8 <io_putch>
    4604:	0ff57513          	zext.b	a0,a0
    4608:	000780e7          	jalr	a5
    460c:	00040513          	mv	a0,s0
    4610:	00c12083          	lw	ra,12(sp)
    4614:	00812403          	lw	s0,8(sp)
    4618:	01010113          	addi	sp,sp,16
    461c:	00008067          	ret

00004620 <printf>:
    4620:	f8010113          	addi	sp,sp,-128
    4624:	04112e23          	sw	ra,92(sp)
    4628:	04812c23          	sw	s0,88(sp)
    462c:	00050413          	mv	s0,a0
    4630:	06b12223          	sw	a1,100(sp)
    4634:	06c12423          	sw	a2,104(sp)
    4638:	06d12623          	sw	a3,108(sp)
    463c:	06e12823          	sw	a4,112(sp)
    4640:	06f12a23          	sw	a5,116(sp)
    4644:	07012c23          	sw	a6,120(sp)
    4648:	07112e23          	sw	a7,124(sp)
    464c:	06410793          	addi	a5,sp,100
    4650:	00f12e23          	sw	a5,28(sp)
    4654:	00054503          	lbu	a0,0(a0)
    4658:	38050663          	beqz	a0,49e4 <printf+0x3c4>
    465c:	04912a23          	sw	s1,84(sp)
    4660:	05212823          	sw	s2,80(sp)
    4664:	05312623          	sw	s3,76(sp)
    4668:	05412423          	sw	s4,72(sp)
    466c:	05512223          	sw	s5,68(sp)
    4670:	05612023          	sw	s6,64(sp)
    4674:	03712e23          	sw	s7,60(sp)
    4678:	03812c23          	sw	s8,56(sp)
    467c:	03912a23          	sw	s9,52(sp)
    4680:	03a12823          	sw	s10,48(sp)
    4684:	00000a13          	li	s4,0
    4688:	02000993          	li	s3,32
    468c:	00012223          	sw	zero,4(sp)
    4690:	00000b93          	li	s7,0
    4694:	00000493          	li	s1,0
    4698:	02500b13          	li	s6,37
    469c:	00022c37          	lui	s8,0x22
    46a0:	03000c93          	li	s9,48
    46a4:	03900a93          	li	s5,57
    46a8:	01500913          	li	s2,21
    46ac:	28c0006f          	j	4938 <printf+0x318>
    46b0:	02f00793          	li	a5,47
    46b4:	02a7f063          	bgeu	a5,a0,46d4 <printf+0xb4>
    46b8:	002a1793          	slli	a5,s4,0x2
    46bc:	014787b3          	add	a5,a5,s4
    46c0:	00179793          	slli	a5,a5,0x1
    46c4:	00a787b3          	add	a5,a5,a0
    46c8:	fd078a13          	addi	s4,a5,-48
    46cc:	00040793          	mv	a5,s0
    46d0:	25c0006f          	j	492c <printf+0x30c>
    46d4:	00040793          	mv	a5,s0
    46d8:	2540006f          	j	492c <printf+0x30c>
    46dc:	00144703          	lbu	a4,1(s0)
    46e0:	06c00793          	li	a5,108
    46e4:	00f70863          	beq	a4,a5,46f4 <printf+0xd4>
    46e8:	00048b93          	mv	s7,s1
    46ec:	00040793          	mv	a5,s0
    46f0:	23c0006f          	j	492c <printf+0x30c>
    46f4:	00140793          	addi	a5,s0,1
    46f8:	00912223          	sw	s1,4(sp)
    46fc:	2300006f          	j	492c <printf+0x30c>
    4700:	00022bb7          	lui	s7,0x22
    4704:	5f8ba783          	lw	a5,1528(s7) # 225f8 <io_putch>
    4708:	03000513          	li	a0,48
    470c:	000780e7          	jalr	a5
    4710:	5f8ba783          	lw	a5,1528(s7)
    4714:	07800513          	li	a0,120
    4718:	000780e7          	jalr	a5
    471c:	01c12783          	lw	a5,28(sp)
    4720:	00478713          	addi	a4,a5,4
    4724:	00e12e23          	sw	a4,28(sp)
    4728:	0007a503          	lw	a0,0(a5)
    472c:	00000593          	li	a1,0
    4730:	00048b93          	mv	s7,s1
    4734:	000a0693          	mv	a3,s4
    4738:	00098613          	mv	a2,s3
    473c:	b6dff0ef          	jal	42a8 <puthex>
    4740:	00040793          	mv	a5,s0
    4744:	00000493          	li	s1,0
    4748:	1e40006f          	j	492c <printf+0x30c>
    474c:	fc0b98e3          	bnez	s7,471c <printf+0xfc>
    4750:	00412783          	lw	a5,4(sp)
    4754:	02078263          	beqz	a5,4778 <printf+0x158>
    4758:	01c12783          	lw	a5,28(sp)
    475c:	00778793          	addi	a5,a5,7
    4760:	ff87f793          	andi	a5,a5,-8
    4764:	00878713          	addi	a4,a5,8
    4768:	00e12e23          	sw	a4,28(sp)
    476c:	0007a503          	lw	a0,0(a5)
    4770:	0047a583          	lw	a1,4(a5)
    4774:	fc1ff06f          	j	4734 <printf+0x114>
    4778:	01c12783          	lw	a5,28(sp)
    477c:	00478713          	addi	a4,a5,4
    4780:	00e12e23          	sw	a4,28(sp)
    4784:	0007a503          	lw	a0,0(a5)
    4788:	00000593          	li	a1,0
    478c:	00412b83          	lw	s7,4(sp)
    4790:	fa5ff06f          	j	4734 <printf+0x114>
    4794:	03b12623          	sw	s11,44(sp)
    4798:	040b8463          	beqz	s7,47e0 <printf+0x1c0>
    479c:	01c12783          	lw	a5,28(sp)
    47a0:	00478713          	addi	a4,a5,4
    47a4:	00e12e23          	sw	a4,28(sp)
    47a8:	0007ad83          	lw	s11,0(a5)
    47ac:	41fddd13          	srai	s10,s11,0x1f
    47b0:	060d4863          	bltz	s10,4820 <printf+0x200>
    47b4:	00000493          	li	s1,0
    47b8:	000a0713          	mv	a4,s4
    47bc:	00098693          	mv	a3,s3
    47c0:	00048613          	mv	a2,s1
    47c4:	000d8513          	mv	a0,s11
    47c8:	000d0593          	mv	a1,s10
    47cc:	ba5ff0ef          	jal	4370 <putdec>
    47d0:	00040793          	mv	a5,s0
    47d4:	00000493          	li	s1,0
    47d8:	02c12d83          	lw	s11,44(sp)
    47dc:	1500006f          	j	492c <printf+0x30c>
    47e0:	00412783          	lw	a5,4(sp)
    47e4:	02078263          	beqz	a5,4808 <printf+0x1e8>
    47e8:	01c12783          	lw	a5,28(sp)
    47ec:	00778793          	addi	a5,a5,7
    47f0:	ff87f793          	andi	a5,a5,-8
    47f4:	00878713          	addi	a4,a5,8
    47f8:	00e12e23          	sw	a4,28(sp)
    47fc:	0007ad83          	lw	s11,0(a5)
    4800:	0047ad03          	lw	s10,4(a5)
    4804:	fadff06f          	j	47b0 <printf+0x190>
    4808:	01c12783          	lw	a5,28(sp)
    480c:	00478713          	addi	a4,a5,4
    4810:	00e12e23          	sw	a4,28(sp)
    4814:	0007ad83          	lw	s11,0(a5)
    4818:	41fddd13          	srai	s10,s11,0x1f
    481c:	f95ff06f          	j	47b0 <printf+0x190>
    4820:	03000793          	li	a5,48
    4824:	00f98e63          	beq	s3,a5,4840 <printf+0x220>
    4828:	01b037b3          	snez	a5,s11
    482c:	41a00d33          	neg	s10,s10
    4830:	40fd0d33          	sub	s10,s10,a5
    4834:	41b00db3          	neg	s11,s11
    4838:	fffa0a13          	addi	s4,s4,-1
    483c:	f7dff06f          	j	47b8 <printf+0x198>
    4840:	000227b7          	lui	a5,0x22
    4844:	5f87a783          	lw	a5,1528(a5) # 225f8 <io_putch>
    4848:	02d00513          	li	a0,45
    484c:	000780e7          	jalr	a5
    4850:	fd9ff06f          	j	4828 <printf+0x208>
    4854:	01c12783          	lw	a5,28(sp)
    4858:	00778793          	addi	a5,a5,7
    485c:	ff87f793          	andi	a5,a5,-8
    4860:	00878713          	addi	a4,a5,8
    4864:	00e12e23          	sw	a4,28(sp)
    4868:	00000613          	li	a2,0
    486c:	0007a503          	lw	a0,0(a5)
    4870:	0047a583          	lw	a1,4(a5)
    4874:	c01ff0ef          	jal	4474 <putfloat>
    4878:	00050493          	mv	s1,a0
    487c:	00058d13          	mv	s10,a1
    4880:	000227b7          	lui	a5,0x22
    4884:	5f87a783          	lw	a5,1528(a5) # 225f8 <io_putch>
    4888:	02e00513          	li	a0,46
    488c:	000780e7          	jalr	a5
    4890:	000227b7          	lui	a5,0x22
    4894:	5b87a603          	lw	a2,1464(a5) # 225b8 <__malloc_av_+0x410>
    4898:	5bc7a683          	lw	a3,1468(a5)
    489c:	00912423          	sw	s1,8(sp)
    48a0:	01a12623          	sw	s10,12(sp)
    48a4:	00812503          	lw	a0,8(sp)
    48a8:	00c12583          	lw	a1,12(sp)
    48ac:	138020ef          	jal	69e4 <__muldf3>
    48b0:	779020ef          	jal	7828 <__fixdfsi>
    48b4:	00000713          	li	a4,0
    48b8:	02000693          	li	a3,32
    48bc:	00000613          	li	a2,0
    48c0:	41f55593          	srai	a1,a0,0x1f
    48c4:	aadff0ef          	jal	4370 <putdec>
    48c8:	00040793          	mv	a5,s0
    48cc:	00000493          	li	s1,0
    48d0:	05c0006f          	j	492c <printf+0x30c>
    48d4:	01c12783          	lw	a5,28(sp)
    48d8:	00478713          	addi	a4,a5,4
    48dc:	00e12e23          	sw	a4,28(sp)
    48e0:	0007a503          	lw	a0,0(a5)
    48e4:	c95ff0ef          	jal	4578 <putline>
    48e8:	00040793          	mv	a5,s0
    48ec:	00000493          	li	s1,0
    48f0:	03c0006f          	j	492c <printf+0x30c>
    48f4:	000227b7          	lui	a5,0x22
    48f8:	5f87a703          	lw	a4,1528(a5) # 225f8 <io_putch>
    48fc:	01c12783          	lw	a5,28(sp)
    4900:	00478693          	addi	a3,a5,4
    4904:	00d12e23          	sw	a3,28(sp)
    4908:	0007c503          	lbu	a0,0(a5)
    490c:	000700e7          	jalr	a4
    4910:	00040793          	mv	a5,s0
    4914:	00000493          	li	s1,0
    4918:	0140006f          	j	492c <printf+0x30c>
    491c:	05650a63          	beq	a0,s6,4970 <printf+0x350>
    4920:	5f8c2783          	lw	a5,1528(s8) # 225f8 <io_putch>
    4924:	000780e7          	jalr	a5
    4928:	00040793          	mv	a5,s0
    492c:	00178413          	addi	s0,a5,1
    4930:	0017c503          	lbu	a0,1(a5)
    4934:	08050463          	beqz	a0,49bc <printf+0x39c>
    4938:	fe0482e3          	beqz	s1,491c <printf+0x2fc>
    493c:	d6aafae3          	bgeu	s5,a0,46b0 <printf+0x90>
    4940:	f9d50793          	addi	a5,a0,-99
    4944:	0ff7f793          	zext.b	a5,a5
    4948:	06f96663          	bltu	s2,a5,49b4 <printf+0x394>
    494c:	f9d50513          	addi	a0,a0,-99
    4950:	0ff57793          	zext.b	a5,a0
    4954:	04f96c63          	bltu	s2,a5,49ac <printf+0x38c>
    4958:	00279513          	slli	a0,a5,0x2
    495c:	000207b7          	lui	a5,0x20
    4960:	12878793          	addi	a5,a5,296 # 20128 <ranks+0x48>
    4964:	00f50533          	add	a0,a0,a5
    4968:	00052783          	lw	a5,0(a0)
    496c:	00078067          	jr	a5
    4970:	00144983          	lbu	s3,1(s0)
    4974:	03998063          	beq	s3,s9,4994 <printf+0x374>
    4978:	00048a13          	mv	s4,s1
    497c:	00912223          	sw	s1,4(sp)
    4980:	00048b93          	mv	s7,s1
    4984:	00040793          	mv	a5,s0
    4988:	02000993          	li	s3,32
    498c:	00100493          	li	s1,1
    4990:	f9dff06f          	j	492c <printf+0x30c>
    4994:	00140793          	addi	a5,s0,1
    4998:	00048a13          	mv	s4,s1
    499c:	00912223          	sw	s1,4(sp)
    49a0:	00048b93          	mv	s7,s1
    49a4:	00100493          	li	s1,1
    49a8:	f85ff06f          	j	492c <printf+0x30c>
    49ac:	00040793          	mv	a5,s0
    49b0:	f7dff06f          	j	492c <printf+0x30c>
    49b4:	00040793          	mv	a5,s0
    49b8:	f75ff06f          	j	492c <printf+0x30c>
    49bc:	05412483          	lw	s1,84(sp)
    49c0:	05012903          	lw	s2,80(sp)
    49c4:	04c12983          	lw	s3,76(sp)
    49c8:	04812a03          	lw	s4,72(sp)
    49cc:	04412a83          	lw	s5,68(sp)
    49d0:	04012b03          	lw	s6,64(sp)
    49d4:	03c12b83          	lw	s7,60(sp)
    49d8:	03812c03          	lw	s8,56(sp)
    49dc:	03412c83          	lw	s9,52(sp)
    49e0:	03012d03          	lw	s10,48(sp)
    49e4:	00000513          	li	a0,0
    49e8:	05c12083          	lw	ra,92(sp)
    49ec:	05812403          	lw	s0,88(sp)
    49f0:	08010113          	addi	sp,sp,128
    49f4:	00008067          	ret

000049f8 <_io_putch>:
    49f8:	000227b7          	lui	a5,0x22
    49fc:	00023737          	lui	a4,0x23
    4a00:	8a872703          	lw	a4,-1880(a4) # 228a8 <UART_CHAN_ID>
    4a04:	00271713          	slli	a4,a4,0x2
    4a08:	5fc78793          	addi	a5,a5,1532 # 225fc <_uart>
    4a0c:	00e787b3          	add	a5,a5,a4
    4a10:	0007a703          	lw	a4,0(a5)
    4a14:	00472783          	lw	a5,4(a4)
    4a18:	0017f793          	andi	a5,a5,1
    4a1c:	fe079ce3          	bnez	a5,4a14 <_io_putch+0x1c>
    4a20:	00a70023          	sb	a0,0(a4)
    4a24:	00008067          	ret

00004a28 <_io_getch>:
    4a28:	000227b7          	lui	a5,0x22
    4a2c:	00023737          	lui	a4,0x23
    4a30:	8a872703          	lw	a4,-1880(a4) # 228a8 <UART_CHAN_ID>
    4a34:	00271713          	slli	a4,a4,0x2
    4a38:	5fc78793          	addi	a5,a5,1532 # 225fc <_uart>
    4a3c:	00e787b3          	add	a5,a5,a4
    4a40:	0007a703          	lw	a4,0(a5)
    4a44:	00472783          	lw	a5,4(a4)
    4a48:	0087f793          	andi	a5,a5,8
    4a4c:	fe079ce3          	bnez	a5,4a44 <_io_getch+0x1c>
    4a50:	00074503          	lbu	a0,0(a4)
    4a54:	00008067          	ret

00004a58 <_io_init>:
    4a58:	000227b7          	lui	a5,0x22
    4a5c:	5fc78793          	addi	a5,a5,1532 # 225fc <_uart>
    4a60:	0007a683          	lw	a3,0(a5)
    4a64:	06f00713          	li	a4,111
    4a68:	00e6a223          	sw	a4,4(a3)
    4a6c:	0047a783          	lw	a5,4(a5)
    4a70:	00e7a223          	sw	a4,4(a5)
    4a74:	00008067          	ret

00004a78 <set_uart_ID>:
    4a78:	00a03533          	snez	a0,a0
    4a7c:	000237b7          	lui	a5,0x23
    4a80:	8aa7a423          	sw	a0,-1880(a5) # 228a8 <UART_CHAN_ID>
    4a84:	00008067          	ret

00004a88 <UARTBuf_reset>:
    4a88:	00052223          	sw	zero,4(a0)
    4a8c:	00052423          	sw	zero,8(a0)
    4a90:	000500a3          	sb	zero,1(a0)
    4a94:	00050023          	sb	zero,0(a0)
    4a98:	00052623          	sw	zero,12(a0)
    4a9c:	00052823          	sw	zero,16(a0)
    4aa0:	00008067          	ret

00004aa4 <UARTBuf_buffered_size>:
    4aa4:	00852783          	lw	a5,8(a0)
    4aa8:	00452703          	lw	a4,4(a0)
    4aac:	40e78533          	sub	a0,a5,a4
    4ab0:	00054463          	bltz	a0,4ab8 <UARTBuf_buffered_size+0x14>
    4ab4:	00008067          	ret
    4ab8:	02850513          	addi	a0,a0,40
    4abc:	00008067          	ret

00004ac0 <UARTBuf_write>:
    4ac0:	00154783          	lbu	a5,1(a0)
    4ac4:	00078463          	beqz	a5,4acc <UARTBuf_write+0xc>
    4ac8:	00008067          	ret
    4acc:	00852783          	lw	a5,8(a0)
    4ad0:	00f507b3          	add	a5,a0,a5
    4ad4:	00b78a23          	sb	a1,20(a5)
    4ad8:	00452683          	lw	a3,4(a0)
    4adc:	00852783          	lw	a5,8(a0)
    4ae0:	02700613          	li	a2,39
    4ae4:	00000713          	li	a4,0
    4ae8:	00c78463          	beq	a5,a2,4af0 <UARTBuf_write+0x30>
    4aec:	00178713          	addi	a4,a5,1
    4af0:	00100793          	li	a5,1
    4af4:	00f50023          	sb	a5,0(a0)
    4af8:	40e687b3          	sub	a5,a3,a4
    4afc:	0017b793          	seqz	a5,a5
    4b00:	00f500a3          	sb	a5,1(a0)
    4b04:	00d52223          	sw	a3,4(a0)
    4b08:	00e52423          	sw	a4,8(a0)
    4b0c:	00008067          	ret

00004b10 <UARTBuf_read>:
    4b10:	00050793          	mv	a5,a0
    4b14:	00054703          	lbu	a4,0(a0)
    4b18:	0ff77513          	zext.b	a0,a4
    4b1c:	00071463          	bnez	a4,4b24 <UARTBuf_read+0x14>
    4b20:	00008067          	ret
    4b24:	0047a703          	lw	a4,4(a5)
    4b28:	00e78733          	add	a4,a5,a4
    4b2c:	01474503          	lbu	a0,20(a4)
    4b30:	0ff57513          	zext.b	a0,a0
    4b34:	0047a703          	lw	a4,4(a5)
    4b38:	0087a603          	lw	a2,8(a5)
    4b3c:	02700593          	li	a1,39
    4b40:	00000693          	li	a3,0
    4b44:	00b70463          	beq	a4,a1,4b4c <UARTBuf_read+0x3c>
    4b48:	00170693          	addi	a3,a4,1
    4b4c:	40d60733          	sub	a4,a2,a3
    4b50:	00e03733          	snez	a4,a4
    4b54:	00e78023          	sb	a4,0(a5)
    4b58:	000780a3          	sb	zero,1(a5)
    4b5c:	00d7a223          	sw	a3,4(a5)
    4b60:	00c7a423          	sw	a2,8(a5)
    4b64:	00008067          	ret

00004b68 <UARTBuf_read_last>:
    4b68:	00852783          	lw	a5,8(a0)
    4b6c:	00079a63          	bnez	a5,4b80 <UARTBuf_read_last+0x18>
    4b70:	00054703          	lbu	a4,0(a0)
    4b74:	00070863          	beqz	a4,4b84 <UARTBuf_read_last+0x1c>
    4b78:	02700793          	li	a5,39
    4b7c:	0080006f          	j	4b84 <UARTBuf_read_last+0x1c>
    4b80:	fff78793          	addi	a5,a5,-1
    4b84:	00f50533          	add	a0,a0,a5
    4b88:	01454503          	lbu	a0,20(a0)
    4b8c:	00008067          	ret

00004b90 <flush_UART>:
    4b90:	000227b7          	lui	a5,0x22
    4b94:	5fc7a683          	lw	a3,1532(a5) # 225fc <_uart>
    4b98:	00022737          	lui	a4,0x22
    4b9c:	62070793          	addi	a5,a4,1568 # 22620 <UART_BUF_TX>
    4ba0:	0007c783          	lbu	a5,0(a5)
    4ba4:	fe079ce3          	bnez	a5,4b9c <flush_UART+0xc>
    4ba8:	0046a783          	lw	a5,4(a3)
    4bac:	0027f793          	andi	a5,a5,2
    4bb0:	fe0786e3          	beqz	a5,4b9c <flush_UART+0xc>
    4bb4:	000227b7          	lui	a5,0x22
    4bb8:	6007a683          	lw	a3,1536(a5) # 22600 <_uart+0x4>
    4bbc:	00022737          	lui	a4,0x22
    4bc0:	62070793          	addi	a5,a4,1568 # 22620 <UART_BUF_TX>
    4bc4:	03c7c783          	lbu	a5,60(a5)
    4bc8:	fe079ce3          	bnez	a5,4bc0 <flush_UART+0x30>
    4bcc:	0046a783          	lw	a5,4(a3)
    4bd0:	0027f793          	andi	a5,a5,2
    4bd4:	fe0786e3          	beqz	a5,4bc0 <flush_UART+0x30>
    4bd8:	00008067          	ret

00004bdc <_io_fini>:
    4bdc:	ff010113          	addi	sp,sp,-16
    4be0:	00112623          	sw	ra,12(sp)
    4be4:	fadff0ef          	jal	4b90 <flush_UART>
    4be8:	00c12083          	lw	ra,12(sp)
    4bec:	01010113          	addi	sp,sp,16
    4bf0:	00008067          	ret

00004bf4 <UARTBuf_reset_all>:
    4bf4:	ff010113          	addi	sp,sp,-16
    4bf8:	00112623          	sw	ra,12(sp)
    4bfc:	00812423          	sw	s0,8(sp)
    4c00:	00022537          	lui	a0,0x22
    4c04:	62050413          	addi	s0,a0,1568 # 22620 <UART_BUF_TX>
    4c08:	62050513          	addi	a0,a0,1568
    4c0c:	e7dff0ef          	jal	4a88 <UARTBuf_reset>
    4c10:	03c40513          	addi	a0,s0,60
    4c14:	e75ff0ef          	jal	4a88 <UARTBuf_reset>
    4c18:	07840513          	addi	a0,s0,120
    4c1c:	e6dff0ef          	jal	4a88 <UARTBuf_reset>
    4c20:	0b440513          	addi	a0,s0,180
    4c24:	e65ff0ef          	jal	4a88 <UARTBuf_reset>
    4c28:	00c12083          	lw	ra,12(sp)
    4c2c:	00812403          	lw	s0,8(sp)
    4c30:	01010113          	addi	sp,sp,16
    4c34:	00008067          	ret

00004c38 <enable_BUTTON_interrupt>:
    4c38:	000057b7          	lui	a5,0x5
    4c3c:	52c78793          	addi	a5,a5,1324 # 552c <_mhandler>
    4c40:	30579073          	csrw	mtvec,a5
    4c44:	000227b7          	lui	a5,0x22
    4c48:	6087a703          	lw	a4,1544(a5) # 22608 <sysctrl>
    4c4c:	00872783          	lw	a5,8(a4)
    4c50:	07c7e793          	ori	a5,a5,124
    4c54:	00f72423          	sw	a5,8(a4)
    4c58:	000017b7          	lui	a5,0x1
    4c5c:	80078793          	addi	a5,a5,-2048 # 800 <_start-0x800>
    4c60:	3047a073          	csrs	mie,a5
    4c64:	30046073          	csrsi	mstatus,8
    4c68:	00008067          	ret

00004c6c <enable_UART_interrupt>:
    4c6c:	ff010113          	addi	sp,sp,-16
    4c70:	00112623          	sw	ra,12(sp)
    4c74:	f81ff0ef          	jal	4bf4 <UARTBuf_reset_all>
    4c78:	00022737          	lui	a4,0x22
    4c7c:	000057b7          	lui	a5,0x5
    4c80:	2e478793          	addi	a5,a5,740 # 52e4 <_UARTBuf_putch>
    4c84:	5ef72c23          	sw	a5,1528(a4) # 225f8 <io_putch>
    4c88:	00022737          	lui	a4,0x22
    4c8c:	000057b7          	lui	a5,0x5
    4c90:	38478793          	addi	a5,a5,900 # 5384 <_UARTBuf_getch>
    4c94:	5ef72a23          	sw	a5,1524(a4) # 225f4 <io_getch>
    4c98:	000227b7          	lui	a5,0x22
    4c9c:	6087a703          	lw	a4,1544(a5) # 22608 <sysctrl>
    4ca0:	00872783          	lw	a5,8(a4)
    4ca4:	0037e793          	ori	a5,a5,3
    4ca8:	00f72423          	sw	a5,8(a4)
    4cac:	000017b7          	lui	a5,0x1
    4cb0:	80078793          	addi	a5,a5,-2048 # 800 <_start-0x800>
    4cb4:	3047a073          	csrs	mie,a5
    4cb8:	30046073          	csrsi	mstatus,8
    4cbc:	000057b7          	lui	a5,0x5
    4cc0:	52c78793          	addi	a5,a5,1324 # 552c <_mhandler>
    4cc4:	30579073          	csrw	mtvec,a5
    4cc8:	00c12083          	lw	ra,12(sp)
    4ccc:	01010113          	addi	sp,sp,16
    4cd0:	00008067          	ret

00004cd4 <disable_UART_interrupt>:
    4cd4:	ff010113          	addi	sp,sp,-16
    4cd8:	00112623          	sw	ra,12(sp)
    4cdc:	000227b7          	lui	a5,0x22
    4ce0:	5fc7a703          	lw	a4,1532(a5) # 225fc <_uart>
    4ce4:	00472783          	lw	a5,4(a4)
    4ce8:	0107f793          	andi	a5,a5,16
    4cec:	fe079ce3          	bnez	a5,4ce4 <disable_UART_interrupt+0x10>
    4cf0:	000227b7          	lui	a5,0x22
    4cf4:	6007a703          	lw	a4,1536(a5) # 22600 <_uart+0x4>
    4cf8:	00472783          	lw	a5,4(a4)
    4cfc:	0107f793          	andi	a5,a5,16
    4d00:	fe079ce3          	bnez	a5,4cf8 <disable_UART_interrupt+0x24>
    4d04:	00022737          	lui	a4,0x22
    4d08:	000057b7          	lui	a5,0x5
    4d0c:	9f878793          	addi	a5,a5,-1544 # 49f8 <_io_putch>
    4d10:	5ef72c23          	sw	a5,1528(a4) # 225f8 <io_putch>
    4d14:	00022737          	lui	a4,0x22
    4d18:	000057b7          	lui	a5,0x5
    4d1c:	a2878793          	addi	a5,a5,-1496 # 4a28 <_io_getch>
    4d20:	5ef72a23          	sw	a5,1524(a4) # 225f4 <io_getch>
    4d24:	000227b7          	lui	a5,0x22
    4d28:	6087a703          	lw	a4,1544(a5) # 22608 <sysctrl>
    4d2c:	00872783          	lw	a5,8(a4)
    4d30:	ffc7f793          	andi	a5,a5,-4
    4d34:	00f72423          	sw	a5,8(a4)
    4d38:	30047073          	csrci	mstatus,8
    4d3c:	eb9ff0ef          	jal	4bf4 <UARTBuf_reset_all>
    4d40:	00c12083          	lw	ra,12(sp)
    4d44:	01010113          	addi	sp,sp,16
    4d48:	00008067          	ret

00004d4c <UARTintr_handler>:
    4d4c:	fe010113          	addi	sp,sp,-32
    4d50:	00112e23          	sw	ra,28(sp)
    4d54:	00812c23          	sw	s0,24(sp)
    4d58:	00912a23          	sw	s1,20(sp)
    4d5c:	01212823          	sw	s2,16(sp)
    4d60:	01312623          	sw	s3,12(sp)
    4d64:	01412423          	sw	s4,8(sp)
    4d68:	01512223          	sw	s5,4(sp)
    4d6c:	00050993          	mv	s3,a0
    4d70:	000227b7          	lui	a5,0x22
    4d74:	00251713          	slli	a4,a0,0x2
    4d78:	5fc78793          	addi	a5,a5,1532 # 225fc <_uart>
    4d7c:	00e787b3          	add	a5,a5,a4
    4d80:	0007a483          	lw	s1,0(a5)
    4d84:	00451a93          	slli	s5,a0,0x4
    4d88:	40aa8ab3          	sub	s5,s5,a0
    4d8c:	002a9a93          	slli	s5,s5,0x2
    4d90:	00022437          	lui	s0,0x22
    4d94:	62040413          	addi	s0,s0,1568 # 22620 <UART_BUF_TX>
    4d98:	01540433          	add	s0,s0,s5
    4d9c:	00044783          	lbu	a5,0(s0)
    4da0:	02078463          	beqz	a5,4dc8 <UARTintr_handler+0x7c>
    4da4:	00040913          	mv	s2,s0
    4da8:	0044a783          	lw	a5,4(s1)
    4dac:	0017f793          	andi	a5,a5,1
    4db0:	00079c63          	bnez	a5,4dc8 <UARTintr_handler+0x7c>
    4db4:	00040513          	mv	a0,s0
    4db8:	d59ff0ef          	jal	4b10 <UARTBuf_read>
    4dbc:	00a48023          	sb	a0,0(s1)
    4dc0:	00094783          	lbu	a5,0(s2)
    4dc4:	fe0792e3          	bnez	a5,4da8 <UARTintr_handler+0x5c>
    4dc8:	000227b7          	lui	a5,0x22
    4dcc:	62078793          	addi	a5,a5,1568 # 22620 <UART_BUF_TX>
    4dd0:	07878a13          	addi	s4,a5,120
    4dd4:	015a0a33          	add	s4,s4,s5
    4dd8:	00499713          	slli	a4,s3,0x4
    4ddc:	41370733          	sub	a4,a4,s3
    4de0:	00271713          	slli	a4,a4,0x2
    4de4:	00e787b3          	add	a5,a5,a4
    4de8:	0797c783          	lbu	a5,121(a5)
    4dec:	06079263          	bnez	a5,4e50 <UARTintr_handler+0x104>
    4df0:	01a00a93          	li	s5,26
    4df4:	00022937          	lui	s2,0x22
    4df8:	62090913          	addi	s2,s2,1568 # 22620 <UART_BUF_TX>
    4dfc:	00e90933          	add	s2,s2,a4
    4e00:	0140006f          	j	4e14 <UARTintr_handler+0xc8>
    4e04:	00100793          	li	a5,1
    4e08:	08f92423          	sw	a5,136(s2)
    4e0c:	07994783          	lbu	a5,121(s2)
    4e10:	04079063          	bnez	a5,4e50 <UARTintr_handler+0x104>
    4e14:	0044a783          	lw	a5,4(s1)
    4e18:	0087f793          	andi	a5,a5,8
    4e1c:	02079a63          	bnez	a5,4e50 <UARTintr_handler+0x104>
    4e20:	0004c403          	lbu	s0,0(s1)
    4e24:	0ff47413          	zext.b	s0,s0
    4e28:	00040593          	mv	a1,s0
    4e2c:	000a0513          	mv	a0,s4
    4e30:	c91ff0ef          	jal	4ac0 <UARTBuf_write>
    4e34:	fd5408e3          	beq	s0,s5,4e04 <UARTintr_handler+0xb8>
    4e38:	00a00793          	li	a5,10
    4e3c:	fcf418e3          	bne	s0,a5,4e0c <UARTintr_handler+0xc0>
    4e40:	08492783          	lw	a5,132(s2)
    4e44:	00178793          	addi	a5,a5,1
    4e48:	08f92223          	sw	a5,132(s2)
    4e4c:	fc1ff06f          	j	4e0c <UARTintr_handler+0xc0>
    4e50:	01c12083          	lw	ra,28(sp)
    4e54:	01812403          	lw	s0,24(sp)
    4e58:	01412483          	lw	s1,20(sp)
    4e5c:	01012903          	lw	s2,16(sp)
    4e60:	00c12983          	lw	s3,12(sp)
    4e64:	00812a03          	lw	s4,8(sp)
    4e68:	00412a83          	lw	s5,4(sp)
    4e6c:	02010113          	addi	sp,sp,32
    4e70:	00008067          	ret

00004e74 <ext_intr_handler>:
    4e74:	ff010113          	addi	sp,sp,-16
    4e78:	00112623          	sw	ra,12(sp)
    4e7c:	00812423          	sw	s0,8(sp)
    4e80:	000227b7          	lui	a5,0x22
    4e84:	6087a783          	lw	a5,1544(a5) # 22608 <sysctrl>
    4e88:	0007a403          	lw	s0,0(a5)
    4e8c:	00147793          	andi	a5,s0,1
    4e90:	02079663          	bnez	a5,4ebc <ext_intr_handler+0x48>
    4e94:	00247413          	andi	s0,s0,2
    4e98:	02041863          	bnez	s0,4ec8 <ext_intr_handler+0x54>
    4e9c:	000227b7          	lui	a5,0x22
    4ea0:	6087a783          	lw	a5,1544(a5) # 22608 <sysctrl>
    4ea4:	07f00713          	li	a4,127
    4ea8:	00e7a023          	sw	a4,0(a5)
    4eac:	00c12083          	lw	ra,12(sp)
    4eb0:	00812403          	lw	s0,8(sp)
    4eb4:	01010113          	addi	sp,sp,16
    4eb8:	00008067          	ret
    4ebc:	00000513          	li	a0,0
    4ec0:	e8dff0ef          	jal	4d4c <UARTintr_handler>
    4ec4:	fd1ff06f          	j	4e94 <ext_intr_handler+0x20>
    4ec8:	00100513          	li	a0,1
    4ecc:	e81ff0ef          	jal	4d4c <UARTintr_handler>
    4ed0:	fcdff06f          	j	4e9c <ext_intr_handler+0x28>

00004ed4 <mhandler>:
    4ed4:	342027f3          	csrr	a5,mcause
    4ed8:	0007c463          	bltz	a5,4ee0 <mhandler+0xc>
    4edc:	00008067          	ret
    4ee0:	ff010113          	addi	sp,sp,-16
    4ee4:	00112623          	sw	ra,12(sp)
    4ee8:	0ff7f793          	zext.b	a5,a5
    4eec:	00700713          	li	a4,7
    4ef0:	00e78e63          	beq	a5,a4,4f0c <mhandler+0x38>
    4ef4:	00b00713          	li	a4,11
    4ef8:	00e79463          	bne	a5,a4,4f00 <mhandler+0x2c>
    4efc:	f79ff0ef          	jal	4e74 <ext_intr_handler>
    4f00:	00c12083          	lw	ra,12(sp)
    4f04:	01010113          	addi	sp,sp,16
    4f08:	00008067          	ret
    4f0c:	000227b7          	lui	a5,0x22
    4f10:	6087a583          	lw	a1,1544(a5) # 22608 <sysctrl>
    4f14:	0105a603          	lw	a2,16(a1)
    4f18:	0145a683          	lw	a3,20(a1)
    4f1c:	000237b7          	lui	a5,0x23
    4f20:	89c7a783          	lw	a5,-1892(a5) # 2289c <mtimer_interval>
    4f24:	41f7d713          	srai	a4,a5,0x1f
    4f28:	00c78533          	add	a0,a5,a2
    4f2c:	00f537b3          	sltu	a5,a0,a5
    4f30:	00d70733          	add	a4,a4,a3
    4f34:	00e786b3          	add	a3,a5,a4
    4f38:	00a5ac23          	sw	a0,24(a1)
    4f3c:	00d5ae23          	sw	a3,28(a1)
    4f40:	000237b7          	lui	a5,0x23
    4f44:	8987a783          	lw	a5,-1896(a5) # 22898 <timer_interrupt_hook>
    4f48:	fa078ce3          	beqz	a5,4f00 <mhandler+0x2c>
    4f4c:	000780e7          	jalr	a5
    4f50:	fb1ff06f          	j	4f00 <mhandler+0x2c>

00004f54 <set_gpio_string>:
    4f54:	000227b7          	lui	a5,0x22
    4f58:	6047a783          	lw	a5,1540(a5) # 22604 <gpio>
    4f5c:	00a7a223          	sw	a0,4(a5)
    4f60:	00b7a423          	sw	a1,8(a5)
    4f64:	00008067          	ret

00004f68 <convert_char_seg7>:
    4f68:	fe050513          	addi	a0,a0,-32
    4f6c:	05a00793          	li	a5,90
    4f70:	14a7ee63          	bltu	a5,a0,50cc <convert_char_seg7+0x164>
    4f74:	00251513          	slli	a0,a0,0x2
    4f78:	000207b7          	lui	a5,0x20
    4f7c:	18078793          	addi	a5,a5,384 # 20180 <ranks+0xa0>
    4f80:	00f50533          	add	a0,a0,a5
    4f84:	00052783          	lw	a5,0(a0)
    4f88:	00078067          	jr	a5
    4f8c:	03f00513          	li	a0,63
    4f90:	00008067          	ret
    4f94:	05b00513          	li	a0,91
    4f98:	00008067          	ret
    4f9c:	04f00513          	li	a0,79
    4fa0:	00008067          	ret
    4fa4:	06600513          	li	a0,102
    4fa8:	00008067          	ret
    4fac:	06d00513          	li	a0,109
    4fb0:	00008067          	ret
    4fb4:	07d00513          	li	a0,125
    4fb8:	00008067          	ret
    4fbc:	02700513          	li	a0,39
    4fc0:	00008067          	ret
    4fc4:	07f00513          	li	a0,127
    4fc8:	00008067          	ret
    4fcc:	06f00513          	li	a0,111
    4fd0:	00008067          	ret
    4fd4:	07700513          	li	a0,119
    4fd8:	00008067          	ret
    4fdc:	07c00513          	li	a0,124
    4fe0:	00008067          	ret
    4fe4:	03900513          	li	a0,57
    4fe8:	00008067          	ret
    4fec:	05e00513          	li	a0,94
    4ff0:	00008067          	ret
    4ff4:	07900513          	li	a0,121
    4ff8:	00008067          	ret
    4ffc:	07100513          	li	a0,113
    5000:	00008067          	ret
    5004:	03d00513          	li	a0,61
    5008:	00008067          	ret
    500c:	07600513          	li	a0,118
    5010:	00008067          	ret
    5014:	00400513          	li	a0,4
    5018:	00008067          	ret
    501c:	00e00513          	li	a0,14
    5020:	00008067          	ret
    5024:	07800513          	li	a0,120
    5028:	00008067          	ret
    502c:	03800513          	li	a0,56
    5030:	00008067          	ret
    5034:	03700513          	li	a0,55
    5038:	00008067          	ret
    503c:	05400513          	li	a0,84
    5040:	00008067          	ret
    5044:	05c00513          	li	a0,92
    5048:	00008067          	ret
    504c:	07300513          	li	a0,115
    5050:	00008067          	ret
    5054:	06700513          	li	a0,103
    5058:	00008067          	ret
    505c:	05000513          	li	a0,80
    5060:	00008067          	ret
    5064:	0ed00513          	li	a0,237
    5068:	00008067          	ret
    506c:	07000513          	li	a0,112
    5070:	00008067          	ret
    5074:	03e00513          	li	a0,62
    5078:	00008067          	ret
    507c:	01c00513          	li	a0,28
    5080:	00008067          	ret
    5084:	0be00513          	li	a0,190
    5088:	00008067          	ret
    508c:	0f600513          	li	a0,246
    5090:	00008067          	ret
    5094:	06e00513          	li	a0,110
    5098:	00008067          	ret
    509c:	0db00513          	li	a0,219
    50a0:	00008067          	ret
    50a4:	04000513          	li	a0,64
    50a8:	00008067          	ret
    50ac:	00800513          	li	a0,8
    50b0:	00008067          	ret
    50b4:	08000513          	li	a0,128
    50b8:	00008067          	ret
    50bc:	00000513          	li	a0,0
    50c0:	00008067          	ret
    50c4:	04800513          	li	a0,72
    50c8:	00008067          	ret
    50cc:	00000513          	li	a0,0
    50d0:	00008067          	ret
    50d4:	00600513          	li	a0,6
    50d8:	00008067          	ret

000050dc <convert_hex_char>:
    50dc:	00f57513          	andi	a0,a0,15
    50e0:	00900793          	li	a5,9
    50e4:	00a7c663          	blt	a5,a0,50f0 <convert_hex_char+0x14>
    50e8:	03050513          	addi	a0,a0,48
    50ec:	00008067          	ret
    50f0:	05750513          	addi	a0,a0,87
    50f4:	00008067          	ret

000050f8 <convert_unsigned_hex_str>:
    50f8:	ff010113          	addi	sp,sp,-16
    50fc:	00112623          	sw	ra,12(sp)
    5100:	00812423          	sw	s0,8(sp)
    5104:	00912223          	sw	s1,4(sp)
    5108:	01212023          	sw	s2,0(sp)
    510c:	00050493          	mv	s1,a0
    5110:	00c55513          	srli	a0,a0,0xc
    5114:	fc9ff0ef          	jal	50dc <convert_hex_char>
    5118:	00050413          	mv	s0,a0
    511c:	0084d513          	srli	a0,s1,0x8
    5120:	fbdff0ef          	jal	50dc <convert_hex_char>
    5124:	01841413          	slli	s0,s0,0x18
    5128:	01051513          	slli	a0,a0,0x10
    512c:	00a46433          	or	s0,s0,a0
    5130:	0044d513          	srli	a0,s1,0x4
    5134:	fa9ff0ef          	jal	50dc <convert_hex_char>
    5138:	00050913          	mv	s2,a0
    513c:	00048513          	mv	a0,s1
    5140:	f9dff0ef          	jal	50dc <convert_hex_char>
    5144:	00891913          	slli	s2,s2,0x8
    5148:	00a46533          	or	a0,s0,a0
    514c:	00a96533          	or	a0,s2,a0
    5150:	00c12083          	lw	ra,12(sp)
    5154:	00812403          	lw	s0,8(sp)
    5158:	00412483          	lw	s1,4(sp)
    515c:	00012903          	lw	s2,0(sp)
    5160:	01010113          	addi	sp,sp,16
    5164:	00008067          	ret

00005168 <set_gpio_error>:
    5168:	fe010113          	addi	sp,sp,-32
    516c:	00112e23          	sw	ra,28(sp)
    5170:	00812c23          	sw	s0,24(sp)
    5174:	00912a23          	sw	s1,20(sp)
    5178:	01212823          	sw	s2,16(sp)
    517c:	01312623          	sw	s3,12(sp)
    5180:	01412423          	sw	s4,8(sp)
    5184:	01512223          	sw	s5,4(sp)
    5188:	01612023          	sw	s6,0(sp)
    518c:	f6dff0ef          	jal	50f8 <convert_unsigned_hex_str>
    5190:	00050a93          	mv	s5,a0
    5194:	06500513          	li	a0,101
    5198:	dd1ff0ef          	jal	4f68 <convert_char_seg7>
    519c:	00050493          	mv	s1,a0
    51a0:	07200513          	li	a0,114
    51a4:	dc5ff0ef          	jal	4f68 <convert_char_seg7>
    51a8:	00050413          	mv	s0,a0
    51ac:	01849493          	slli	s1,s1,0x18
    51b0:	01051793          	slli	a5,a0,0x10
    51b4:	00f4e4b3          	or	s1,s1,a5
    51b8:	02d00513          	li	a0,45
    51bc:	dadff0ef          	jal	4f68 <convert_char_seg7>
    51c0:	00050b13          	mv	s6,a0
    51c4:	018ad513          	srli	a0,s5,0x18
    51c8:	da1ff0ef          	jal	4f68 <convert_char_seg7>
    51cc:	00050a13          	mv	s4,a0
    51d0:	010ad513          	srli	a0,s5,0x10
    51d4:	0ff57513          	zext.b	a0,a0
    51d8:	d91ff0ef          	jal	4f68 <convert_char_seg7>
    51dc:	00050993          	mv	s3,a0
    51e0:	008ad513          	srli	a0,s5,0x8
    51e4:	0ff57513          	zext.b	a0,a0
    51e8:	d81ff0ef          	jal	4f68 <convert_char_seg7>
    51ec:	00050913          	mv	s2,a0
    51f0:	0ffaf513          	zext.b	a0,s5
    51f4:	d75ff0ef          	jal	4f68 <convert_char_seg7>
    51f8:	00841793          	slli	a5,s0,0x8
    51fc:	0097e7b3          	or	a5,a5,s1
    5200:	0167e7b3          	or	a5,a5,s6
    5204:	008a5693          	srli	a3,s4,0x8
    5208:	018a1a13          	slli	s4,s4,0x18
    520c:	01456733          	or	a4,a0,s4
    5210:	00d7e7b3          	or	a5,a5,a3
    5214:	0109d693          	srli	a3,s3,0x10
    5218:	01099993          	slli	s3,s3,0x10
    521c:	01376733          	or	a4,a4,s3
    5220:	00d7e7b3          	or	a5,a5,a3
    5224:	01895593          	srli	a1,s2,0x18
    5228:	00891513          	slli	a0,s2,0x8
    522c:	00a76533          	or	a0,a4,a0
    5230:	00b7e5b3          	or	a1,a5,a1
    5234:	d21ff0ef          	jal	4f54 <set_gpio_string>
    5238:	01c12083          	lw	ra,28(sp)
    523c:	01812403          	lw	s0,24(sp)
    5240:	01412483          	lw	s1,20(sp)
    5244:	01012903          	lw	s2,16(sp)
    5248:	00c12983          	lw	s3,12(sp)
    524c:	00812a03          	lw	s4,8(sp)
    5250:	00412a83          	lw	s5,4(sp)
    5254:	00012b03          	lw	s6,0(sp)
    5258:	02010113          	addi	sp,sp,32
    525c:	00008067          	ret

00005260 <enter_critical_section>:
    5260:	00023737          	lui	a4,0x23
    5264:	8a072783          	lw	a5,-1888(a4) # 228a0 <critical_section_depth>
    5268:	00178693          	addi	a3,a5,1
    526c:	8ad72023          	sw	a3,-1888(a4)
    5270:	00079c63          	bnez	a5,5288 <enter_critical_section+0x28>
    5274:	30002773          	csrr	a4,mstatus
    5278:	000237b7          	lui	a5,0x23
    527c:	8ae7a223          	sw	a4,-1884(a5) # 228a4 <prv_mstatus>
    5280:	30047073          	csrci	mstatus,8
    5284:	00008067          	ret
    5288:	ff010113          	addi	sp,sp,-16
    528c:	00112623          	sw	ra,12(sp)
    5290:	00000513          	li	a0,0
    5294:	ed5ff0ef          	jal	5168 <set_gpio_error>
    5298:	00c12083          	lw	ra,12(sp)
    529c:	01010113          	addi	sp,sp,16
    52a0:	00008067          	ret

000052a4 <leave_critical_section>:
    52a4:	00023737          	lui	a4,0x23
    52a8:	8a072783          	lw	a5,-1888(a4) # 228a0 <critical_section_depth>
    52ac:	fff78793          	addi	a5,a5,-1
    52b0:	8af72023          	sw	a5,-1888(a4)
    52b4:	00079a63          	bnez	a5,52c8 <leave_critical_section+0x24>
    52b8:	000237b7          	lui	a5,0x23
    52bc:	8a47a783          	lw	a5,-1884(a5) # 228a4 <prv_mstatus>
    52c0:	30079073          	csrw	mstatus,a5
    52c4:	00008067          	ret
    52c8:	ff010113          	addi	sp,sp,-16
    52cc:	00112623          	sw	ra,12(sp)
    52d0:	00100513          	li	a0,1
    52d4:	e95ff0ef          	jal	5168 <set_gpio_error>
    52d8:	00c12083          	lw	ra,12(sp)
    52dc:	01010113          	addi	sp,sp,16
    52e0:	00008067          	ret

000052e4 <_UARTBuf_putch>:
    52e4:	ff010113          	addi	sp,sp,-16
    52e8:	00112623          	sw	ra,12(sp)
    52ec:	00812423          	sw	s0,8(sp)
    52f0:	00912223          	sw	s1,4(sp)
    52f4:	01212023          	sw	s2,0(sp)
    52f8:	00050493          	mv	s1,a0
    52fc:	000237b7          	lui	a5,0x23
    5300:	8a87a683          	lw	a3,-1880(a5) # 228a8 <UART_CHAN_ID>
    5304:	00469793          	slli	a5,a3,0x4
    5308:	40d787b3          	sub	a5,a5,a3
    530c:	00279793          	slli	a5,a5,0x2
    5310:	00022437          	lui	s0,0x22
    5314:	62040413          	addi	s0,s0,1568 # 22620 <UART_BUF_TX>
    5318:	00f40433          	add	s0,s0,a5
    531c:	00040713          	mv	a4,s0
    5320:	00174783          	lbu	a5,1(a4)
    5324:	fe079ee3          	bnez	a5,5320 <_UARTBuf_putch+0x3c>
    5328:	000227b7          	lui	a5,0x22
    532c:	00269693          	slli	a3,a3,0x2
    5330:	5fc78793          	addi	a5,a5,1532 # 225fc <_uart>
    5334:	00d787b3          	add	a5,a5,a3
    5338:	0007a903          	lw	s2,0(a5)
    533c:	f25ff0ef          	jal	5260 <enter_critical_section>
    5340:	00048593          	mv	a1,s1
    5344:	00040513          	mv	a0,s0
    5348:	f78ff0ef          	jal	4ac0 <UARTBuf_write>
    534c:	00492783          	lw	a5,4(s2)
    5350:	0017f793          	andi	a5,a5,1
    5354:	02078063          	beqz	a5,5374 <_UARTBuf_putch+0x90>
    5358:	f4dff0ef          	jal	52a4 <leave_critical_section>
    535c:	00c12083          	lw	ra,12(sp)
    5360:	00812403          	lw	s0,8(sp)
    5364:	00412483          	lw	s1,4(sp)
    5368:	00012903          	lw	s2,0(sp)
    536c:	01010113          	addi	sp,sp,16
    5370:	00008067          	ret
    5374:	00040513          	mv	a0,s0
    5378:	f98ff0ef          	jal	4b10 <UARTBuf_read>
    537c:	00a90023          	sb	a0,0(s2)
    5380:	fd9ff06f          	j	5358 <_UARTBuf_putch+0x74>

00005384 <_UARTBuf_getch>:
    5384:	ff010113          	addi	sp,sp,-16
    5388:	00112623          	sw	ra,12(sp)
    538c:	00812423          	sw	s0,8(sp)
    5390:	000237b7          	lui	a5,0x23
    5394:	8a87a703          	lw	a4,-1880(a5) # 228a8 <UART_CHAN_ID>
    5398:	00471793          	slli	a5,a4,0x4
    539c:	40e787b3          	sub	a5,a5,a4
    53a0:	00279793          	slli	a5,a5,0x2
    53a4:	00022437          	lui	s0,0x22
    53a8:	69840413          	addi	s0,s0,1688 # 22698 <UART_BUF_RX>
    53ac:	00f40433          	add	s0,s0,a5
    53b0:	00471793          	slli	a5,a4,0x4
    53b4:	40e787b3          	sub	a5,a5,a4
    53b8:	00279793          	slli	a5,a5,0x2
    53bc:	00022737          	lui	a4,0x22
    53c0:	62070713          	addi	a4,a4,1568 # 22620 <UART_BUF_TX>
    53c4:	00f70733          	add	a4,a4,a5
    53c8:	07874783          	lbu	a5,120(a4)
    53cc:	fe078ee3          	beqz	a5,53c8 <_UARTBuf_getch+0x44>
    53d0:	e91ff0ef          	jal	5260 <enter_critical_section>
    53d4:	00040513          	mv	a0,s0
    53d8:	f38ff0ef          	jal	4b10 <UARTBuf_read>
    53dc:	00050413          	mv	s0,a0
    53e0:	ec5ff0ef          	jal	52a4 <leave_critical_section>
    53e4:	00040513          	mv	a0,s0
    53e8:	00c12083          	lw	ra,12(sp)
    53ec:	00812403          	lw	s0,8(sp)
    53f0:	01010113          	addi	sp,sp,16
    53f4:	00008067          	ret

000053f8 <UARTBuf_consume_new_line>:
    53f8:	ff010113          	addi	sp,sp,-16
    53fc:	00112623          	sw	ra,12(sp)
    5400:	00812423          	sw	s0,8(sp)
    5404:	00050413          	mv	s0,a0
    5408:	e59ff0ef          	jal	5260 <enter_critical_section>
    540c:	00c42783          	lw	a5,12(s0)
    5410:	fff78793          	addi	a5,a5,-1
    5414:	00f42623          	sw	a5,12(s0)
    5418:	e8dff0ef          	jal	52a4 <leave_critical_section>
    541c:	00c12083          	lw	ra,12(sp)
    5420:	00812403          	lw	s0,8(sp)
    5424:	01010113          	addi	sp,sp,16
    5428:	00008067          	ret

0000542c <set_mtimer_interval>:
    542c:	00151793          	slli	a5,a0,0x1
    5430:	00a787b3          	add	a5,a5,a0
    5434:	00679713          	slli	a4,a5,0x6
    5438:	00e787b3          	add	a5,a5,a4
    543c:	00279793          	slli	a5,a5,0x2
    5440:	00a787b3          	add	a5,a5,a0
    5444:	00279793          	slli	a5,a5,0x2
    5448:	00a78533          	add	a0,a5,a0
    544c:	000237b7          	lui	a5,0x23
    5450:	88a7ae23          	sw	a0,-1892(a5) # 2289c <mtimer_interval>
    5454:	00008067          	ret

00005458 <mtime_to_microsec>:
    5458:	ff010113          	addi	sp,sp,-16
    545c:	00112623          	sw	ra,12(sp)
    5460:	03200593          	li	a1,50
    5464:	00451513          	slli	a0,a0,0x4
    5468:	6d4020ef          	jal	7b3c <__hidden___udivsi3>
    546c:	00c12083          	lw	ra,12(sp)
    5470:	01010113          	addi	sp,sp,16
    5474:	00008067          	ret

00005478 <enable_timer_interrupt>:
    5478:	08000793          	li	a5,128
    547c:	3047a073          	csrs	mie,a5
    5480:	30046073          	csrsi	mstatus,8
    5484:	000057b7          	lui	a5,0x5
    5488:	52c78793          	addi	a5,a5,1324 # 552c <_mhandler>
    548c:	30579073          	csrw	mtvec,a5
    5490:	00008067          	ret

00005494 <start_profiler>:
    5494:	c0002773          	rdcycle	a4
    5498:	000227b7          	lui	a5,0x22
    549c:	62078793          	addi	a5,a5,1568 # 22620 <UART_BUF_TX>
    54a0:	0ee7a823          	sw	a4,240(a5)
    54a4:	c0202773          	rdinstret	a4
    54a8:	0ee7ac23          	sw	a4,248(a5)
    54ac:	c0102773          	rdtime	a4
    54b0:	0ee7aa23          	sw	a4,244(a5)
    54b4:	00008067          	ret

000054b8 <end_profiler>:
    54b8:	ff010113          	addi	sp,sp,-16
    54bc:	00112623          	sw	ra,12(sp)
    54c0:	00812423          	sw	s0,8(sp)
    54c4:	00912223          	sw	s1,4(sp)
    54c8:	01212023          	sw	s2,0(sp)
    54cc:	c00024f3          	rdcycle	s1
    54d0:	c0202973          	rdinstret	s2
    54d4:	c0102573          	rdtime	a0
    54d8:	00022437          	lui	s0,0x22
    54dc:	62040413          	addi	s0,s0,1568 # 22620 <UART_BUF_TX>
    54e0:	0f442783          	lw	a5,244(s0)
    54e4:	40f50533          	sub	a0,a0,a5
    54e8:	03200593          	li	a1,50
    54ec:	00451513          	slli	a0,a0,0x4
    54f0:	64c020ef          	jal	7b3c <__hidden___udivsi3>
    54f4:	00050693          	mv	a3,a0
    54f8:	0f842603          	lw	a2,248(s0)
    54fc:	0f042583          	lw	a1,240(s0)
    5500:	40c90633          	sub	a2,s2,a2
    5504:	40b485b3          	sub	a1,s1,a1
    5508:	00021537          	lui	a0,0x21
    550c:	2fc50513          	addi	a0,a0,764 # 212fc <__clz_tab+0xfd4>
    5510:	910ff0ef          	jal	4620 <printf>
    5514:	00c12083          	lw	ra,12(sp)
    5518:	00812403          	lw	s0,8(sp)
    551c:	00412483          	lw	s1,4(sp)
    5520:	00012903          	lw	s2,0(sp)
    5524:	01010113          	addi	sp,sp,16
    5528:	00008067          	ret

0000552c <_mhandler>:
    552c:	fc010113          	addi	sp,sp,-64
    5530:	00112023          	sw	ra,0(sp)
    5534:	00512223          	sw	t0,4(sp)
    5538:	00612423          	sw	t1,8(sp)
    553c:	00712623          	sw	t2,12(sp)
    5540:	00a12823          	sw	a0,16(sp)
    5544:	00b12a23          	sw	a1,20(sp)
    5548:	00c12c23          	sw	a2,24(sp)
    554c:	00d12e23          	sw	a3,28(sp)
    5550:	02e12023          	sw	a4,32(sp)
    5554:	02f12223          	sw	a5,36(sp)
    5558:	03012423          	sw	a6,40(sp)
    555c:	03112623          	sw	a7,44(sp)
    5560:	03c12823          	sw	t3,48(sp)
    5564:	03d12a23          	sw	t4,52(sp)
    5568:	03e12c23          	sw	t5,56(sp)
    556c:	03f12e23          	sw	t6,60(sp)
    5570:	965ff0ef          	jal	4ed4 <mhandler>
    5574:	00012083          	lw	ra,0(sp)
    5578:	00412283          	lw	t0,4(sp)
    557c:	00812303          	lw	t1,8(sp)
    5580:	00c12383          	lw	t2,12(sp)
    5584:	01012503          	lw	a0,16(sp)
    5588:	01412583          	lw	a1,20(sp)
    558c:	01812603          	lw	a2,24(sp)
    5590:	01c12683          	lw	a3,28(sp)
    5594:	02012703          	lw	a4,32(sp)
    5598:	02412783          	lw	a5,36(sp)
    559c:	02812803          	lw	a6,40(sp)
    55a0:	02c12883          	lw	a7,44(sp)
    55a4:	03012e03          	lw	t3,48(sp)
    55a8:	03412e83          	lw	t4,52(sp)
    55ac:	03812f03          	lw	t5,56(sp)
    55b0:	03c12f83          	lw	t6,60(sp)
    55b4:	04010113          	addi	sp,sp,64
    55b8:	30200073          	mret

000055bc <__divdi3>:
    55bc:	fd010113          	addi	sp,sp,-48
    55c0:	02912223          	sw	s1,36(sp)
    55c4:	01412c23          	sw	s4,24(sp)
    55c8:	02112623          	sw	ra,44(sp)
    55cc:	02812423          	sw	s0,40(sp)
    55d0:	03212023          	sw	s2,32(sp)
    55d4:	01312e23          	sw	s3,28(sp)
    55d8:	01512a23          	sw	s5,20(sp)
    55dc:	01612823          	sw	s6,16(sp)
    55e0:	01712623          	sw	s7,12(sp)
    55e4:	01812423          	sw	s8,8(sp)
    55e8:	01912223          	sw	s9,4(sp)
    55ec:	01a12023          	sw	s10,0(sp)
    55f0:	00050a13          	mv	s4,a0
    55f4:	00000493          	li	s1,0
    55f8:	0005dc63          	bgez	a1,5610 <__divdi3+0x54>
    55fc:	00a037b3          	snez	a5,a0
    5600:	40b005b3          	neg	a1,a1
    5604:	40f585b3          	sub	a1,a1,a5
    5608:	40a00a33          	neg	s4,a0
    560c:	fff00493          	li	s1,-1
    5610:	0006dc63          	bgez	a3,5628 <__divdi3+0x6c>
    5614:	00c037b3          	snez	a5,a2
    5618:	40d006b3          	neg	a3,a3
    561c:	fff4c493          	not	s1,s1
    5620:	40f686b3          	sub	a3,a3,a5
    5624:	40c00633          	neg	a2,a2
    5628:	00060a93          	mv	s5,a2
    562c:	000a0913          	mv	s2,s4
    5630:	00058993          	mv	s3,a1
    5634:	38069a63          	bnez	a3,59c8 <__divdi3+0x40c>
    5638:	000207b7          	lui	a5,0x20
    563c:	32878793          	addi	a5,a5,808 # 20328 <__clz_tab>
    5640:	12c5f663          	bgeu	a1,a2,576c <__divdi3+0x1b0>
    5644:	00010737          	lui	a4,0x10
    5648:	10e67863          	bgeu	a2,a4,5758 <__divdi3+0x19c>
    564c:	10063713          	sltiu	a4,a2,256
    5650:	00173713          	seqz	a4,a4
    5654:	00371713          	slli	a4,a4,0x3
    5658:	00e656b3          	srl	a3,a2,a4
    565c:	00d787b3          	add	a5,a5,a3
    5660:	0007c783          	lbu	a5,0(a5)
    5664:	02000693          	li	a3,32
    5668:	00e787b3          	add	a5,a5,a4
    566c:	40f68733          	sub	a4,a3,a5
    5670:	00f68c63          	beq	a3,a5,5688 <__divdi3+0xcc>
    5674:	00e599b3          	sll	s3,a1,a4
    5678:	00fa57b3          	srl	a5,s4,a5
    567c:	00e61ab3          	sll	s5,a2,a4
    5680:	0137e9b3          	or	s3,a5,s3
    5684:	00ea1933          	sll	s2,s4,a4
    5688:	010adb13          	srli	s6,s5,0x10
    568c:	000b0593          	mv	a1,s6
    5690:	00098513          	mv	a0,s3
    5694:	010a9b93          	slli	s7,s5,0x10
    5698:	4a4020ef          	jal	7b3c <__hidden___udivsi3>
    569c:	010bdb93          	srli	s7,s7,0x10
    56a0:	00050593          	mv	a1,a0
    56a4:	00050a13          	mv	s4,a0
    56a8:	000b8513          	mv	a0,s7
    56ac:	464020ef          	jal	7b10 <__mulsi3>
    56b0:	00050413          	mv	s0,a0
    56b4:	000b0593          	mv	a1,s6
    56b8:	00098513          	mv	a0,s3
    56bc:	4c8020ef          	jal	7b84 <__umodsi3>
    56c0:	01051513          	slli	a0,a0,0x10
    56c4:	01095713          	srli	a4,s2,0x10
    56c8:	00a76733          	or	a4,a4,a0
    56cc:	000a0993          	mv	s3,s4
    56d0:	00877e63          	bgeu	a4,s0,56ec <__divdi3+0x130>
    56d4:	00ea8733          	add	a4,s5,a4
    56d8:	fffa0993          	addi	s3,s4,-1
    56dc:	01576863          	bltu	a4,s5,56ec <__divdi3+0x130>
    56e0:	00877663          	bgeu	a4,s0,56ec <__divdi3+0x130>
    56e4:	ffea0993          	addi	s3,s4,-2
    56e8:	01570733          	add	a4,a4,s5
    56ec:	40870433          	sub	s0,a4,s0
    56f0:	000b0593          	mv	a1,s6
    56f4:	00040513          	mv	a0,s0
    56f8:	444020ef          	jal	7b3c <__hidden___udivsi3>
    56fc:	00050593          	mv	a1,a0
    5700:	00050a13          	mv	s4,a0
    5704:	000b8513          	mv	a0,s7
    5708:	408020ef          	jal	7b10 <__mulsi3>
    570c:	00050b93          	mv	s7,a0
    5710:	000b0593          	mv	a1,s6
    5714:	00040513          	mv	a0,s0
    5718:	46c020ef          	jal	7b84 <__umodsi3>
    571c:	01091913          	slli	s2,s2,0x10
    5720:	01051513          	slli	a0,a0,0x10
    5724:	01095913          	srli	s2,s2,0x10
    5728:	00a96933          	or	s2,s2,a0
    572c:	000a0713          	mv	a4,s4
    5730:	01797c63          	bgeu	s2,s7,5748 <__divdi3+0x18c>
    5734:	012a8933          	add	s2,s5,s2
    5738:	fffa0713          	addi	a4,s4,-1
    573c:	01596663          	bltu	s2,s5,5748 <__divdi3+0x18c>
    5740:	01797463          	bgeu	s2,s7,5748 <__divdi3+0x18c>
    5744:	ffea0713          	addi	a4,s4,-2
    5748:	01099793          	slli	a5,s3,0x10
    574c:	00e7e7b3          	or	a5,a5,a4
    5750:	00000993          	li	s3,0
    5754:	1200006f          	j	5874 <__divdi3+0x2b8>
    5758:	010006b7          	lui	a3,0x1000
    575c:	01800713          	li	a4,24
    5760:	eed67ce3          	bgeu	a2,a3,5658 <__divdi3+0x9c>
    5764:	01000713          	li	a4,16
    5768:	ef1ff06f          	j	5658 <__divdi3+0x9c>
    576c:	00000713          	li	a4,0
    5770:	00060c63          	beqz	a2,5788 <__divdi3+0x1cc>
    5774:	00010737          	lui	a4,0x10
    5778:	14e67863          	bgeu	a2,a4,58c8 <__divdi3+0x30c>
    577c:	10063713          	sltiu	a4,a2,256
    5780:	00173713          	seqz	a4,a4
    5784:	00371713          	slli	a4,a4,0x3
    5788:	00e656b3          	srl	a3,a2,a4
    578c:	00d787b3          	add	a5,a5,a3
    5790:	0007c783          	lbu	a5,0(a5)
    5794:	02000693          	li	a3,32
    5798:	00e787b3          	add	a5,a5,a4
    579c:	40f68733          	sub	a4,a3,a5
    57a0:	12f69e63          	bne	a3,a5,58dc <__divdi3+0x320>
    57a4:	40c58a33          	sub	s4,a1,a2
    57a8:	00100993          	li	s3,1
    57ac:	010adb13          	srli	s6,s5,0x10
    57b0:	000b0593          	mv	a1,s6
    57b4:	000a0513          	mv	a0,s4
    57b8:	010a9b93          	slli	s7,s5,0x10
    57bc:	380020ef          	jal	7b3c <__hidden___udivsi3>
    57c0:	010bdb93          	srli	s7,s7,0x10
    57c4:	00050593          	mv	a1,a0
    57c8:	00050c93          	mv	s9,a0
    57cc:	000b8513          	mv	a0,s7
    57d0:	340020ef          	jal	7b10 <__mulsi3>
    57d4:	00050c13          	mv	s8,a0
    57d8:	000b0593          	mv	a1,s6
    57dc:	000a0513          	mv	a0,s4
    57e0:	3a4020ef          	jal	7b84 <__umodsi3>
    57e4:	01051513          	slli	a0,a0,0x10
    57e8:	01095713          	srli	a4,s2,0x10
    57ec:	00a76733          	or	a4,a4,a0
    57f0:	000c8a13          	mv	s4,s9
    57f4:	01877e63          	bgeu	a4,s8,5810 <__divdi3+0x254>
    57f8:	00ea8733          	add	a4,s5,a4
    57fc:	fffc8a13          	addi	s4,s9,-1
    5800:	01576863          	bltu	a4,s5,5810 <__divdi3+0x254>
    5804:	01877663          	bgeu	a4,s8,5810 <__divdi3+0x254>
    5808:	ffec8a13          	addi	s4,s9,-2
    580c:	01570733          	add	a4,a4,s5
    5810:	41870433          	sub	s0,a4,s8
    5814:	000b0593          	mv	a1,s6
    5818:	00040513          	mv	a0,s0
    581c:	320020ef          	jal	7b3c <__hidden___udivsi3>
    5820:	00050593          	mv	a1,a0
    5824:	00050c13          	mv	s8,a0
    5828:	000b8513          	mv	a0,s7
    582c:	2e4020ef          	jal	7b10 <__mulsi3>
    5830:	00050b93          	mv	s7,a0
    5834:	000b0593          	mv	a1,s6
    5838:	00040513          	mv	a0,s0
    583c:	348020ef          	jal	7b84 <__umodsi3>
    5840:	01091913          	slli	s2,s2,0x10
    5844:	01051513          	slli	a0,a0,0x10
    5848:	01095913          	srli	s2,s2,0x10
    584c:	00a96933          	or	s2,s2,a0
    5850:	000c0713          	mv	a4,s8
    5854:	01797c63          	bgeu	s2,s7,586c <__divdi3+0x2b0>
    5858:	012a8933          	add	s2,s5,s2
    585c:	fffc0713          	addi	a4,s8,-1
    5860:	01596663          	bltu	s2,s5,586c <__divdi3+0x2b0>
    5864:	01797463          	bgeu	s2,s7,586c <__divdi3+0x2b0>
    5868:	ffec0713          	addi	a4,s8,-2
    586c:	010a1793          	slli	a5,s4,0x10
    5870:	00e7e7b3          	or	a5,a5,a4
    5874:	00078513          	mv	a0,a5
    5878:	00098593          	mv	a1,s3
    587c:	00048a63          	beqz	s1,5890 <__divdi3+0x2d4>
    5880:	00f037b3          	snez	a5,a5
    5884:	413005b3          	neg	a1,s3
    5888:	40f585b3          	sub	a1,a1,a5
    588c:	40a00533          	neg	a0,a0
    5890:	02c12083          	lw	ra,44(sp)
    5894:	02812403          	lw	s0,40(sp)
    5898:	02412483          	lw	s1,36(sp)
    589c:	02012903          	lw	s2,32(sp)
    58a0:	01c12983          	lw	s3,28(sp)
    58a4:	01812a03          	lw	s4,24(sp)
    58a8:	01412a83          	lw	s5,20(sp)
    58ac:	01012b03          	lw	s6,16(sp)
    58b0:	00c12b83          	lw	s7,12(sp)
    58b4:	00812c03          	lw	s8,8(sp)
    58b8:	00412c83          	lw	s9,4(sp)
    58bc:	00012d03          	lw	s10,0(sp)
    58c0:	03010113          	addi	sp,sp,48
    58c4:	00008067          	ret
    58c8:	010006b7          	lui	a3,0x1000
    58cc:	01800713          	li	a4,24
    58d0:	ead67ce3          	bgeu	a2,a3,5788 <__divdi3+0x1cc>
    58d4:	01000713          	li	a4,16
    58d8:	eb1ff06f          	j	5788 <__divdi3+0x1cc>
    58dc:	00e61ab3          	sll	s5,a2,a4
    58e0:	00f5d9b3          	srl	s3,a1,a5
    58e4:	010adb93          	srli	s7,s5,0x10
    58e8:	00e595b3          	sll	a1,a1,a4
    58ec:	00fa57b3          	srl	a5,s4,a5
    58f0:	00b7eb33          	or	s6,a5,a1
    58f4:	00ea1933          	sll	s2,s4,a4
    58f8:	000b8593          	mv	a1,s7
    58fc:	00098513          	mv	a0,s3
    5900:	010a9a13          	slli	s4,s5,0x10
    5904:	238020ef          	jal	7b3c <__hidden___udivsi3>
    5908:	010a5a13          	srli	s4,s4,0x10
    590c:	00050593          	mv	a1,a0
    5910:	00050c13          	mv	s8,a0
    5914:	000a0513          	mv	a0,s4
    5918:	1f8020ef          	jal	7b10 <__mulsi3>
    591c:	00050413          	mv	s0,a0
    5920:	000b8593          	mv	a1,s7
    5924:	00098513          	mv	a0,s3
    5928:	25c020ef          	jal	7b84 <__umodsi3>
    592c:	01051513          	slli	a0,a0,0x10
    5930:	010b5713          	srli	a4,s6,0x10
    5934:	00a76733          	or	a4,a4,a0
    5938:	000c0993          	mv	s3,s8
    593c:	00877e63          	bgeu	a4,s0,5958 <__divdi3+0x39c>
    5940:	00ea8733          	add	a4,s5,a4
    5944:	fffc0993          	addi	s3,s8,-1
    5948:	01576863          	bltu	a4,s5,5958 <__divdi3+0x39c>
    594c:	00877663          	bgeu	a4,s0,5958 <__divdi3+0x39c>
    5950:	ffec0993          	addi	s3,s8,-2
    5954:	01570733          	add	a4,a4,s5
    5958:	40870433          	sub	s0,a4,s0
    595c:	000b8593          	mv	a1,s7
    5960:	00040513          	mv	a0,s0
    5964:	1d8020ef          	jal	7b3c <__hidden___udivsi3>
    5968:	00050593          	mv	a1,a0
    596c:	00050c13          	mv	s8,a0
    5970:	000a0513          	mv	a0,s4
    5974:	19c020ef          	jal	7b10 <__mulsi3>
    5978:	00050a13          	mv	s4,a0
    597c:	000b8593          	mv	a1,s7
    5980:	00040513          	mv	a0,s0
    5984:	200020ef          	jal	7b84 <__umodsi3>
    5988:	010b1793          	slli	a5,s6,0x10
    598c:	01051513          	slli	a0,a0,0x10
    5990:	0107d793          	srli	a5,a5,0x10
    5994:	00a7e7b3          	or	a5,a5,a0
    5998:	000c0713          	mv	a4,s8
    599c:	0147fe63          	bgeu	a5,s4,59b8 <__divdi3+0x3fc>
    59a0:	00fa87b3          	add	a5,s5,a5
    59a4:	fffc0713          	addi	a4,s8,-1
    59a8:	0157e863          	bltu	a5,s5,59b8 <__divdi3+0x3fc>
    59ac:	0147f663          	bgeu	a5,s4,59b8 <__divdi3+0x3fc>
    59b0:	ffec0713          	addi	a4,s8,-2
    59b4:	015787b3          	add	a5,a5,s5
    59b8:	01099993          	slli	s3,s3,0x10
    59bc:	41478a33          	sub	s4,a5,s4
    59c0:	00e9e9b3          	or	s3,s3,a4
    59c4:	de9ff06f          	j	57ac <__divdi3+0x1f0>
    59c8:	1ed5ec63          	bltu	a1,a3,5bc0 <__divdi3+0x604>
    59cc:	000107b7          	lui	a5,0x10
    59d0:	04f6f463          	bgeu	a3,a5,5a18 <__divdi3+0x45c>
    59d4:	1006b713          	sltiu	a4,a3,256
    59d8:	00173713          	seqz	a4,a4
    59dc:	00371713          	slli	a4,a4,0x3
    59e0:	000207b7          	lui	a5,0x20
    59e4:	00e6d533          	srl	a0,a3,a4
    59e8:	32878793          	addi	a5,a5,808 # 20328 <__clz_tab>
    59ec:	00a787b3          	add	a5,a5,a0
    59f0:	0007c803          	lbu	a6,0(a5)
    59f4:	02000793          	li	a5,32
    59f8:	00e80833          	add	a6,a6,a4
    59fc:	410789b3          	sub	s3,a5,a6
    5a00:	03079663          	bne	a5,a6,5a2c <__divdi3+0x470>
    5a04:	00100793          	li	a5,1
    5a08:	e6b6e6e3          	bltu	a3,a1,5874 <__divdi3+0x2b8>
    5a0c:	00ca37b3          	sltu	a5,s4,a2
    5a10:	0017b793          	seqz	a5,a5
    5a14:	e61ff06f          	j	5874 <__divdi3+0x2b8>
    5a18:	010007b7          	lui	a5,0x1000
    5a1c:	01800713          	li	a4,24
    5a20:	fcf6f0e3          	bgeu	a3,a5,59e0 <__divdi3+0x424>
    5a24:	01000713          	li	a4,16
    5a28:	fb9ff06f          	j	59e0 <__divdi3+0x424>
    5a2c:	013696b3          	sll	a3,a3,s3
    5a30:	01065cb3          	srl	s9,a2,a6
    5a34:	00dcecb3          	or	s9,s9,a3
    5a38:	0105d933          	srl	s2,a1,a6
    5a3c:	010cdb93          	srli	s7,s9,0x10
    5a40:	010a5833          	srl	a6,s4,a6
    5a44:	013595b3          	sll	a1,a1,s3
    5a48:	00b86ab3          	or	s5,a6,a1
    5a4c:	00090513          	mv	a0,s2
    5a50:	000b8593          	mv	a1,s7
    5a54:	010c9c13          	slli	s8,s9,0x10
    5a58:	01361433          	sll	s0,a2,s3
    5a5c:	010c5c13          	srli	s8,s8,0x10
    5a60:	0dc020ef          	jal	7b3c <__hidden___udivsi3>
    5a64:	00050593          	mv	a1,a0
    5a68:	00050d13          	mv	s10,a0
    5a6c:	000c0513          	mv	a0,s8
    5a70:	0a0020ef          	jal	7b10 <__mulsi3>
    5a74:	00050b13          	mv	s6,a0
    5a78:	000b8593          	mv	a1,s7
    5a7c:	00090513          	mv	a0,s2
    5a80:	104020ef          	jal	7b84 <__umodsi3>
    5a84:	01051513          	slli	a0,a0,0x10
    5a88:	010ad693          	srli	a3,s5,0x10
    5a8c:	00a6e6b3          	or	a3,a3,a0
    5a90:	000d0913          	mv	s2,s10
    5a94:	0166fe63          	bgeu	a3,s6,5ab0 <__divdi3+0x4f4>
    5a98:	00dc86b3          	add	a3,s9,a3
    5a9c:	fffd0913          	addi	s2,s10,-1
    5aa0:	0196e863          	bltu	a3,s9,5ab0 <__divdi3+0x4f4>
    5aa4:	0166f663          	bgeu	a3,s6,5ab0 <__divdi3+0x4f4>
    5aa8:	ffed0913          	addi	s2,s10,-2
    5aac:	019686b3          	add	a3,a3,s9
    5ab0:	41668b33          	sub	s6,a3,s6
    5ab4:	000b8593          	mv	a1,s7
    5ab8:	000b0513          	mv	a0,s6
    5abc:	080020ef          	jal	7b3c <__hidden___udivsi3>
    5ac0:	00050593          	mv	a1,a0
    5ac4:	00050d13          	mv	s10,a0
    5ac8:	000c0513          	mv	a0,s8
    5acc:	044020ef          	jal	7b10 <__mulsi3>
    5ad0:	00050c13          	mv	s8,a0
    5ad4:	000b8593          	mv	a1,s7
    5ad8:	000b0513          	mv	a0,s6
    5adc:	0a8020ef          	jal	7b84 <__umodsi3>
    5ae0:	010a9713          	slli	a4,s5,0x10
    5ae4:	01051513          	slli	a0,a0,0x10
    5ae8:	01075713          	srli	a4,a4,0x10
    5aec:	00a76733          	or	a4,a4,a0
    5af0:	000d0693          	mv	a3,s10
    5af4:	01877e63          	bgeu	a4,s8,5b10 <__divdi3+0x554>
    5af8:	00ec8733          	add	a4,s9,a4
    5afc:	fffd0693          	addi	a3,s10,-1
    5b00:	01976863          	bltu	a4,s9,5b10 <__divdi3+0x554>
    5b04:	01877663          	bgeu	a4,s8,5b10 <__divdi3+0x554>
    5b08:	ffed0693          	addi	a3,s10,-2
    5b0c:	01970733          	add	a4,a4,s9
    5b10:	01091793          	slli	a5,s2,0x10
    5b14:	01069813          	slli	a6,a3,0x10
    5b18:	01041313          	slli	t1,s0,0x10
    5b1c:	00d7e7b3          	or	a5,a5,a3
    5b20:	01085813          	srli	a6,a6,0x10
    5b24:	01035313          	srli	t1,t1,0x10
    5b28:	41870733          	sub	a4,a4,s8
    5b2c:	0107de13          	srli	t3,a5,0x10
    5b30:	01045413          	srli	s0,s0,0x10
    5b34:	00080513          	mv	a0,a6
    5b38:	00030593          	mv	a1,t1
    5b3c:	7d5010ef          	jal	7b10 <__mulsi3>
    5b40:	00050893          	mv	a7,a0
    5b44:	00040593          	mv	a1,s0
    5b48:	00080513          	mv	a0,a6
    5b4c:	7c5010ef          	jal	7b10 <__mulsi3>
    5b50:	00050813          	mv	a6,a0
    5b54:	00030593          	mv	a1,t1
    5b58:	000e0513          	mv	a0,t3
    5b5c:	7b5010ef          	jal	7b10 <__mulsi3>
    5b60:	00050313          	mv	t1,a0
    5b64:	00040593          	mv	a1,s0
    5b68:	000e0513          	mv	a0,t3
    5b6c:	7a5010ef          	jal	7b10 <__mulsi3>
    5b70:	0108d693          	srli	a3,a7,0x10
    5b74:	00680833          	add	a6,a6,t1
    5b78:	010686b3          	add	a3,a3,a6
    5b7c:	00050613          	mv	a2,a0
    5b80:	0066f663          	bgeu	a3,t1,5b8c <__divdi3+0x5d0>
    5b84:	000105b7          	lui	a1,0x10
    5b88:	00b50633          	add	a2,a0,a1
    5b8c:	0106d593          	srli	a1,a3,0x10
    5b90:	00c58633          	add	a2,a1,a2
    5b94:	02c76263          	bltu	a4,a2,5bb8 <__divdi3+0x5fc>
    5b98:	bac71ce3          	bne	a4,a2,5750 <__divdi3+0x194>
    5b9c:	01089893          	slli	a7,a7,0x10
    5ba0:	01069693          	slli	a3,a3,0x10
    5ba4:	0108d893          	srli	a7,a7,0x10
    5ba8:	013a1733          	sll	a4,s4,s3
    5bac:	011686b3          	add	a3,a3,a7
    5bb0:	00000993          	li	s3,0
    5bb4:	ccd770e3          	bgeu	a4,a3,5874 <__divdi3+0x2b8>
    5bb8:	fff78793          	addi	a5,a5,-1 # ffffff <stack_bot+0xfdafff>
    5bbc:	b95ff06f          	j	5750 <__divdi3+0x194>
    5bc0:	00000993          	li	s3,0
    5bc4:	00000793          	li	a5,0
    5bc8:	cadff06f          	j	5874 <__divdi3+0x2b8>

00005bcc <__moddi3>:
    5bcc:	fc010113          	addi	sp,sp,-64
    5bd0:	02912a23          	sw	s1,52(sp)
    5bd4:	02112e23          	sw	ra,60(sp)
    5bd8:	02812c23          	sw	s0,56(sp)
    5bdc:	03212823          	sw	s2,48(sp)
    5be0:	03312623          	sw	s3,44(sp)
    5be4:	03412423          	sw	s4,40(sp)
    5be8:	03512223          	sw	s5,36(sp)
    5bec:	03612023          	sw	s6,32(sp)
    5bf0:	01712e23          	sw	s7,28(sp)
    5bf4:	01812c23          	sw	s8,24(sp)
    5bf8:	01912a23          	sw	s9,20(sp)
    5bfc:	01a12823          	sw	s10,16(sp)
    5c00:	01b12623          	sw	s11,12(sp)
    5c04:	00000493          	li	s1,0
    5c08:	0005dc63          	bgez	a1,5c20 <__moddi3+0x54>
    5c0c:	00a037b3          	snez	a5,a0
    5c10:	40b005b3          	neg	a1,a1
    5c14:	40f585b3          	sub	a1,a1,a5
    5c18:	40a00533          	neg	a0,a0
    5c1c:	fff00493          	li	s1,-1
    5c20:	0006da63          	bgez	a3,5c34 <__moddi3+0x68>
    5c24:	00c037b3          	snez	a5,a2
    5c28:	40d006b3          	neg	a3,a3
    5c2c:	40f686b3          	sub	a3,a3,a5
    5c30:	40c00633          	neg	a2,a2
    5c34:	00060a13          	mv	s4,a2
    5c38:	00050413          	mv	s0,a0
    5c3c:	00058b13          	mv	s6,a1
    5c40:	2c069e63          	bnez	a3,5f1c <__moddi3+0x350>
    5c44:	000207b7          	lui	a5,0x20
    5c48:	32878793          	addi	a5,a5,808 # 20328 <__clz_tab>
    5c4c:	14c5fa63          	bgeu	a1,a2,5da0 <__moddi3+0x1d4>
    5c50:	00010737          	lui	a4,0x10
    5c54:	12e67c63          	bgeu	a2,a4,5d8c <__moddi3+0x1c0>
    5c58:	10063713          	sltiu	a4,a2,256
    5c5c:	00173713          	seqz	a4,a4
    5c60:	00371713          	slli	a4,a4,0x3
    5c64:	00e656b3          	srl	a3,a2,a4
    5c68:	00d787b3          	add	a5,a5,a3
    5c6c:	0007c783          	lbu	a5,0(a5)
    5c70:	00e787b3          	add	a5,a5,a4
    5c74:	02000713          	li	a4,32
    5c78:	40f709b3          	sub	s3,a4,a5
    5c7c:	00f70c63          	beq	a4,a5,5c94 <__moddi3+0xc8>
    5c80:	013595b3          	sll	a1,a1,s3
    5c84:	00f557b3          	srl	a5,a0,a5
    5c88:	01361a33          	sll	s4,a2,s3
    5c8c:	00b7eb33          	or	s6,a5,a1
    5c90:	01351433          	sll	s0,a0,s3
    5c94:	010a5b93          	srli	s7,s4,0x10
    5c98:	000b8593          	mv	a1,s7
    5c9c:	010a1a93          	slli	s5,s4,0x10
    5ca0:	000b0513          	mv	a0,s6
    5ca4:	699010ef          	jal	7b3c <__hidden___udivsi3>
    5ca8:	010ada93          	srli	s5,s5,0x10
    5cac:	000a8593          	mv	a1,s5
    5cb0:	661010ef          	jal	7b10 <__mulsi3>
    5cb4:	00050913          	mv	s2,a0
    5cb8:	000b8593          	mv	a1,s7
    5cbc:	000b0513          	mv	a0,s6
    5cc0:	6c5010ef          	jal	7b84 <__umodsi3>
    5cc4:	01051513          	slli	a0,a0,0x10
    5cc8:	01045793          	srli	a5,s0,0x10
    5ccc:	00a7e7b3          	or	a5,a5,a0
    5cd0:	0127fa63          	bgeu	a5,s2,5ce4 <__moddi3+0x118>
    5cd4:	00fa07b3          	add	a5,s4,a5
    5cd8:	0147e663          	bltu	a5,s4,5ce4 <__moddi3+0x118>
    5cdc:	0127f463          	bgeu	a5,s2,5ce4 <__moddi3+0x118>
    5ce0:	014787b3          	add	a5,a5,s4
    5ce4:	41278933          	sub	s2,a5,s2
    5ce8:	000b8593          	mv	a1,s7
    5cec:	00090513          	mv	a0,s2
    5cf0:	64d010ef          	jal	7b3c <__hidden___udivsi3>
    5cf4:	000a8593          	mv	a1,s5
    5cf8:	619010ef          	jal	7b10 <__mulsi3>
    5cfc:	00050a93          	mv	s5,a0
    5d00:	000b8593          	mv	a1,s7
    5d04:	00090513          	mv	a0,s2
    5d08:	67d010ef          	jal	7b84 <__umodsi3>
    5d0c:	01041413          	slli	s0,s0,0x10
    5d10:	01051513          	slli	a0,a0,0x10
    5d14:	01045413          	srli	s0,s0,0x10
    5d18:	00a46433          	or	s0,s0,a0
    5d1c:	01547a63          	bgeu	s0,s5,5d30 <__moddi3+0x164>
    5d20:	008a0433          	add	s0,s4,s0
    5d24:	01446663          	bltu	s0,s4,5d30 <__moddi3+0x164>
    5d28:	01547463          	bgeu	s0,s5,5d30 <__moddi3+0x164>
    5d2c:	01440433          	add	s0,s0,s4
    5d30:	41540433          	sub	s0,s0,s5
    5d34:	01345533          	srl	a0,s0,s3
    5d38:	00000593          	li	a1,0
    5d3c:	00048a63          	beqz	s1,5d50 <__moddi3+0x184>
    5d40:	00a037b3          	snez	a5,a0
    5d44:	40b005b3          	neg	a1,a1
    5d48:	40f585b3          	sub	a1,a1,a5
    5d4c:	40a00533          	neg	a0,a0
    5d50:	03c12083          	lw	ra,60(sp)
    5d54:	03812403          	lw	s0,56(sp)
    5d58:	03412483          	lw	s1,52(sp)
    5d5c:	03012903          	lw	s2,48(sp)
    5d60:	02c12983          	lw	s3,44(sp)
    5d64:	02812a03          	lw	s4,40(sp)
    5d68:	02412a83          	lw	s5,36(sp)
    5d6c:	02012b03          	lw	s6,32(sp)
    5d70:	01c12b83          	lw	s7,28(sp)
    5d74:	01812c03          	lw	s8,24(sp)
    5d78:	01412c83          	lw	s9,20(sp)
    5d7c:	01012d03          	lw	s10,16(sp)
    5d80:	00c12d83          	lw	s11,12(sp)
    5d84:	04010113          	addi	sp,sp,64
    5d88:	00008067          	ret
    5d8c:	010006b7          	lui	a3,0x1000
    5d90:	01800713          	li	a4,24
    5d94:	ecd678e3          	bgeu	a2,a3,5c64 <__moddi3+0x98>
    5d98:	01000713          	li	a4,16
    5d9c:	ec9ff06f          	j	5c64 <__moddi3+0x98>
    5da0:	00000713          	li	a4,0
    5da4:	00060c63          	beqz	a2,5dbc <__moddi3+0x1f0>
    5da8:	00010737          	lui	a4,0x10
    5dac:	14e67e63          	bgeu	a2,a4,5f08 <__moddi3+0x33c>
    5db0:	10063713          	sltiu	a4,a2,256
    5db4:	00173713          	seqz	a4,a4
    5db8:	00371713          	slli	a4,a4,0x3
    5dbc:	00e656b3          	srl	a3,a2,a4
    5dc0:	00d787b3          	add	a5,a5,a3
    5dc4:	0007c783          	lbu	a5,0(a5)
    5dc8:	40c58933          	sub	s2,a1,a2
    5dcc:	00e787b3          	add	a5,a5,a4
    5dd0:	02000713          	li	a4,32
    5dd4:	40f709b3          	sub	s3,a4,a5
    5dd8:	0af70e63          	beq	a4,a5,5e94 <__moddi3+0x2c8>
    5ddc:	01361a33          	sll	s4,a2,s3
    5de0:	00f5d933          	srl	s2,a1,a5
    5de4:	010a5b93          	srli	s7,s4,0x10
    5de8:	00f557b3          	srl	a5,a0,a5
    5dec:	013595b3          	sll	a1,a1,s3
    5df0:	00b7eab3          	or	s5,a5,a1
    5df4:	01351433          	sll	s0,a0,s3
    5df8:	000b8593          	mv	a1,s7
    5dfc:	010a1b13          	slli	s6,s4,0x10
    5e00:	00090513          	mv	a0,s2
    5e04:	539010ef          	jal	7b3c <__hidden___udivsi3>
    5e08:	010b5b13          	srli	s6,s6,0x10
    5e0c:	000b0593          	mv	a1,s6
    5e10:	501010ef          	jal	7b10 <__mulsi3>
    5e14:	00050c13          	mv	s8,a0
    5e18:	000b8593          	mv	a1,s7
    5e1c:	00090513          	mv	a0,s2
    5e20:	565010ef          	jal	7b84 <__umodsi3>
    5e24:	01051513          	slli	a0,a0,0x10
    5e28:	010ad713          	srli	a4,s5,0x10
    5e2c:	00a76733          	or	a4,a4,a0
    5e30:	01877a63          	bgeu	a4,s8,5e44 <__moddi3+0x278>
    5e34:	00ea0733          	add	a4,s4,a4
    5e38:	01476663          	bltu	a4,s4,5e44 <__moddi3+0x278>
    5e3c:	01877463          	bgeu	a4,s8,5e44 <__moddi3+0x278>
    5e40:	01470733          	add	a4,a4,s4
    5e44:	41870c33          	sub	s8,a4,s8
    5e48:	000b8593          	mv	a1,s7
    5e4c:	000c0513          	mv	a0,s8
    5e50:	4ed010ef          	jal	7b3c <__hidden___udivsi3>
    5e54:	000b0593          	mv	a1,s6
    5e58:	4b9010ef          	jal	7b10 <__mulsi3>
    5e5c:	00050b13          	mv	s6,a0
    5e60:	000b8593          	mv	a1,s7
    5e64:	000c0513          	mv	a0,s8
    5e68:	51d010ef          	jal	7b84 <__umodsi3>
    5e6c:	010a9793          	slli	a5,s5,0x10
    5e70:	01051513          	slli	a0,a0,0x10
    5e74:	0107d793          	srli	a5,a5,0x10
    5e78:	00a7e7b3          	or	a5,a5,a0
    5e7c:	0167fa63          	bgeu	a5,s6,5e90 <__moddi3+0x2c4>
    5e80:	00fa07b3          	add	a5,s4,a5
    5e84:	0147e663          	bltu	a5,s4,5e90 <__moddi3+0x2c4>
    5e88:	0167f463          	bgeu	a5,s6,5e90 <__moddi3+0x2c4>
    5e8c:	014787b3          	add	a5,a5,s4
    5e90:	41678933          	sub	s2,a5,s6
    5e94:	010a5b13          	srli	s6,s4,0x10
    5e98:	000b0593          	mv	a1,s6
    5e9c:	010a1b93          	slli	s7,s4,0x10
    5ea0:	00090513          	mv	a0,s2
    5ea4:	499010ef          	jal	7b3c <__hidden___udivsi3>
    5ea8:	010bdb93          	srli	s7,s7,0x10
    5eac:	000b8593          	mv	a1,s7
    5eb0:	461010ef          	jal	7b10 <__mulsi3>
    5eb4:	00050a93          	mv	s5,a0
    5eb8:	000b0593          	mv	a1,s6
    5ebc:	00090513          	mv	a0,s2
    5ec0:	4c5010ef          	jal	7b84 <__umodsi3>
    5ec4:	01051513          	slli	a0,a0,0x10
    5ec8:	01045793          	srli	a5,s0,0x10
    5ecc:	00a7e7b3          	or	a5,a5,a0
    5ed0:	0157fa63          	bgeu	a5,s5,5ee4 <__moddi3+0x318>
    5ed4:	00fa07b3          	add	a5,s4,a5
    5ed8:	0147e663          	bltu	a5,s4,5ee4 <__moddi3+0x318>
    5edc:	0157f463          	bgeu	a5,s5,5ee4 <__moddi3+0x318>
    5ee0:	014787b3          	add	a5,a5,s4
    5ee4:	41578933          	sub	s2,a5,s5
    5ee8:	000b0593          	mv	a1,s6
    5eec:	00090513          	mv	a0,s2
    5ef0:	44d010ef          	jal	7b3c <__hidden___udivsi3>
    5ef4:	000b8593          	mv	a1,s7
    5ef8:	419010ef          	jal	7b10 <__mulsi3>
    5efc:	00050a93          	mv	s5,a0
    5f00:	000b0593          	mv	a1,s6
    5f04:	e01ff06f          	j	5d04 <__moddi3+0x138>
    5f08:	010006b7          	lui	a3,0x1000
    5f0c:	01800713          	li	a4,24
    5f10:	ead676e3          	bgeu	a2,a3,5dbc <__moddi3+0x1f0>
    5f14:	01000713          	li	a4,16
    5f18:	ea5ff06f          	j	5dbc <__moddi3+0x1f0>
    5f1c:	e2d5e0e3          	bltu	a1,a3,5d3c <__moddi3+0x170>
    5f20:	000107b7          	lui	a5,0x10
    5f24:	04f6fe63          	bgeu	a3,a5,5f80 <__moddi3+0x3b4>
    5f28:	1006b793          	sltiu	a5,a3,256
    5f2c:	0017b793          	seqz	a5,a5
    5f30:	00379793          	slli	a5,a5,0x3
    5f34:	00020737          	lui	a4,0x20
    5f38:	00f6d833          	srl	a6,a3,a5
    5f3c:	32870713          	addi	a4,a4,808 # 20328 <__clz_tab>
    5f40:	01070733          	add	a4,a4,a6
    5f44:	00074a83          	lbu	s5,0(a4)
    5f48:	00fa8ab3          	add	s5,s5,a5
    5f4c:	02000793          	li	a5,32
    5f50:	41578a33          	sub	s4,a5,s5
    5f54:	05579063          	bne	a5,s5,5f94 <__moddi3+0x3c8>
    5f58:	00b6e463          	bltu	a3,a1,5f60 <__moddi3+0x394>
    5f5c:	00c56c63          	bltu	a0,a2,5f74 <__moddi3+0x3a8>
    5f60:	40c50933          	sub	s2,a0,a2
    5f64:	40d586b3          	sub	a3,a1,a3
    5f68:	012535b3          	sltu	a1,a0,s2
    5f6c:	00090413          	mv	s0,s2
    5f70:	40b68b33          	sub	s6,a3,a1
    5f74:	00040513          	mv	a0,s0
    5f78:	000b0593          	mv	a1,s6
    5f7c:	dc1ff06f          	j	5d3c <__moddi3+0x170>
    5f80:	01000737          	lui	a4,0x1000
    5f84:	01800793          	li	a5,24
    5f88:	fae6f6e3          	bgeu	a3,a4,5f34 <__moddi3+0x368>
    5f8c:	01000793          	li	a5,16
    5f90:	fa5ff06f          	j	5f34 <__moddi3+0x368>
    5f94:	014696b3          	sll	a3,a3,s4
    5f98:	01565b33          	srl	s6,a2,s5
    5f9c:	00db6b33          	or	s6,s6,a3
    5fa0:	0155dcb3          	srl	s9,a1,s5
    5fa4:	01555433          	srl	s0,a0,s5
    5fa8:	014595b3          	sll	a1,a1,s4
    5fac:	010b5b93          	srli	s7,s6,0x10
    5fb0:	00b46433          	or	s0,s0,a1
    5fb4:	014519b3          	sll	s3,a0,s4
    5fb8:	000b8593          	mv	a1,s7
    5fbc:	000c8513          	mv	a0,s9
    5fc0:	010b1c13          	slli	s8,s6,0x10
    5fc4:	01461933          	sll	s2,a2,s4
    5fc8:	010c5c13          	srli	s8,s8,0x10
    5fcc:	371010ef          	jal	7b3c <__hidden___udivsi3>
    5fd0:	00050593          	mv	a1,a0
    5fd4:	00050d93          	mv	s11,a0
    5fd8:	000c0513          	mv	a0,s8
    5fdc:	335010ef          	jal	7b10 <__mulsi3>
    5fe0:	00050d13          	mv	s10,a0
    5fe4:	000b8593          	mv	a1,s7
    5fe8:	000c8513          	mv	a0,s9
    5fec:	399010ef          	jal	7b84 <__umodsi3>
    5ff0:	01051513          	slli	a0,a0,0x10
    5ff4:	01045793          	srli	a5,s0,0x10
    5ff8:	00a7e7b3          	or	a5,a5,a0
    5ffc:	000d8c93          	mv	s9,s11
    6000:	01a7fe63          	bgeu	a5,s10,601c <__moddi3+0x450>
    6004:	00fb07b3          	add	a5,s6,a5
    6008:	fffd8c93          	addi	s9,s11,-1
    600c:	0167e863          	bltu	a5,s6,601c <__moddi3+0x450>
    6010:	01a7f663          	bgeu	a5,s10,601c <__moddi3+0x450>
    6014:	ffed8c93          	addi	s9,s11,-2
    6018:	016787b3          	add	a5,a5,s6
    601c:	41a78d33          	sub	s10,a5,s10
    6020:	000b8593          	mv	a1,s7
    6024:	000d0513          	mv	a0,s10
    6028:	315010ef          	jal	7b3c <__hidden___udivsi3>
    602c:	00050593          	mv	a1,a0
    6030:	00050d93          	mv	s11,a0
    6034:	000c0513          	mv	a0,s8
    6038:	2d9010ef          	jal	7b10 <__mulsi3>
    603c:	000b8593          	mv	a1,s7
    6040:	00050c13          	mv	s8,a0
    6044:	000d0513          	mv	a0,s10
    6048:	33d010ef          	jal	7b84 <__umodsi3>
    604c:	01041593          	slli	a1,s0,0x10
    6050:	01051513          	slli	a0,a0,0x10
    6054:	0105d593          	srli	a1,a1,0x10
    6058:	00a5e5b3          	or	a1,a1,a0
    605c:	000d8793          	mv	a5,s11
    6060:	0185fe63          	bgeu	a1,s8,607c <__moddi3+0x4b0>
    6064:	00bb05b3          	add	a1,s6,a1
    6068:	fffd8793          	addi	a5,s11,-1
    606c:	0165e863          	bltu	a1,s6,607c <__moddi3+0x4b0>
    6070:	0185f663          	bgeu	a1,s8,607c <__moddi3+0x4b0>
    6074:	ffed8793          	addi	a5,s11,-2
    6078:	016585b3          	add	a1,a1,s6
    607c:	010c9c93          	slli	s9,s9,0x10
    6080:	00fcecb3          	or	s9,s9,a5
    6084:	01091313          	slli	t1,s2,0x10
    6088:	01079793          	slli	a5,a5,0x10
    608c:	0107d793          	srli	a5,a5,0x10
    6090:	01035313          	srli	t1,t1,0x10
    6094:	41858733          	sub	a4,a1,s8
    6098:	010cdc93          	srli	s9,s9,0x10
    609c:	01095893          	srli	a7,s2,0x10
    60a0:	00078513          	mv	a0,a5
    60a4:	00030593          	mv	a1,t1
    60a8:	269010ef          	jal	7b10 <__mulsi3>
    60ac:	00050813          	mv	a6,a0
    60b0:	00088593          	mv	a1,a7
    60b4:	00078513          	mv	a0,a5
    60b8:	259010ef          	jal	7b10 <__mulsi3>
    60bc:	00050413          	mv	s0,a0
    60c0:	00030593          	mv	a1,t1
    60c4:	000c8513          	mv	a0,s9
    60c8:	249010ef          	jal	7b10 <__mulsi3>
    60cc:	00050793          	mv	a5,a0
    60d0:	00088593          	mv	a1,a7
    60d4:	000c8513          	mv	a0,s9
    60d8:	239010ef          	jal	7b10 <__mulsi3>
    60dc:	00f40433          	add	s0,s0,a5
    60e0:	01085693          	srli	a3,a6,0x10
    60e4:	00d40433          	add	s0,s0,a3
    60e8:	00f47663          	bgeu	s0,a5,60f4 <__moddi3+0x528>
    60ec:	000107b7          	lui	a5,0x10
    60f0:	00f50533          	add	a0,a0,a5
    60f4:	01045793          	srli	a5,s0,0x10
    60f8:	01081813          	slli	a6,a6,0x10
    60fc:	01041413          	slli	s0,s0,0x10
    6100:	01085813          	srli	a6,a6,0x10
    6104:	00a787b3          	add	a5,a5,a0
    6108:	01040433          	add	s0,s0,a6
    610c:	00f76663          	bltu	a4,a5,6118 <__moddi3+0x54c>
    6110:	00f71e63          	bne	a4,a5,612c <__moddi3+0x560>
    6114:	0089fc63          	bgeu	s3,s0,612c <__moddi3+0x560>
    6118:	41240933          	sub	s2,s0,s2
    611c:	012436b3          	sltu	a3,s0,s2
    6120:	016686b3          	add	a3,a3,s6
    6124:	00090413          	mv	s0,s2
    6128:	40d787b3          	sub	a5,a5,a3
    612c:	40898433          	sub	s0,s3,s0
    6130:	0089b9b3          	sltu	s3,s3,s0
    6134:	40f705b3          	sub	a1,a4,a5
    6138:	413585b3          	sub	a1,a1,s3
    613c:	01559ab3          	sll	s5,a1,s5
    6140:	01445433          	srl	s0,s0,s4
    6144:	008ae533          	or	a0,s5,s0
    6148:	0145d5b3          	srl	a1,a1,s4
    614c:	bf1ff06f          	j	5d3c <__moddi3+0x170>

00006150 <__divdf3>:
    6150:	fb010113          	addi	sp,sp,-80
    6154:	03512a23          	sw	s5,52(sp)
    6158:	0145da93          	srli	s5,a1,0x14
    615c:	04812423          	sw	s0,72(sp)
    6160:	03412c23          	sw	s4,56(sp)
    6164:	03612823          	sw	s6,48(sp)
    6168:	03812423          	sw	s8,40(sp)
    616c:	03a12023          	sw	s10,32(sp)
    6170:	00c59413          	slli	s0,a1,0xc
    6174:	04112623          	sw	ra,76(sp)
    6178:	04912223          	sw	s1,68(sp)
    617c:	05212023          	sw	s2,64(sp)
    6180:	03312e23          	sw	s3,60(sp)
    6184:	03712623          	sw	s7,44(sp)
    6188:	03912223          	sw	s9,36(sp)
    618c:	01b12e23          	sw	s11,28(sp)
    6190:	7ffafa93          	andi	s5,s5,2047
    6194:	00050a13          	mv	s4,a0
    6198:	00060d13          	mv	s10,a2
    619c:	00068c13          	mv	s8,a3
    61a0:	00c45413          	srli	s0,s0,0xc
    61a4:	01f5db13          	srli	s6,a1,0x1f
    61a8:	0a0a8063          	beqz	s5,6248 <__divdf3+0xf8>
    61ac:	7ff00793          	li	a5,2047
    61b0:	10fa8063          	beq	s5,a5,62b0 <__divdf3+0x160>
    61b4:	01d55b93          	srli	s7,a0,0x1d
    61b8:	00341413          	slli	s0,s0,0x3
    61bc:	008bebb3          	or	s7,s7,s0
    61c0:	008007b7          	lui	a5,0x800
    61c4:	00fbebb3          	or	s7,s7,a5
    61c8:	00351493          	slli	s1,a0,0x3
    61cc:	c01a8a93          	addi	s5,s5,-1023
    61d0:	00000c93          	li	s9,0
    61d4:	014c5713          	srli	a4,s8,0x14
    61d8:	00cc1413          	slli	s0,s8,0xc
    61dc:	7ff77713          	andi	a4,a4,2047
    61e0:	00c45413          	srli	s0,s0,0xc
    61e4:	01fc5c13          	srli	s8,s8,0x1f
    61e8:	0e070e63          	beqz	a4,62e4 <__divdf3+0x194>
    61ec:	7ff00793          	li	a5,2047
    61f0:	16f70263          	beq	a4,a5,6354 <__divdf3+0x204>
    61f4:	00341413          	slli	s0,s0,0x3
    61f8:	01dd5793          	srli	a5,s10,0x1d
    61fc:	0087e7b3          	or	a5,a5,s0
    6200:	00800437          	lui	s0,0x800
    6204:	0087e433          	or	s0,a5,s0
    6208:	003d1813          	slli	a6,s10,0x3
    620c:	c0170713          	addi	a4,a4,-1023 # fffc01 <stack_bot+0xfdac01>
    6210:	00000693          	li	a3,0
    6214:	002c9793          	slli	a5,s9,0x2
    6218:	00d7e7b3          	or	a5,a5,a3
    621c:	40ea8ab3          	sub	s5,s5,a4
    6220:	fff78793          	addi	a5,a5,-1 # 7fffff <stack_bot+0x7dafff>
    6224:	00e00713          	li	a4,14
    6228:	018b4a33          	xor	s4,s6,s8
    622c:	14f76c63          	bltu	a4,a5,6384 <__divdf3+0x234>
    6230:	00020737          	lui	a4,0x20
    6234:	00279793          	slli	a5,a5,0x2
    6238:	2ec70713          	addi	a4,a4,748 # 202ec <ranks+0x20c>
    623c:	00e787b3          	add	a5,a5,a4
    6240:	0007a783          	lw	a5,0(a5)
    6244:	00078067          	jr	a5
    6248:	00a46bb3          	or	s7,s0,a0
    624c:	060b8c63          	beqz	s7,62c4 <__divdf3+0x174>
    6250:	02040e63          	beqz	s0,628c <__divdf3+0x13c>
    6254:	00040513          	mv	a0,s0
    6258:	201010ef          	jal	7c58 <__clzsi2>
    625c:	ff550793          	addi	a5,a0,-11
    6260:	01d00b93          	li	s7,29
    6264:	ff850713          	addi	a4,a0,-8
    6268:	40fb8bb3          	sub	s7,s7,a5
    626c:	00e41433          	sll	s0,s0,a4
    6270:	017a5bb3          	srl	s7,s4,s7
    6274:	008bebb3          	or	s7,s7,s0
    6278:	00ea1433          	sll	s0,s4,a4
    627c:	c0d00a93          	li	s5,-1011
    6280:	40aa8ab3          	sub	s5,s5,a0
    6284:	00040493          	mv	s1,s0
    6288:	f49ff06f          	j	61d0 <__divdf3+0x80>
    628c:	1cd010ef          	jal	7c58 <__clzsi2>
    6290:	00050b93          	mv	s7,a0
    6294:	015b8793          	addi	a5,s7,21
    6298:	01c00713          	li	a4,28
    629c:	02050513          	addi	a0,a0,32
    62a0:	fcf750e3          	bge	a4,a5,6260 <__divdf3+0x110>
    62a4:	ff8b8b93          	addi	s7,s7,-8
    62a8:	017a1bb3          	sll	s7,s4,s7
    62ac:	fd1ff06f          	j	627c <__divdf3+0x12c>
    62b0:	00a46bb3          	or	s7,s0,a0
    62b4:	020b9063          	bnez	s7,62d4 <__divdf3+0x184>
    62b8:	00000493          	li	s1,0
    62bc:	00200c93          	li	s9,2
    62c0:	f15ff06f          	j	61d4 <__divdf3+0x84>
    62c4:	00000493          	li	s1,0
    62c8:	00000a93          	li	s5,0
    62cc:	00100c93          	li	s9,1
    62d0:	f05ff06f          	j	61d4 <__divdf3+0x84>
    62d4:	00050493          	mv	s1,a0
    62d8:	00040b93          	mv	s7,s0
    62dc:	00300c93          	li	s9,3
    62e0:	ef5ff06f          	j	61d4 <__divdf3+0x84>
    62e4:	01a46833          	or	a6,s0,s10
    62e8:	08080063          	beqz	a6,6368 <__divdf3+0x218>
    62ec:	04040063          	beqz	s0,632c <__divdf3+0x1dc>
    62f0:	00040513          	mv	a0,s0
    62f4:	165010ef          	jal	7c58 <__clzsi2>
    62f8:	ff550713          	addi	a4,a0,-11
    62fc:	01d00793          	li	a5,29
    6300:	ff850693          	addi	a3,a0,-8
    6304:	40e787b3          	sub	a5,a5,a4
    6308:	00d41433          	sll	s0,s0,a3
    630c:	00fd57b3          	srl	a5,s10,a5
    6310:	0087e7b3          	or	a5,a5,s0
    6314:	00dd1433          	sll	s0,s10,a3
    6318:	c0d00713          	li	a4,-1011
    631c:	00040813          	mv	a6,s0
    6320:	40a70733          	sub	a4,a4,a0
    6324:	00078413          	mv	s0,a5
    6328:	ee9ff06f          	j	6210 <__divdf3+0xc0>
    632c:	000d0513          	mv	a0,s10
    6330:	129010ef          	jal	7c58 <__clzsi2>
    6334:	00050793          	mv	a5,a0
    6338:	01578713          	addi	a4,a5,21
    633c:	01c00693          	li	a3,28
    6340:	02050513          	addi	a0,a0,32
    6344:	fae6dce3          	bge	a3,a4,62fc <__divdf3+0x1ac>
    6348:	ff878793          	addi	a5,a5,-8
    634c:	00fd17b3          	sll	a5,s10,a5
    6350:	fc9ff06f          	j	6318 <__divdf3+0x1c8>
    6354:	01a46833          	or	a6,s0,s10
    6358:	02081063          	bnez	a6,6378 <__divdf3+0x228>
    635c:	00000413          	li	s0,0
    6360:	00200693          	li	a3,2
    6364:	eb1ff06f          	j	6214 <__divdf3+0xc4>
    6368:	00000413          	li	s0,0
    636c:	00000713          	li	a4,0
    6370:	00100693          	li	a3,1
    6374:	ea1ff06f          	j	6214 <__divdf3+0xc4>
    6378:	000d0813          	mv	a6,s10
    637c:	00300693          	li	a3,3
    6380:	e95ff06f          	j	6214 <__divdf3+0xc4>
    6384:	01746663          	bltu	s0,s7,6390 <__divdf3+0x240>
    6388:	448b9e63          	bne	s7,s0,67e4 <__divdf3+0x694>
    638c:	4504ec63          	bltu	s1,a6,67e4 <__divdf3+0x694>
    6390:	01fb9713          	slli	a4,s7,0x1f
    6394:	0014d793          	srli	a5,s1,0x1
    6398:	01f49c93          	slli	s9,s1,0x1f
    639c:	001bdb93          	srli	s7,s7,0x1
    63a0:	00f764b3          	or	s1,a4,a5
    63a4:	00841413          	slli	s0,s0,0x8
    63a8:	01045793          	srli	a5,s0,0x10
    63ac:	01885d93          	srli	s11,a6,0x18
    63b0:	00f12423          	sw	a5,8(sp)
    63b4:	008dedb3          	or	s11,s11,s0
    63b8:	00812583          	lw	a1,8(sp)
    63bc:	010d9793          	slli	a5,s11,0x10
    63c0:	0107d793          	srli	a5,a5,0x10
    63c4:	000b8513          	mv	a0,s7
    63c8:	00f12623          	sw	a5,12(sp)
    63cc:	00881b13          	slli	s6,a6,0x8
    63d0:	76c010ef          	jal	7b3c <__hidden___udivsi3>
    63d4:	00050593          	mv	a1,a0
    63d8:	00050c13          	mv	s8,a0
    63dc:	010d9513          	slli	a0,s11,0x10
    63e0:	01055513          	srli	a0,a0,0x10
    63e4:	72c010ef          	jal	7b10 <__mulsi3>
    63e8:	00812583          	lw	a1,8(sp)
    63ec:	00050413          	mv	s0,a0
    63f0:	000b8513          	mv	a0,s7
    63f4:	790010ef          	jal	7b84 <__umodsi3>
    63f8:	01051513          	slli	a0,a0,0x10
    63fc:	0104d793          	srli	a5,s1,0x10
    6400:	00a7e7b3          	or	a5,a5,a0
    6404:	000c0b93          	mv	s7,s8
    6408:	0087fe63          	bgeu	a5,s0,6424 <__divdf3+0x2d4>
    640c:	00fd87b3          	add	a5,s11,a5
    6410:	fffc0b93          	addi	s7,s8,-1
    6414:	01b7e863          	bltu	a5,s11,6424 <__divdf3+0x2d4>
    6418:	0087f663          	bgeu	a5,s0,6424 <__divdf3+0x2d4>
    641c:	ffec0b93          	addi	s7,s8,-2
    6420:	01b787b3          	add	a5,a5,s11
    6424:	00812583          	lw	a1,8(sp)
    6428:	40878433          	sub	s0,a5,s0
    642c:	00040513          	mv	a0,s0
    6430:	70c010ef          	jal	7b3c <__hidden___udivsi3>
    6434:	00050593          	mv	a1,a0
    6438:	00050d13          	mv	s10,a0
    643c:	010d9513          	slli	a0,s11,0x10
    6440:	01055513          	srli	a0,a0,0x10
    6444:	6cc010ef          	jal	7b10 <__mulsi3>
    6448:	00812583          	lw	a1,8(sp)
    644c:	00050c13          	mv	s8,a0
    6450:	00040513          	mv	a0,s0
    6454:	730010ef          	jal	7b84 <__umodsi3>
    6458:	01049493          	slli	s1,s1,0x10
    645c:	01051513          	slli	a0,a0,0x10
    6460:	0104d493          	srli	s1,s1,0x10
    6464:	00a4e4b3          	or	s1,s1,a0
    6468:	000d0793          	mv	a5,s10
    646c:	0184fe63          	bgeu	s1,s8,6488 <__divdf3+0x338>
    6470:	009d84b3          	add	s1,s11,s1
    6474:	fffd0793          	addi	a5,s10,-1
    6478:	01b4e863          	bltu	s1,s11,6488 <__divdf3+0x338>
    647c:	0184f663          	bgeu	s1,s8,6488 <__divdf3+0x338>
    6480:	ffed0793          	addi	a5,s10,-2
    6484:	01b484b3          	add	s1,s1,s11
    6488:	010b9813          	slli	a6,s7,0x10
    648c:	00f86833          	or	a6,a6,a5
    6490:	01081793          	slli	a5,a6,0x10
    6494:	010b1713          	slli	a4,s6,0x10
    6498:	01075713          	srli	a4,a4,0x10
    649c:	0107d793          	srli	a5,a5,0x10
    64a0:	418484b3          	sub	s1,s1,s8
    64a4:	01085e93          	srli	t4,a6,0x10
    64a8:	00078513          	mv	a0,a5
    64ac:	00e12623          	sw	a4,12(sp)
    64b0:	00070593          	mv	a1,a4
    64b4:	65c010ef          	jal	7b10 <__mulsi3>
    64b8:	00050313          	mv	t1,a0
    64bc:	010b5593          	srli	a1,s6,0x10
    64c0:	00078513          	mv	a0,a5
    64c4:	64c010ef          	jal	7b10 <__mulsi3>
