
temp.out:     file format elf32-littleriscv


Disassembly of section .text:

00001000 <_start>:
    1000:	00023117          	auipc	sp,0x23
    1004:	00010113          	mv	sp,sp
    1008:	00020297          	auipc	t0,0x20
    100c:	04828293          	addi	t0,t0,72 # 21050 <UART_BUF_TX>
    1010:	00021317          	auipc	t1,0x21
    1014:	ff030313          	addi	t1,t1,-16 # 22000 <_end>
    1018:	00628863          	beq	t0,t1,1028 <_start+0x28>
    101c:	0002a023          	sw	zero,0(t0)
    1020:	00428293          	addi	t0,t0,4
    1024:	fe629ce3          	bne	t0,t1,101c <_start+0x1c>
    1028:	28d000ef          	jal	1ab4 <disable_UART_interrupt>
    102c:	00d000ef          	jal	1838 <_io_init>
    1030:	1e9000ef          	jal	1a18 <enable_BUTTON_interrupt>
    1034:	140000ef          	jal	1174 <main>
    1038:	185000ef          	jal	19bc <_io_fini>
    103c:	10500073          	wfi
    1040:	fc1ff06f          	j	1000 <_start>

Disassembly of section .text:

00001044 <timer_handler>:
    1044:	fe010113          	addi	sp,sp,-32 # 23fe0 <_end+0x1fe0>
    1048:	00112e23          	sw	ra,28(sp)
    104c:	00812c23          	sw	s0,24(sp)
    1050:	00912a23          	sw	s1,20(sp)
    1054:	01212823          	sw	s2,16(sp)
    1058:	01312623          	sw	s3,12(sp)
    105c:	01412423          	sw	s4,8(sp)
    1060:	01512223          	sw	s5,4(sp)
    1064:	01612023          	sw	s6,0(sp)
    1068:	00021437          	lui	s0,0x21
    106c:	14c42783          	lw	a5,332(s0) # 2114c <counter>
    1070:	00178793          	addi	a5,a5,1
    1074:	14f42623          	sw	a5,332(s0)
    1078:	00020537          	lui	a0,0x20
    107c:	2c450513          	addi	a0,a0,708 # 202c4 <__clz_tab+0x100>
    1080:	3a0000ef          	jal	1420 <puts>
    1084:	000217b7          	lui	a5,0x21
    1088:	02c7a583          	lw	a1,44(a5) # 2102c <size>
    108c:	14c42503          	lw	a0,332(s0)
    1090:	715010ef          	jal	2fa4 <__umodsi3>
    1094:	00251513          	slli	a0,a0,0x2
    1098:	000217b7          	lui	a5,0x21
    109c:	00078793          	mv	a5,a5
    10a0:	00a787b3          	add	a5,a5,a0
    10a4:	0007a483          	lw	s1,0(a5) # 21000 <fruits>
    10a8:	0004c503          	lbu	a0,0(s1)
    10ac:	49d000ef          	jal	1d48 <convert_char_seg7>
    10b0:	00050913          	mv	s2,a0
    10b4:	0014c503          	lbu	a0,1(s1)
    10b8:	491000ef          	jal	1d48 <convert_char_seg7>
    10bc:	01891913          	slli	s2,s2,0x18
    10c0:	01051513          	slli	a0,a0,0x10
    10c4:	00a96933          	or	s2,s2,a0
    10c8:	0024c503          	lbu	a0,2(s1)
    10cc:	47d000ef          	jal	1d48 <convert_char_seg7>
    10d0:	00050413          	mv	s0,a0
    10d4:	0034c503          	lbu	a0,3(s1)
    10d8:	471000ef          	jal	1d48 <convert_char_seg7>
    10dc:	00050b13          	mv	s6,a0
    10e0:	0044c503          	lbu	a0,4(s1)
    10e4:	465000ef          	jal	1d48 <convert_char_seg7>
    10e8:	00050a93          	mv	s5,a0
    10ec:	0054c503          	lbu	a0,5(s1)
    10f0:	459000ef          	jal	1d48 <convert_char_seg7>
    10f4:	00050a13          	mv	s4,a0
    10f8:	0064c503          	lbu	a0,6(s1)
    10fc:	44d000ef          	jal	1d48 <convert_char_seg7>
    1100:	00050993          	mv	s3,a0
    1104:	0074c503          	lbu	a0,7(s1)
    1108:	441000ef          	jal	1d48 <convert_char_seg7>
    110c:	00841793          	slli	a5,s0,0x8
    1110:	0127e7b3          	or	a5,a5,s2
    1114:	0167e7b3          	or	a5,a5,s6
    1118:	008ad693          	srli	a3,s5,0x8
    111c:	018a9a93          	slli	s5,s5,0x18
    1120:	01556733          	or	a4,a0,s5
    1124:	00d7e7b3          	or	a5,a5,a3
    1128:	010a5693          	srli	a3,s4,0x10
    112c:	010a1a13          	slli	s4,s4,0x10
    1130:	01476733          	or	a4,a4,s4
    1134:	00d7e7b3          	or	a5,a5,a3
    1138:	0189d593          	srli	a1,s3,0x18
    113c:	00899513          	slli	a0,s3,0x8
    1140:	00a76533          	or	a0,a4,a0
    1144:	00b7e5b3          	or	a1,a5,a1
    1148:	3ed000ef          	jal	1d34 <set_gpio_string>
    114c:	01c12083          	lw	ra,28(sp)
    1150:	01812403          	lw	s0,24(sp)
    1154:	01412483          	lw	s1,20(sp)
    1158:	01012903          	lw	s2,16(sp)
    115c:	00c12983          	lw	s3,12(sp)
    1160:	00812a03          	lw	s4,8(sp)
    1164:	00412a83          	lw	s5,4(sp)
    1168:	00012b03          	lw	s6,0(sp)
    116c:	02010113          	addi	sp,sp,32
    1170:	00008067          	ret

00001174 <main>:
    1174:	fe010113          	addi	sp,sp,-32
    1178:	00112e23          	sw	ra,28(sp)
    117c:	00812c23          	sw	s0,24(sp)
    1180:	00912a23          	sw	s1,20(sp)
    1184:	01212823          	sw	s2,16(sp)
    1188:	01312623          	sw	s3,12(sp)
    118c:	01412423          	sw	s4,8(sp)
    1190:	01512223          	sw	s5,4(sp)
    1194:	3e800513          	li	a0,1000
    1198:	074010ef          	jal	220c <set_mtimer_interval>
    119c:	00021737          	lui	a4,0x21
    11a0:	000017b7          	lui	a5,0x1
    11a4:	04478793          	addi	a5,a5,68 # 1044 <timer_handler>
    11a8:	14f72823          	sw	a5,336(a4) # 21150 <timer_interrupt_hook>
    11ac:	0ac010ef          	jal	2258 <enable_timer_interrupt>
    11b0:	00020537          	lui	a0,0x20
    11b4:	2d050513          	addi	a0,a0,720 # 202d0 <__clz_tab+0x10c>
    11b8:	268000ef          	jal	1420 <puts>
    11bc:	00100493          	li	s1,1
    11c0:	00021437          	lui	s0,0x21
    11c4:	08000913          	li	s2,128
    11c8:	00020ab7          	lui	s5,0x20
    11cc:	00020a37          	lui	s4,0x20
    11d0:	00048993          	mv	s3,s1
    11d4:	0140006f          	j	11e8 <main+0x74>
    11d8:	30493073          	csrc	mie,s2
    11dc:	2dca8513          	addi	a0,s5,732 # 202dc <__clz_tab+0x118>
    11e0:	240000ef          	jal	1420 <puts>
    11e4:	00000493          	li	s1,0
    11e8:	03042783          	lw	a5,48(s0) # 21030 <io_getch>
    11ec:	000780e7          	jalr	a5
    11f0:	fe050ce3          	beqz	a0,11e8 <main+0x74>
    11f4:	fe0492e3          	bnez	s1,11d8 <main+0x64>
    11f8:	30492073          	csrs	mie,s2
    11fc:	2d0a0513          	addi	a0,s4,720 # 202d0 <__clz_tab+0x10c>
    1200:	220000ef          	jal	1420 <puts>
    1204:	00098493          	mv	s1,s3
    1208:	fe1ff06f          	j	11e8 <main+0x74>

0000120c <puthex>:
    120c:	fe010113          	addi	sp,sp,-32
    1210:	00112e23          	sw	ra,28(sp)
    1214:	00912a23          	sw	s1,20(sp)
    1218:	01312623          	sw	s3,12(sp)
    121c:	00050993          	mv	s3,a0
    1220:	00060493          	mv	s1,a2
    1224:	06059863          	bnez	a1,1294 <puthex+0x88>
    1228:	06058263          	beqz	a1,128c <puthex+0x80>
    122c:	00812c23          	sw	s0,24(sp)
    1230:	01212823          	sw	s2,16(sp)
    1234:	fff68413          	addi	s0,a3,-1
    1238:	00021937          	lui	s2,0x21
    123c:	06805c63          	blez	s0,12b4 <puthex+0xa8>
    1240:	03492783          	lw	a5,52(s2) # 21034 <io_putch>
    1244:	00048513          	mv	a0,s1
    1248:	000780e7          	jalr	a5
    124c:	fff40413          	addi	s0,s0,-1
    1250:	fe0418e3          	bnez	s0,1240 <puthex+0x34>
    1254:	01812403          	lw	s0,24(sp)
    1258:	01012903          	lw	s2,16(sp)
    125c:	00f9f513          	andi	a0,s3,15
    1260:	00900793          	li	a5,9
    1264:	04a7ee63          	bltu	a5,a0,12c0 <puthex+0xb4>
    1268:	000217b7          	lui	a5,0x21
    126c:	0347a783          	lw	a5,52(a5) # 21034 <io_putch>
    1270:	03050513          	addi	a0,a0,48
    1274:	000780e7          	jalr	a5
    1278:	01c12083          	lw	ra,28(sp)
    127c:	01412483          	lw	s1,20(sp)
    1280:	00c12983          	lw	s3,12(sp)
    1284:	02010113          	addi	sp,sp,32
    1288:	00008067          	ret
    128c:	00f00793          	li	a5,15
    1290:	f8a7fee3          	bgeu	a5,a0,122c <puthex+0x20>
    1294:	01c59793          	slli	a5,a1,0x1c
    1298:	0049d513          	srli	a0,s3,0x4
    129c:	fff68693          	addi	a3,a3,-1
    12a0:	00048613          	mv	a2,s1
    12a4:	00a7e533          	or	a0,a5,a0
    12a8:	0045d593          	srli	a1,a1,0x4
    12ac:	f61ff0ef          	jal	120c <puthex>
    12b0:	fadff06f          	j	125c <puthex+0x50>
    12b4:	01812403          	lw	s0,24(sp)
    12b8:	01012903          	lw	s2,16(sp)
    12bc:	fa1ff06f          	j	125c <puthex+0x50>
    12c0:	000217b7          	lui	a5,0x21
    12c4:	0347a783          	lw	a5,52(a5) # 21034 <io_putch>
    12c8:	05750513          	addi	a0,a0,87
    12cc:	000780e7          	jalr	a5
    12d0:	fa9ff06f          	j	1278 <puthex+0x6c>

000012d4 <putdec>:
    12d4:	fe010113          	addi	sp,sp,-32
    12d8:	00112e23          	sw	ra,28(sp)
    12dc:	00812c23          	sw	s0,24(sp)
    12e0:	00912a23          	sw	s1,20(sp)
    12e4:	01312623          	sw	s3,12(sp)
    12e8:	01412423          	sw	s4,8(sp)
    12ec:	01512223          	sw	s5,4(sp)
    12f0:	00050a13          	mv	s4,a0
    12f4:	00058993          	mv	s3,a1
    12f8:	00060a93          	mv	s5,a2
    12fc:	00068493          	mv	s1,a3
    1300:	04b04463          	bgtz	a1,1348 <putdec+0x74>
    1304:	02058e63          	beqz	a1,1340 <putdec+0x6c>
    1308:	01212823          	sw	s2,16(sp)
    130c:	fff70413          	addi	s0,a4,-1
    1310:	00021937          	lui	s2,0x21
    1314:	00805c63          	blez	s0,132c <putdec+0x58>
    1318:	03492783          	lw	a5,52(s2) # 21034 <io_putch>
    131c:	00048513          	mv	a0,s1
    1320:	000780e7          	jalr	a5
    1324:	fff40413          	addi	s0,s0,-1
    1328:	fe0418e3          	bnez	s0,1318 <putdec+0x44>
    132c:	060a8063          	beqz	s5,138c <putdec+0xb8>
    1330:	02000793          	li	a5,32
    1334:	04f48063          	beq	s1,a5,1374 <putdec+0xa0>
    1338:	01012903          	lw	s2,16(sp)
    133c:	0540006f          	j	1390 <putdec+0xbc>
    1340:	00900793          	li	a5,9
    1344:	fca7f2e3          	bgeu	a5,a0,1308 <putdec+0x34>
    1348:	fff70413          	addi	s0,a4,-1
    134c:	00a00613          	li	a2,10
    1350:	00000693          	li	a3,0
    1354:	000a0513          	mv	a0,s4
    1358:	00098593          	mv	a1,s3
    135c:	040010ef          	jal	239c <__divdi3>
    1360:	00040713          	mv	a4,s0
    1364:	00048693          	mv	a3,s1
    1368:	000a8613          	mv	a2,s5
    136c:	f69ff0ef          	jal	12d4 <putdec>
    1370:	0200006f          	j	1390 <putdec+0xbc>
    1374:	000217b7          	lui	a5,0x21
    1378:	0347a783          	lw	a5,52(a5) # 21034 <io_putch>
    137c:	02d00513          	li	a0,45
    1380:	000780e7          	jalr	a5
    1384:	01012903          	lw	s2,16(sp)
    1388:	0080006f          	j	1390 <putdec+0xbc>
    138c:	01012903          	lw	s2,16(sp)
    1390:	00a00613          	li	a2,10
    1394:	00000693          	li	a3,0
    1398:	000a0513          	mv	a0,s4
    139c:	00098593          	mv	a1,s3
    13a0:	60c010ef          	jal	29ac <__moddi3>
    13a4:	03050513          	addi	a0,a0,48
    13a8:	000217b7          	lui	a5,0x21
    13ac:	0347a783          	lw	a5,52(a5) # 21034 <io_putch>
    13b0:	0ff57513          	zext.b	a0,a0
    13b4:	000780e7          	jalr	a5
    13b8:	01c12083          	lw	ra,28(sp)
    13bc:	01812403          	lw	s0,24(sp)
    13c0:	01412483          	lw	s1,20(sp)
    13c4:	00c12983          	lw	s3,12(sp)
    13c8:	00812a03          	lw	s4,8(sp)
    13cc:	00412a83          	lw	s5,4(sp)
    13d0:	02010113          	addi	sp,sp,32
    13d4:	00008067          	ret

000013d8 <putline>:
    13d8:	ff010113          	addi	sp,sp,-16
    13dc:	00112623          	sw	ra,12(sp)
    13e0:	00812423          	sw	s0,8(sp)
    13e4:	00150413          	addi	s0,a0,1
    13e8:	00054503          	lbu	a0,0(a0)
    13ec:	02050263          	beqz	a0,1410 <putline+0x38>
    13f0:	00912223          	sw	s1,4(sp)
    13f4:	000214b7          	lui	s1,0x21
    13f8:	0344a783          	lw	a5,52(s1) # 21034 <io_putch>
    13fc:	000780e7          	jalr	a5
    1400:	00140413          	addi	s0,s0,1
    1404:	fff44503          	lbu	a0,-1(s0)
    1408:	fe0518e3          	bnez	a0,13f8 <putline+0x20>
    140c:	00412483          	lw	s1,4(sp)
    1410:	00c12083          	lw	ra,12(sp)
    1414:	00812403          	lw	s0,8(sp)
    1418:	01010113          	addi	sp,sp,16
    141c:	00008067          	ret

00001420 <puts>:
    1420:	ff010113          	addi	sp,sp,-16
    1424:	00112623          	sw	ra,12(sp)
    1428:	fb1ff0ef          	jal	13d8 <putline>
    142c:	000217b7          	lui	a5,0x21
    1430:	0347a783          	lw	a5,52(a5) # 21034 <io_putch>
    1434:	00a00513          	li	a0,10
    1438:	000780e7          	jalr	a5
    143c:	00100513          	li	a0,1
    1440:	00c12083          	lw	ra,12(sp)
    1444:	01010113          	addi	sp,sp,16
    1448:	00008067          	ret

0000144c <putchar>:
    144c:	ff010113          	addi	sp,sp,-16
    1450:	00112623          	sw	ra,12(sp)
    1454:	00812423          	sw	s0,8(sp)
    1458:	00050413          	mv	s0,a0
    145c:	000217b7          	lui	a5,0x21
    1460:	0347a783          	lw	a5,52(a5) # 21034 <io_putch>
    1464:	0ff57513          	zext.b	a0,a0
    1468:	000780e7          	jalr	a5
    146c:	00040513          	mv	a0,s0
    1470:	00c12083          	lw	ra,12(sp)
    1474:	00812403          	lw	s0,8(sp)
    1478:	01010113          	addi	sp,sp,16
    147c:	00008067          	ret

00001480 <printf>:
    1480:	f8010113          	addi	sp,sp,-128
    1484:	04112e23          	sw	ra,92(sp)
    1488:	04812c23          	sw	s0,88(sp)
    148c:	00050413          	mv	s0,a0
    1490:	06b12223          	sw	a1,100(sp)
    1494:	06c12423          	sw	a2,104(sp)
    1498:	06d12623          	sw	a3,108(sp)
    149c:	06e12823          	sw	a4,112(sp)
    14a0:	06f12a23          	sw	a5,116(sp)
    14a4:	07012c23          	sw	a6,120(sp)
    14a8:	07112e23          	sw	a7,124(sp)
    14ac:	06410793          	addi	a5,sp,100
    14b0:	00f12e23          	sw	a5,28(sp)
    14b4:	00054503          	lbu	a0,0(a0)
    14b8:	30050663          	beqz	a0,17c4 <printf+0x344>
    14bc:	04912a23          	sw	s1,84(sp)
    14c0:	05212823          	sw	s2,80(sp)
    14c4:	05312623          	sw	s3,76(sp)
    14c8:	05412423          	sw	s4,72(sp)
    14cc:	05512223          	sw	s5,68(sp)
    14d0:	05612023          	sw	s6,64(sp)
    14d4:	03712e23          	sw	s7,60(sp)
    14d8:	03812c23          	sw	s8,56(sp)
    14dc:	03a12823          	sw	s10,48(sp)
    14e0:	00000a13          	li	s4,0
    14e4:	02000993          	li	s3,32
    14e8:	00012623          	sw	zero,12(sp)
    14ec:	00000b93          	li	s7,0
    14f0:	00000493          	li	s1,0
    14f4:	02500b13          	li	s6,37
    14f8:	00021c37          	lui	s8,0x21
    14fc:	03000d13          	li	s10,48
    1500:	03900a93          	li	s5,57
    1504:	01500913          	li	s2,21
    1508:	2140006f          	j	171c <printf+0x29c>
    150c:	02f00793          	li	a5,47
    1510:	02a7f063          	bgeu	a5,a0,1530 <printf+0xb0>
    1514:	002a1793          	slli	a5,s4,0x2
    1518:	014787b3          	add	a5,a5,s4
    151c:	00179793          	slli	a5,a5,0x1
    1520:	00a787b3          	add	a5,a5,a0
    1524:	fd078a13          	addi	s4,a5,-48
    1528:	00040793          	mv	a5,s0
    152c:	1e40006f          	j	1710 <printf+0x290>
    1530:	00040793          	mv	a5,s0
    1534:	1dc0006f          	j	1710 <printf+0x290>
    1538:	00144703          	lbu	a4,1(s0)
    153c:	06c00793          	li	a5,108
    1540:	00f70863          	beq	a4,a5,1550 <printf+0xd0>
    1544:	00048b93          	mv	s7,s1
    1548:	00040793          	mv	a5,s0
    154c:	1c40006f          	j	1710 <printf+0x290>
    1550:	00140793          	addi	a5,s0,1
    1554:	00912623          	sw	s1,12(sp)
    1558:	1b80006f          	j	1710 <printf+0x290>
    155c:	00021bb7          	lui	s7,0x21
    1560:	034ba783          	lw	a5,52(s7) # 21034 <io_putch>
    1564:	03000513          	li	a0,48
    1568:	000780e7          	jalr	a5
    156c:	034ba783          	lw	a5,52(s7)
    1570:	07800513          	li	a0,120
    1574:	000780e7          	jalr	a5
    1578:	01c12783          	lw	a5,28(sp)
    157c:	00478713          	addi	a4,a5,4
    1580:	00e12e23          	sw	a4,28(sp)
    1584:	0007a503          	lw	a0,0(a5)
    1588:	00000593          	li	a1,0
    158c:	00048b93          	mv	s7,s1
    1590:	000a0693          	mv	a3,s4
    1594:	00098613          	mv	a2,s3
    1598:	c75ff0ef          	jal	120c <puthex>
    159c:	00040793          	mv	a5,s0
    15a0:	00000493          	li	s1,0
    15a4:	16c0006f          	j	1710 <printf+0x290>
    15a8:	fc0b98e3          	bnez	s7,1578 <printf+0xf8>
    15ac:	00c12783          	lw	a5,12(sp)
    15b0:	02078263          	beqz	a5,15d4 <printf+0x154>
    15b4:	01c12783          	lw	a5,28(sp)
    15b8:	00778793          	addi	a5,a5,7
    15bc:	ff87f793          	andi	a5,a5,-8
    15c0:	00878713          	addi	a4,a5,8
    15c4:	00e12e23          	sw	a4,28(sp)
    15c8:	0007a503          	lw	a0,0(a5)
    15cc:	0047a583          	lw	a1,4(a5)
    15d0:	fc1ff06f          	j	1590 <printf+0x110>
    15d4:	01c12783          	lw	a5,28(sp)
    15d8:	00478713          	addi	a4,a5,4
    15dc:	00e12e23          	sw	a4,28(sp)
    15e0:	0007a503          	lw	a0,0(a5)
    15e4:	00000593          	li	a1,0
    15e8:	00c12b83          	lw	s7,12(sp)
    15ec:	fa5ff06f          	j	1590 <printf+0x110>
    15f0:	03912a23          	sw	s9,52(sp)
    15f4:	03b12623          	sw	s11,44(sp)
    15f8:	040b8663          	beqz	s7,1644 <printf+0x1c4>
    15fc:	01c12783          	lw	a5,28(sp)
    1600:	00478713          	addi	a4,a5,4
    1604:	00e12e23          	sw	a4,28(sp)
    1608:	0007ad83          	lw	s11,0(a5)
    160c:	41fddc93          	srai	s9,s11,0x1f
    1610:	060cca63          	bltz	s9,1684 <printf+0x204>
    1614:	00000493          	li	s1,0
    1618:	000a0713          	mv	a4,s4
    161c:	00098693          	mv	a3,s3
    1620:	00048613          	mv	a2,s1
    1624:	000d8513          	mv	a0,s11
    1628:	000c8593          	mv	a1,s9
    162c:	ca9ff0ef          	jal	12d4 <putdec>
    1630:	00040793          	mv	a5,s0
    1634:	00000493          	li	s1,0
    1638:	03412c83          	lw	s9,52(sp)
    163c:	02c12d83          	lw	s11,44(sp)
    1640:	0d00006f          	j	1710 <printf+0x290>
    1644:	00c12783          	lw	a5,12(sp)
    1648:	02078263          	beqz	a5,166c <printf+0x1ec>
    164c:	01c12783          	lw	a5,28(sp)
    1650:	00778793          	addi	a5,a5,7
    1654:	ff87f793          	andi	a5,a5,-8
    1658:	00878713          	addi	a4,a5,8
    165c:	00e12e23          	sw	a4,28(sp)
    1660:	0007ad83          	lw	s11,0(a5)
    1664:	0047ac83          	lw	s9,4(a5)
    1668:	fa9ff06f          	j	1610 <printf+0x190>
    166c:	01c12783          	lw	a5,28(sp)
    1670:	00478713          	addi	a4,a5,4
    1674:	00e12e23          	sw	a4,28(sp)
    1678:	0007ad83          	lw	s11,0(a5)
    167c:	41fddc93          	srai	s9,s11,0x1f
    1680:	f91ff06f          	j	1610 <printf+0x190>
    1684:	03000793          	li	a5,48
    1688:	00f98e63          	beq	s3,a5,16a4 <printf+0x224>
    168c:	01b037b3          	snez	a5,s11
    1690:	41900cb3          	neg	s9,s9
    1694:	40fc8cb3          	sub	s9,s9,a5
    1698:	41b00db3          	neg	s11,s11
    169c:	fffa0a13          	addi	s4,s4,-1
    16a0:	f79ff06f          	j	1618 <printf+0x198>
    16a4:	000217b7          	lui	a5,0x21
    16a8:	0347a783          	lw	a5,52(a5) # 21034 <io_putch>
    16ac:	02d00513          	li	a0,45
    16b0:	000780e7          	jalr	a5
    16b4:	fd9ff06f          	j	168c <printf+0x20c>
    16b8:	01c12783          	lw	a5,28(sp)
    16bc:	00478713          	addi	a4,a5,4
    16c0:	00e12e23          	sw	a4,28(sp)
    16c4:	0007a503          	lw	a0,0(a5)
    16c8:	d11ff0ef          	jal	13d8 <putline>
    16cc:	00040793          	mv	a5,s0
    16d0:	00000493          	li	s1,0
    16d4:	03c0006f          	j	1710 <printf+0x290>
    16d8:	000217b7          	lui	a5,0x21
    16dc:	0347a703          	lw	a4,52(a5) # 21034 <io_putch>
    16e0:	01c12783          	lw	a5,28(sp)
    16e4:	00478693          	addi	a3,a5,4
    16e8:	00d12e23          	sw	a3,28(sp)
    16ec:	0007c503          	lbu	a0,0(a5)
    16f0:	000700e7          	jalr	a4
    16f4:	00040793          	mv	a5,s0
    16f8:	00000493          	li	s1,0
    16fc:	0140006f          	j	1710 <printf+0x290>
    1700:	05650a63          	beq	a0,s6,1754 <printf+0x2d4>
    1704:	034c2783          	lw	a5,52(s8) # 21034 <io_putch>
    1708:	000780e7          	jalr	a5
    170c:	00040793          	mv	a5,s0
    1710:	00178413          	addi	s0,a5,1
    1714:	0017c503          	lbu	a0,1(a5)
    1718:	08050463          	beqz	a0,17a0 <printf+0x320>
    171c:	fe0482e3          	beqz	s1,1700 <printf+0x280>
    1720:	deaaf6e3          	bgeu	s5,a0,150c <printf+0x8c>
    1724:	f9d50793          	addi	a5,a0,-99
    1728:	0ff7f793          	zext.b	a5,a5
    172c:	06f96663          	bltu	s2,a5,1798 <printf+0x318>
    1730:	f9d50513          	addi	a0,a0,-99
    1734:	0ff57793          	zext.b	a5,a0
    1738:	04f96c63          	bltu	s2,a5,1790 <printf+0x310>
    173c:	00279513          	slli	a0,a5,0x2
    1740:	000207b7          	lui	a5,0x20
    1744:	00078793          	mv	a5,a5
    1748:	00f50533          	add	a0,a0,a5
    174c:	00052783          	lw	a5,0(a0)
    1750:	00078067          	jr	a5 # 20000 <DATA_START>
    1754:	00144983          	lbu	s3,1(s0)
    1758:	03a98063          	beq	s3,s10,1778 <printf+0x2f8>
    175c:	00048a13          	mv	s4,s1
    1760:	00912623          	sw	s1,12(sp)
    1764:	00048b93          	mv	s7,s1
    1768:	00040793          	mv	a5,s0
    176c:	02000993          	li	s3,32
    1770:	00100493          	li	s1,1
    1774:	f9dff06f          	j	1710 <printf+0x290>
    1778:	00140793          	addi	a5,s0,1
    177c:	00048a13          	mv	s4,s1
    1780:	00912623          	sw	s1,12(sp)
    1784:	00048b93          	mv	s7,s1
    1788:	00100493          	li	s1,1
    178c:	f85ff06f          	j	1710 <printf+0x290>
    1790:	00040793          	mv	a5,s0
    1794:	f7dff06f          	j	1710 <printf+0x290>
    1798:	00040793          	mv	a5,s0
    179c:	f75ff06f          	j	1710 <printf+0x290>
    17a0:	05412483          	lw	s1,84(sp)
    17a4:	05012903          	lw	s2,80(sp)
    17a8:	04c12983          	lw	s3,76(sp)
    17ac:	04812a03          	lw	s4,72(sp)
    17b0:	04412a83          	lw	s5,68(sp)
    17b4:	04012b03          	lw	s6,64(sp)
    17b8:	03c12b83          	lw	s7,60(sp)
    17bc:	03812c03          	lw	s8,56(sp)
    17c0:	03012d03          	lw	s10,48(sp)
    17c4:	00000513          	li	a0,0
    17c8:	05c12083          	lw	ra,92(sp)
    17cc:	05812403          	lw	s0,88(sp)
    17d0:	08010113          	addi	sp,sp,128
    17d4:	00008067          	ret

000017d8 <_io_putch>:
    17d8:	000217b7          	lui	a5,0x21
    17dc:	00021737          	lui	a4,0x21
    17e0:	16072703          	lw	a4,352(a4) # 21160 <UART_CHAN_ID>
    17e4:	00271713          	slli	a4,a4,0x2
    17e8:	03878793          	addi	a5,a5,56 # 21038 <_uart>
    17ec:	00e787b3          	add	a5,a5,a4
    17f0:	0007a703          	lw	a4,0(a5)
    17f4:	00472783          	lw	a5,4(a4)
    17f8:	0017f793          	andi	a5,a5,1
    17fc:	fe079ce3          	bnez	a5,17f4 <_io_putch+0x1c>
    1800:	00a70023          	sb	a0,0(a4)
    1804:	00008067          	ret

00001808 <_io_getch>:
    1808:	000217b7          	lui	a5,0x21
    180c:	00021737          	lui	a4,0x21
    1810:	16072703          	lw	a4,352(a4) # 21160 <UART_CHAN_ID>
    1814:	00271713          	slli	a4,a4,0x2
    1818:	03878793          	addi	a5,a5,56 # 21038 <_uart>
    181c:	00e787b3          	add	a5,a5,a4
    1820:	0007a703          	lw	a4,0(a5)
    1824:	00472783          	lw	a5,4(a4)
    1828:	0087f793          	andi	a5,a5,8
    182c:	fe079ce3          	bnez	a5,1824 <_io_getch+0x1c>
    1830:	00074503          	lbu	a0,0(a4)
    1834:	00008067          	ret

00001838 <_io_init>:
    1838:	000217b7          	lui	a5,0x21
    183c:	03878793          	addi	a5,a5,56 # 21038 <_uart>
    1840:	0007a683          	lw	a3,0(a5)
    1844:	06f00713          	li	a4,111
    1848:	00e6a223          	sw	a4,4(a3)
    184c:	0047a783          	lw	a5,4(a5)
    1850:	00e7a223          	sw	a4,4(a5)
    1854:	00008067          	ret

00001858 <set_uart_ID>:
    1858:	00a03533          	snez	a0,a0
    185c:	000217b7          	lui	a5,0x21
    1860:	16a7a023          	sw	a0,352(a5) # 21160 <UART_CHAN_ID>
    1864:	00008067          	ret

00001868 <UARTBuf_reset>:
    1868:	00052223          	sw	zero,4(a0)
    186c:	00052423          	sw	zero,8(a0)
    1870:	000500a3          	sb	zero,1(a0)
    1874:	00050023          	sb	zero,0(a0)
    1878:	00052623          	sw	zero,12(a0)
    187c:	00052823          	sw	zero,16(a0)
    1880:	00008067          	ret

00001884 <UARTBuf_buffered_size>:
    1884:	00852783          	lw	a5,8(a0)
    1888:	00452703          	lw	a4,4(a0)
    188c:	40e78533          	sub	a0,a5,a4
    1890:	00054463          	bltz	a0,1898 <UARTBuf_buffered_size+0x14>
    1894:	00008067          	ret
    1898:	02850513          	addi	a0,a0,40
    189c:	00008067          	ret

000018a0 <UARTBuf_write>:
    18a0:	00154783          	lbu	a5,1(a0)
    18a4:	00078463          	beqz	a5,18ac <UARTBuf_write+0xc>
    18a8:	00008067          	ret
    18ac:	00852783          	lw	a5,8(a0)
    18b0:	00f507b3          	add	a5,a0,a5
    18b4:	00b78a23          	sb	a1,20(a5)
    18b8:	00452683          	lw	a3,4(a0)
    18bc:	00852783          	lw	a5,8(a0)
    18c0:	02700613          	li	a2,39
    18c4:	00000713          	li	a4,0
    18c8:	00c78463          	beq	a5,a2,18d0 <UARTBuf_write+0x30>
    18cc:	00178713          	addi	a4,a5,1
    18d0:	00100793          	li	a5,1
    18d4:	00f50023          	sb	a5,0(a0)
    18d8:	40e687b3          	sub	a5,a3,a4
    18dc:	0017b793          	seqz	a5,a5
    18e0:	00f500a3          	sb	a5,1(a0)
    18e4:	00d52223          	sw	a3,4(a0)
    18e8:	00e52423          	sw	a4,8(a0)
    18ec:	00008067          	ret

000018f0 <UARTBuf_read>:
    18f0:	00050793          	mv	a5,a0
    18f4:	00054703          	lbu	a4,0(a0)
    18f8:	0ff77513          	zext.b	a0,a4
    18fc:	00071463          	bnez	a4,1904 <UARTBuf_read+0x14>
    1900:	00008067          	ret
    1904:	0047a703          	lw	a4,4(a5)
    1908:	00e78733          	add	a4,a5,a4
    190c:	01474503          	lbu	a0,20(a4)
    1910:	0ff57513          	zext.b	a0,a0
    1914:	0047a703          	lw	a4,4(a5)
    1918:	0087a603          	lw	a2,8(a5)
    191c:	02700593          	li	a1,39
    1920:	00000693          	li	a3,0
    1924:	00b70463          	beq	a4,a1,192c <UARTBuf_read+0x3c>
    1928:	00170693          	addi	a3,a4,1
    192c:	40d60733          	sub	a4,a2,a3
    1930:	00e03733          	snez	a4,a4
    1934:	00e78023          	sb	a4,0(a5)
    1938:	000780a3          	sb	zero,1(a5)
    193c:	00d7a223          	sw	a3,4(a5)
    1940:	00c7a423          	sw	a2,8(a5)
    1944:	00008067          	ret

00001948 <UARTBuf_read_last>:
    1948:	00852783          	lw	a5,8(a0)
    194c:	00079a63          	bnez	a5,1960 <UARTBuf_read_last+0x18>
    1950:	00054703          	lbu	a4,0(a0)
    1954:	00070863          	beqz	a4,1964 <UARTBuf_read_last+0x1c>
    1958:	02700793          	li	a5,39
    195c:	0080006f          	j	1964 <UARTBuf_read_last+0x1c>
    1960:	fff78793          	addi	a5,a5,-1
    1964:	00f50533          	add	a0,a0,a5
    1968:	01454503          	lbu	a0,20(a0)
    196c:	00008067          	ret

00001970 <flush_UART>:
    1970:	000217b7          	lui	a5,0x21
    1974:	0387a683          	lw	a3,56(a5) # 21038 <_uart>
    1978:	00021737          	lui	a4,0x21
    197c:	05070793          	addi	a5,a4,80 # 21050 <UART_BUF_TX>
    1980:	0007c783          	lbu	a5,0(a5)
    1984:	fe079ce3          	bnez	a5,197c <flush_UART+0xc>
    1988:	0046a783          	lw	a5,4(a3)
    198c:	0027f793          	andi	a5,a5,2
    1990:	fe0786e3          	beqz	a5,197c <flush_UART+0xc>
    1994:	000217b7          	lui	a5,0x21
    1998:	03c7a683          	lw	a3,60(a5) # 2103c <_uart+0x4>
    199c:	00021737          	lui	a4,0x21
    19a0:	05070793          	addi	a5,a4,80 # 21050 <UART_BUF_TX>
    19a4:	03c7c783          	lbu	a5,60(a5)
    19a8:	fe079ce3          	bnez	a5,19a0 <flush_UART+0x30>
    19ac:	0046a783          	lw	a5,4(a3)
    19b0:	0027f793          	andi	a5,a5,2
    19b4:	fe0786e3          	beqz	a5,19a0 <flush_UART+0x30>
    19b8:	00008067          	ret

000019bc <_io_fini>:
    19bc:	ff010113          	addi	sp,sp,-16
    19c0:	00112623          	sw	ra,12(sp)
    19c4:	fadff0ef          	jal	1970 <flush_UART>
    19c8:	00c12083          	lw	ra,12(sp)
    19cc:	01010113          	addi	sp,sp,16
    19d0:	00008067          	ret

000019d4 <UARTBuf_reset_all>:
    19d4:	ff010113          	addi	sp,sp,-16
    19d8:	00112623          	sw	ra,12(sp)
    19dc:	00812423          	sw	s0,8(sp)
    19e0:	00021537          	lui	a0,0x21
    19e4:	05050413          	addi	s0,a0,80 # 21050 <UART_BUF_TX>
    19e8:	05050513          	addi	a0,a0,80
    19ec:	e7dff0ef          	jal	1868 <UARTBuf_reset>
    19f0:	03c40513          	addi	a0,s0,60
    19f4:	e75ff0ef          	jal	1868 <UARTBuf_reset>
    19f8:	07840513          	addi	a0,s0,120
    19fc:	e6dff0ef          	jal	1868 <UARTBuf_reset>
    1a00:	0b440513          	addi	a0,s0,180
    1a04:	e65ff0ef          	jal	1868 <UARTBuf_reset>
    1a08:	00c12083          	lw	ra,12(sp)
    1a0c:	00812403          	lw	s0,8(sp)
    1a10:	01010113          	addi	sp,sp,16
    1a14:	00008067          	ret

00001a18 <enable_BUTTON_interrupt>:
    1a18:	000027b7          	lui	a5,0x2
    1a1c:	30c78793          	addi	a5,a5,780 # 230c <_mhandler>
    1a20:	30579073          	csrw	mtvec,a5
    1a24:	000217b7          	lui	a5,0x21
    1a28:	0447a703          	lw	a4,68(a5) # 21044 <sysctrl>
    1a2c:	00872783          	lw	a5,8(a4)
    1a30:	07c7e793          	ori	a5,a5,124
    1a34:	00f72423          	sw	a5,8(a4)
    1a38:	000017b7          	lui	a5,0x1
    1a3c:	80078793          	addi	a5,a5,-2048 # 800 <_start-0x800>
    1a40:	3047a073          	csrs	mie,a5
    1a44:	30046073          	csrsi	mstatus,8
    1a48:	00008067          	ret

00001a4c <enable_UART_interrupt>:
    1a4c:	ff010113          	addi	sp,sp,-16
    1a50:	00112623          	sw	ra,12(sp)
    1a54:	f81ff0ef          	jal	19d4 <UARTBuf_reset_all>
    1a58:	00021737          	lui	a4,0x21
    1a5c:	000027b7          	lui	a5,0x2
    1a60:	0c478793          	addi	a5,a5,196 # 20c4 <_UARTBuf_putch>
    1a64:	02f72a23          	sw	a5,52(a4) # 21034 <io_putch>
    1a68:	00021737          	lui	a4,0x21
    1a6c:	000027b7          	lui	a5,0x2
    1a70:	16478793          	addi	a5,a5,356 # 2164 <_UARTBuf_getch>
    1a74:	02f72823          	sw	a5,48(a4) # 21030 <io_getch>
    1a78:	000217b7          	lui	a5,0x21
    1a7c:	0447a703          	lw	a4,68(a5) # 21044 <sysctrl>
    1a80:	00872783          	lw	a5,8(a4)
    1a84:	0037e793          	ori	a5,a5,3
    1a88:	00f72423          	sw	a5,8(a4)
    1a8c:	000017b7          	lui	a5,0x1
    1a90:	80078793          	addi	a5,a5,-2048 # 800 <_start-0x800>
    1a94:	3047a073          	csrs	mie,a5
    1a98:	30046073          	csrsi	mstatus,8
    1a9c:	000027b7          	lui	a5,0x2
    1aa0:	30c78793          	addi	a5,a5,780 # 230c <_mhandler>
    1aa4:	30579073          	csrw	mtvec,a5
    1aa8:	00c12083          	lw	ra,12(sp)
    1aac:	01010113          	addi	sp,sp,16
    1ab0:	00008067          	ret

00001ab4 <disable_UART_interrupt>:
    1ab4:	ff010113          	addi	sp,sp,-16
    1ab8:	00112623          	sw	ra,12(sp)
    1abc:	000217b7          	lui	a5,0x21
    1ac0:	0387a703          	lw	a4,56(a5) # 21038 <_uart>
    1ac4:	00472783          	lw	a5,4(a4)
    1ac8:	0107f793          	andi	a5,a5,16
    1acc:	fe079ce3          	bnez	a5,1ac4 <disable_UART_interrupt+0x10>
    1ad0:	000217b7          	lui	a5,0x21
    1ad4:	03c7a703          	lw	a4,60(a5) # 2103c <_uart+0x4>
    1ad8:	00472783          	lw	a5,4(a4)
    1adc:	0107f793          	andi	a5,a5,16
    1ae0:	fe079ce3          	bnez	a5,1ad8 <disable_UART_interrupt+0x24>
    1ae4:	00021737          	lui	a4,0x21
    1ae8:	000017b7          	lui	a5,0x1
    1aec:	7d878793          	addi	a5,a5,2008 # 17d8 <_io_putch>
    1af0:	02f72a23          	sw	a5,52(a4) # 21034 <io_putch>
    1af4:	00021737          	lui	a4,0x21
    1af8:	000027b7          	lui	a5,0x2
    1afc:	80878793          	addi	a5,a5,-2040 # 1808 <_io_getch>
    1b00:	02f72823          	sw	a5,48(a4) # 21030 <io_getch>
    1b04:	000217b7          	lui	a5,0x21
    1b08:	0447a703          	lw	a4,68(a5) # 21044 <sysctrl>
    1b0c:	00872783          	lw	a5,8(a4)
    1b10:	ffc7f793          	andi	a5,a5,-4
    1b14:	00f72423          	sw	a5,8(a4)
    1b18:	30047073          	csrci	mstatus,8
    1b1c:	eb9ff0ef          	jal	19d4 <UARTBuf_reset_all>
    1b20:	00c12083          	lw	ra,12(sp)
    1b24:	01010113          	addi	sp,sp,16
    1b28:	00008067          	ret

00001b2c <UARTintr_handler>:
    1b2c:	fe010113          	addi	sp,sp,-32
    1b30:	00112e23          	sw	ra,28(sp)
    1b34:	00812c23          	sw	s0,24(sp)
    1b38:	00912a23          	sw	s1,20(sp)
    1b3c:	01212823          	sw	s2,16(sp)
    1b40:	01312623          	sw	s3,12(sp)
    1b44:	01412423          	sw	s4,8(sp)
    1b48:	01512223          	sw	s5,4(sp)
    1b4c:	00050993          	mv	s3,a0
    1b50:	000217b7          	lui	a5,0x21
    1b54:	00251713          	slli	a4,a0,0x2
    1b58:	03878793          	addi	a5,a5,56 # 21038 <_uart>
    1b5c:	00e787b3          	add	a5,a5,a4
    1b60:	0007a483          	lw	s1,0(a5)
    1b64:	00451a93          	slli	s5,a0,0x4
    1b68:	40aa8ab3          	sub	s5,s5,a0
    1b6c:	002a9a93          	slli	s5,s5,0x2
    1b70:	00021437          	lui	s0,0x21
    1b74:	05040413          	addi	s0,s0,80 # 21050 <UART_BUF_TX>
    1b78:	01540433          	add	s0,s0,s5
    1b7c:	00044783          	lbu	a5,0(s0)
    1b80:	02078463          	beqz	a5,1ba8 <UARTintr_handler+0x7c>
    1b84:	00040913          	mv	s2,s0
    1b88:	0044a783          	lw	a5,4(s1)
    1b8c:	0017f793          	andi	a5,a5,1
    1b90:	00079c63          	bnez	a5,1ba8 <UARTintr_handler+0x7c>
    1b94:	00040513          	mv	a0,s0
    1b98:	d59ff0ef          	jal	18f0 <UARTBuf_read>
    1b9c:	00a48023          	sb	a0,0(s1)
    1ba0:	00094783          	lbu	a5,0(s2)
    1ba4:	fe0792e3          	bnez	a5,1b88 <UARTintr_handler+0x5c>
    1ba8:	000217b7          	lui	a5,0x21
    1bac:	05078793          	addi	a5,a5,80 # 21050 <UART_BUF_TX>
    1bb0:	07878a13          	addi	s4,a5,120
    1bb4:	015a0a33          	add	s4,s4,s5
    1bb8:	00499713          	slli	a4,s3,0x4
    1bbc:	41370733          	sub	a4,a4,s3
    1bc0:	00271713          	slli	a4,a4,0x2
    1bc4:	00e787b3          	add	a5,a5,a4
    1bc8:	0797c783          	lbu	a5,121(a5)
    1bcc:	06079263          	bnez	a5,1c30 <UARTintr_handler+0x104>
    1bd0:	01a00a93          	li	s5,26
    1bd4:	00021937          	lui	s2,0x21
    1bd8:	05090913          	addi	s2,s2,80 # 21050 <UART_BUF_TX>
    1bdc:	00e90933          	add	s2,s2,a4
    1be0:	0140006f          	j	1bf4 <UARTintr_handler+0xc8>
    1be4:	00100793          	li	a5,1
    1be8:	08f92423          	sw	a5,136(s2)
    1bec:	07994783          	lbu	a5,121(s2)
    1bf0:	04079063          	bnez	a5,1c30 <UARTintr_handler+0x104>
    1bf4:	0044a783          	lw	a5,4(s1)
    1bf8:	0087f793          	andi	a5,a5,8
    1bfc:	02079a63          	bnez	a5,1c30 <UARTintr_handler+0x104>
    1c00:	0004c403          	lbu	s0,0(s1)
    1c04:	0ff47413          	zext.b	s0,s0
    1c08:	00040593          	mv	a1,s0
    1c0c:	000a0513          	mv	a0,s4
    1c10:	c91ff0ef          	jal	18a0 <UARTBuf_write>
    1c14:	fd5408e3          	beq	s0,s5,1be4 <UARTintr_handler+0xb8>
    1c18:	00a00793          	li	a5,10
    1c1c:	fcf418e3          	bne	s0,a5,1bec <UARTintr_handler+0xc0>
    1c20:	08492783          	lw	a5,132(s2)
    1c24:	00178793          	addi	a5,a5,1
    1c28:	08f92223          	sw	a5,132(s2)
    1c2c:	fc1ff06f          	j	1bec <UARTintr_handler+0xc0>
    1c30:	01c12083          	lw	ra,28(sp)
    1c34:	01812403          	lw	s0,24(sp)
    1c38:	01412483          	lw	s1,20(sp)
    1c3c:	01012903          	lw	s2,16(sp)
    1c40:	00c12983          	lw	s3,12(sp)
    1c44:	00812a03          	lw	s4,8(sp)
    1c48:	00412a83          	lw	s5,4(sp)
    1c4c:	02010113          	addi	sp,sp,32
    1c50:	00008067          	ret

00001c54 <ext_intr_handler>:
    1c54:	ff010113          	addi	sp,sp,-16
    1c58:	00112623          	sw	ra,12(sp)
    1c5c:	00812423          	sw	s0,8(sp)
    1c60:	000217b7          	lui	a5,0x21
    1c64:	0447a783          	lw	a5,68(a5) # 21044 <sysctrl>
    1c68:	0007a403          	lw	s0,0(a5)
    1c6c:	00147793          	andi	a5,s0,1
    1c70:	02079663          	bnez	a5,1c9c <ext_intr_handler+0x48>
    1c74:	00247413          	andi	s0,s0,2
    1c78:	02041863          	bnez	s0,1ca8 <ext_intr_handler+0x54>
    1c7c:	000217b7          	lui	a5,0x21
    1c80:	0447a783          	lw	a5,68(a5) # 21044 <sysctrl>
    1c84:	07f00713          	li	a4,127
    1c88:	00e7a023          	sw	a4,0(a5)
    1c8c:	00c12083          	lw	ra,12(sp)
    1c90:	00812403          	lw	s0,8(sp)
    1c94:	01010113          	addi	sp,sp,16
    1c98:	00008067          	ret
    1c9c:	00000513          	li	a0,0
    1ca0:	e8dff0ef          	jal	1b2c <UARTintr_handler>
    1ca4:	fd1ff06f          	j	1c74 <ext_intr_handler+0x20>
    1ca8:	00100513          	li	a0,1
    1cac:	e81ff0ef          	jal	1b2c <UARTintr_handler>
    1cb0:	fcdff06f          	j	1c7c <ext_intr_handler+0x28>

00001cb4 <mhandler>:
    1cb4:	342027f3          	csrr	a5,mcause
    1cb8:	0007c463          	bltz	a5,1cc0 <mhandler+0xc>
    1cbc:	00008067          	ret
    1cc0:	ff010113          	addi	sp,sp,-16
    1cc4:	00112623          	sw	ra,12(sp)
    1cc8:	0ff7f793          	zext.b	a5,a5
    1ccc:	00700713          	li	a4,7
    1cd0:	00e78e63          	beq	a5,a4,1cec <mhandler+0x38>
    1cd4:	00b00713          	li	a4,11
    1cd8:	00e79463          	bne	a5,a4,1ce0 <mhandler+0x2c>
    1cdc:	f79ff0ef          	jal	1c54 <ext_intr_handler>
    1ce0:	00c12083          	lw	ra,12(sp)
    1ce4:	01010113          	addi	sp,sp,16
    1ce8:	00008067          	ret
    1cec:	000217b7          	lui	a5,0x21
    1cf0:	0447a583          	lw	a1,68(a5) # 21044 <sysctrl>
    1cf4:	0105a603          	lw	a2,16(a1)
    1cf8:	0145a683          	lw	a3,20(a1)
    1cfc:	000217b7          	lui	a5,0x21
    1d00:	1547a783          	lw	a5,340(a5) # 21154 <mtimer_interval>
    1d04:	41f7d713          	srai	a4,a5,0x1f
    1d08:	00c78533          	add	a0,a5,a2
    1d0c:	00f537b3          	sltu	a5,a0,a5
    1d10:	00d70733          	add	a4,a4,a3
    1d14:	00e786b3          	add	a3,a5,a4
    1d18:	00a5ac23          	sw	a0,24(a1)
    1d1c:	00d5ae23          	sw	a3,28(a1)
    1d20:	000217b7          	lui	a5,0x21
    1d24:	1507a783          	lw	a5,336(a5) # 21150 <timer_interrupt_hook>
    1d28:	fa078ce3          	beqz	a5,1ce0 <mhandler+0x2c>
    1d2c:	000780e7          	jalr	a5
    1d30:	fb1ff06f          	j	1ce0 <mhandler+0x2c>

00001d34 <set_gpio_string>:
    1d34:	000217b7          	lui	a5,0x21
    1d38:	0407a783          	lw	a5,64(a5) # 21040 <gpio>
    1d3c:	00a7a223          	sw	a0,4(a5)
    1d40:	00b7a423          	sw	a1,8(a5)
    1d44:	00008067          	ret

00001d48 <convert_char_seg7>:
    1d48:	fe050513          	addi	a0,a0,-32
    1d4c:	05a00793          	li	a5,90
    1d50:	14a7ee63          	bltu	a5,a0,1eac <convert_char_seg7+0x164>
    1d54:	00251513          	slli	a0,a0,0x2
    1d58:	000207b7          	lui	a5,0x20
    1d5c:	05878793          	addi	a5,a5,88 # 20058 <DATA_START+0x58>
    1d60:	00f50533          	add	a0,a0,a5
    1d64:	00052783          	lw	a5,0(a0)
    1d68:	00078067          	jr	a5
    1d6c:	03f00513          	li	a0,63
    1d70:	00008067          	ret
    1d74:	05b00513          	li	a0,91
    1d78:	00008067          	ret
    1d7c:	04f00513          	li	a0,79
    1d80:	00008067          	ret
    1d84:	06600513          	li	a0,102
    1d88:	00008067          	ret
    1d8c:	06d00513          	li	a0,109
    1d90:	00008067          	ret
    1d94:	07d00513          	li	a0,125
    1d98:	00008067          	ret
    1d9c:	02700513          	li	a0,39
    1da0:	00008067          	ret
    1da4:	07f00513          	li	a0,127
    1da8:	00008067          	ret
    1dac:	06f00513          	li	a0,111
    1db0:	00008067          	ret
    1db4:	07700513          	li	a0,119
    1db8:	00008067          	ret
    1dbc:	07c00513          	li	a0,124
    1dc0:	00008067          	ret
    1dc4:	03900513          	li	a0,57
    1dc8:	00008067          	ret
    1dcc:	05e00513          	li	a0,94
    1dd0:	00008067          	ret
    1dd4:	07900513          	li	a0,121
    1dd8:	00008067          	ret
    1ddc:	07100513          	li	a0,113
    1de0:	00008067          	ret
    1de4:	03d00513          	li	a0,61
    1de8:	00008067          	ret
    1dec:	07600513          	li	a0,118
    1df0:	00008067          	ret
    1df4:	00400513          	li	a0,4
    1df8:	00008067          	ret
    1dfc:	00e00513          	li	a0,14
    1e00:	00008067          	ret
    1e04:	07800513          	li	a0,120
    1e08:	00008067          	ret
    1e0c:	03800513          	li	a0,56
    1e10:	00008067          	ret
    1e14:	03700513          	li	a0,55
    1e18:	00008067          	ret
    1e1c:	05400513          	li	a0,84
    1e20:	00008067          	ret
    1e24:	05c00513          	li	a0,92
    1e28:	00008067          	ret
    1e2c:	07300513          	li	a0,115
    1e30:	00008067          	ret
    1e34:	06700513          	li	a0,103
    1e38:	00008067          	ret
    1e3c:	05000513          	li	a0,80
    1e40:	00008067          	ret
    1e44:	0ed00513          	li	a0,237
    1e48:	00008067          	ret
    1e4c:	07000513          	li	a0,112
    1e50:	00008067          	ret
    1e54:	03e00513          	li	a0,62
    1e58:	00008067          	ret
    1e5c:	01c00513          	li	a0,28
    1e60:	00008067          	ret
    1e64:	0be00513          	li	a0,190
    1e68:	00008067          	ret
    1e6c:	0f600513          	li	a0,246
    1e70:	00008067          	ret
    1e74:	06e00513          	li	a0,110
    1e78:	00008067          	ret
    1e7c:	0db00513          	li	a0,219
    1e80:	00008067          	ret
    1e84:	04000513          	li	a0,64
    1e88:	00008067          	ret
    1e8c:	00800513          	li	a0,8
    1e90:	00008067          	ret
    1e94:	08000513          	li	a0,128
    1e98:	00008067          	ret
    1e9c:	00000513          	li	a0,0
    1ea0:	00008067          	ret
    1ea4:	04800513          	li	a0,72
    1ea8:	00008067          	ret
    1eac:	00000513          	li	a0,0
    1eb0:	00008067          	ret
    1eb4:	00600513          	li	a0,6
    1eb8:	00008067          	ret

00001ebc <convert_hex_char>:
    1ebc:	00f57513          	andi	a0,a0,15
    1ec0:	00900793          	li	a5,9
    1ec4:	00a7c663          	blt	a5,a0,1ed0 <convert_hex_char+0x14>
    1ec8:	03050513          	addi	a0,a0,48
    1ecc:	00008067          	ret
    1ed0:	05750513          	addi	a0,a0,87
    1ed4:	00008067          	ret

00001ed8 <convert_unsigned_hex_str>:
    1ed8:	ff010113          	addi	sp,sp,-16
    1edc:	00112623          	sw	ra,12(sp)
    1ee0:	00812423          	sw	s0,8(sp)
    1ee4:	00912223          	sw	s1,4(sp)
    1ee8:	01212023          	sw	s2,0(sp)
    1eec:	00050493          	mv	s1,a0
    1ef0:	00c55513          	srli	a0,a0,0xc
    1ef4:	fc9ff0ef          	jal	1ebc <convert_hex_char>
    1ef8:	00050413          	mv	s0,a0
    1efc:	0084d513          	srli	a0,s1,0x8
    1f00:	fbdff0ef          	jal	1ebc <convert_hex_char>
    1f04:	01841413          	slli	s0,s0,0x18
    1f08:	01051513          	slli	a0,a0,0x10
    1f0c:	00a46433          	or	s0,s0,a0
    1f10:	0044d513          	srli	a0,s1,0x4
    1f14:	fa9ff0ef          	jal	1ebc <convert_hex_char>
    1f18:	00050913          	mv	s2,a0
    1f1c:	00048513          	mv	a0,s1
    1f20:	f9dff0ef          	jal	1ebc <convert_hex_char>
    1f24:	00891913          	slli	s2,s2,0x8
    1f28:	00a46533          	or	a0,s0,a0
    1f2c:	00a96533          	or	a0,s2,a0
    1f30:	00c12083          	lw	ra,12(sp)
    1f34:	00812403          	lw	s0,8(sp)
    1f38:	00412483          	lw	s1,4(sp)
    1f3c:	00012903          	lw	s2,0(sp)
    1f40:	01010113          	addi	sp,sp,16
    1f44:	00008067          	ret

00001f48 <set_gpio_error>:
    1f48:	fe010113          	addi	sp,sp,-32
    1f4c:	00112e23          	sw	ra,28(sp)
    1f50:	00812c23          	sw	s0,24(sp)
    1f54:	00912a23          	sw	s1,20(sp)
    1f58:	01212823          	sw	s2,16(sp)
    1f5c:	01312623          	sw	s3,12(sp)
    1f60:	01412423          	sw	s4,8(sp)
    1f64:	01512223          	sw	s5,4(sp)
    1f68:	01612023          	sw	s6,0(sp)
    1f6c:	f6dff0ef          	jal	1ed8 <convert_unsigned_hex_str>
    1f70:	00050a93          	mv	s5,a0
    1f74:	06500513          	li	a0,101
    1f78:	dd1ff0ef          	jal	1d48 <convert_char_seg7>
    1f7c:	00050493          	mv	s1,a0
    1f80:	07200513          	li	a0,114
    1f84:	dc5ff0ef          	jal	1d48 <convert_char_seg7>
    1f88:	00050413          	mv	s0,a0
    1f8c:	01849493          	slli	s1,s1,0x18
    1f90:	01051793          	slli	a5,a0,0x10
    1f94:	00f4e4b3          	or	s1,s1,a5
    1f98:	02d00513          	li	a0,45
    1f9c:	dadff0ef          	jal	1d48 <convert_char_seg7>
    1fa0:	00050b13          	mv	s6,a0
    1fa4:	018ad513          	srli	a0,s5,0x18
    1fa8:	da1ff0ef          	jal	1d48 <convert_char_seg7>
    1fac:	00050a13          	mv	s4,a0
    1fb0:	010ad513          	srli	a0,s5,0x10
    1fb4:	0ff57513          	zext.b	a0,a0
    1fb8:	d91ff0ef          	jal	1d48 <convert_char_seg7>
    1fbc:	00050993          	mv	s3,a0
    1fc0:	008ad513          	srli	a0,s5,0x8
    1fc4:	0ff57513          	zext.b	a0,a0
    1fc8:	d81ff0ef          	jal	1d48 <convert_char_seg7>
    1fcc:	00050913          	mv	s2,a0
    1fd0:	0ffaf513          	zext.b	a0,s5
    1fd4:	d75ff0ef          	jal	1d48 <convert_char_seg7>
    1fd8:	00841793          	slli	a5,s0,0x8
    1fdc:	0097e7b3          	or	a5,a5,s1
    1fe0:	0167e7b3          	or	a5,a5,s6
    1fe4:	008a5693          	srli	a3,s4,0x8
    1fe8:	018a1a13          	slli	s4,s4,0x18
    1fec:	01456733          	or	a4,a0,s4
    1ff0:	00d7e7b3          	or	a5,a5,a3
    1ff4:	0109d693          	srli	a3,s3,0x10
    1ff8:	01099993          	slli	s3,s3,0x10
    1ffc:	01376733          	or	a4,a4,s3
    2000:	00d7e7b3          	or	a5,a5,a3
    2004:	01895593          	srli	a1,s2,0x18
    2008:	00891513          	slli	a0,s2,0x8
    200c:	00a76533          	or	a0,a4,a0
    2010:	00b7e5b3          	or	a1,a5,a1
    2014:	d21ff0ef          	jal	1d34 <set_gpio_string>
    2018:	01c12083          	lw	ra,28(sp)
    201c:	01812403          	lw	s0,24(sp)
    2020:	01412483          	lw	s1,20(sp)
    2024:	01012903          	lw	s2,16(sp)
    2028:	00c12983          	lw	s3,12(sp)
    202c:	00812a03          	lw	s4,8(sp)
    2030:	00412a83          	lw	s5,4(sp)
    2034:	00012b03          	lw	s6,0(sp)
    2038:	02010113          	addi	sp,sp,32
    203c:	00008067          	ret

00002040 <enter_critical_section>:
    2040:	00021737          	lui	a4,0x21
    2044:	15872783          	lw	a5,344(a4) # 21158 <critical_section_depth>
    2048:	00178693          	addi	a3,a5,1
    204c:	14d72c23          	sw	a3,344(a4)
    2050:	00079c63          	bnez	a5,2068 <enter_critical_section+0x28>
    2054:	30002773          	csrr	a4,mstatus
    2058:	000217b7          	lui	a5,0x21
    205c:	14e7ae23          	sw	a4,348(a5) # 2115c <prv_mstatus>
    2060:	30047073          	csrci	mstatus,8
    2064:	00008067          	ret
    2068:	ff010113          	addi	sp,sp,-16
    206c:	00112623          	sw	ra,12(sp)
    2070:	00000513          	li	a0,0
    2074:	ed5ff0ef          	jal	1f48 <set_gpio_error>
    2078:	00c12083          	lw	ra,12(sp)
    207c:	01010113          	addi	sp,sp,16
    2080:	00008067          	ret

00002084 <leave_critical_section>:
    2084:	00021737          	lui	a4,0x21
    2088:	15872783          	lw	a5,344(a4) # 21158 <critical_section_depth>
    208c:	fff78793          	addi	a5,a5,-1
    2090:	14f72c23          	sw	a5,344(a4)
    2094:	00079a63          	bnez	a5,20a8 <leave_critical_section+0x24>
    2098:	000217b7          	lui	a5,0x21
    209c:	15c7a783          	lw	a5,348(a5) # 2115c <prv_mstatus>
    20a0:	30079073          	csrw	mstatus,a5
    20a4:	00008067          	ret
    20a8:	ff010113          	addi	sp,sp,-16
    20ac:	00112623          	sw	ra,12(sp)
    20b0:	00100513          	li	a0,1
    20b4:	e95ff0ef          	jal	1f48 <set_gpio_error>
    20b8:	00c12083          	lw	ra,12(sp)
    20bc:	01010113          	addi	sp,sp,16
    20c0:	00008067          	ret

000020c4 <_UARTBuf_putch>:
    20c4:	ff010113          	addi	sp,sp,-16
    20c8:	00112623          	sw	ra,12(sp)
    20cc:	00812423          	sw	s0,8(sp)
    20d0:	00912223          	sw	s1,4(sp)
    20d4:	01212023          	sw	s2,0(sp)
    20d8:	00050493          	mv	s1,a0
    20dc:	000217b7          	lui	a5,0x21
    20e0:	1607a683          	lw	a3,352(a5) # 21160 <UART_CHAN_ID>
    20e4:	00469793          	slli	a5,a3,0x4
    20e8:	40d787b3          	sub	a5,a5,a3
    20ec:	00279793          	slli	a5,a5,0x2
    20f0:	00021437          	lui	s0,0x21
    20f4:	05040413          	addi	s0,s0,80 # 21050 <UART_BUF_TX>
    20f8:	00f40433          	add	s0,s0,a5
    20fc:	00040713          	mv	a4,s0
    2100:	00174783          	lbu	a5,1(a4)
    2104:	fe079ee3          	bnez	a5,2100 <_UARTBuf_putch+0x3c>
    2108:	000217b7          	lui	a5,0x21
    210c:	00269693          	slli	a3,a3,0x2
    2110:	03878793          	addi	a5,a5,56 # 21038 <_uart>
    2114:	00d787b3          	add	a5,a5,a3
    2118:	0007a903          	lw	s2,0(a5)
    211c:	f25ff0ef          	jal	2040 <enter_critical_section>
    2120:	00048593          	mv	a1,s1
    2124:	00040513          	mv	a0,s0
    2128:	f78ff0ef          	jal	18a0 <UARTBuf_write>
    212c:	00492783          	lw	a5,4(s2)
    2130:	0017f793          	andi	a5,a5,1
    2134:	02078063          	beqz	a5,2154 <_UARTBuf_putch+0x90>
    2138:	f4dff0ef          	jal	2084 <leave_critical_section>
    213c:	00c12083          	lw	ra,12(sp)
    2140:	00812403          	lw	s0,8(sp)
    2144:	00412483          	lw	s1,4(sp)
    2148:	00012903          	lw	s2,0(sp)
    214c:	01010113          	addi	sp,sp,16
    2150:	00008067          	ret
    2154:	00040513          	mv	a0,s0
    2158:	f98ff0ef          	jal	18f0 <UARTBuf_read>
    215c:	00a90023          	sb	a0,0(s2)
    2160:	fd9ff06f          	j	2138 <_UARTBuf_putch+0x74>

00002164 <_UARTBuf_getch>:
    2164:	ff010113          	addi	sp,sp,-16
    2168:	00112623          	sw	ra,12(sp)
    216c:	00812423          	sw	s0,8(sp)
    2170:	000217b7          	lui	a5,0x21
    2174:	1607a703          	lw	a4,352(a5) # 21160 <UART_CHAN_ID>
    2178:	00471793          	slli	a5,a4,0x4
    217c:	40e787b3          	sub	a5,a5,a4
    2180:	00279793          	slli	a5,a5,0x2
    2184:	00021437          	lui	s0,0x21
    2188:	0c840413          	addi	s0,s0,200 # 210c8 <UART_BUF_RX>
    218c:	00f40433          	add	s0,s0,a5
    2190:	00471793          	slli	a5,a4,0x4
    2194:	40e787b3          	sub	a5,a5,a4
    2198:	00279793          	slli	a5,a5,0x2
    219c:	00021737          	lui	a4,0x21
    21a0:	05070713          	addi	a4,a4,80 # 21050 <UART_BUF_TX>
    21a4:	00f70733          	add	a4,a4,a5
    21a8:	07874783          	lbu	a5,120(a4)
    21ac:	fe078ee3          	beqz	a5,21a8 <_UARTBuf_getch+0x44>
    21b0:	e91ff0ef          	jal	2040 <enter_critical_section>
    21b4:	00040513          	mv	a0,s0
    21b8:	f38ff0ef          	jal	18f0 <UARTBuf_read>
    21bc:	00050413          	mv	s0,a0
    21c0:	ec5ff0ef          	jal	2084 <leave_critical_section>
    21c4:	00040513          	mv	a0,s0
    21c8:	00c12083          	lw	ra,12(sp)
    21cc:	00812403          	lw	s0,8(sp)
    21d0:	01010113          	addi	sp,sp,16
    21d4:	00008067          	ret

000021d8 <UARTBuf_consume_new_line>:
    21d8:	ff010113          	addi	sp,sp,-16
    21dc:	00112623          	sw	ra,12(sp)
    21e0:	00812423          	sw	s0,8(sp)
    21e4:	00050413          	mv	s0,a0
    21e8:	e59ff0ef          	jal	2040 <enter_critical_section>
    21ec:	00c42783          	lw	a5,12(s0)
    21f0:	fff78793          	addi	a5,a5,-1
    21f4:	00f42623          	sw	a5,12(s0)
    21f8:	e8dff0ef          	jal	2084 <leave_critical_section>
    21fc:	00c12083          	lw	ra,12(sp)
    2200:	00812403          	lw	s0,8(sp)
    2204:	01010113          	addi	sp,sp,16
    2208:	00008067          	ret

0000220c <set_mtimer_interval>:
    220c:	00151793          	slli	a5,a0,0x1
    2210:	00a787b3          	add	a5,a5,a0
    2214:	00679713          	slli	a4,a5,0x6
    2218:	00e787b3          	add	a5,a5,a4
    221c:	00279793          	slli	a5,a5,0x2
    2220:	00a787b3          	add	a5,a5,a0
    2224:	00279793          	slli	a5,a5,0x2
    2228:	00a78533          	add	a0,a5,a0
    222c:	000217b7          	lui	a5,0x21
    2230:	14a7aa23          	sw	a0,340(a5) # 21154 <mtimer_interval>
    2234:	00008067          	ret

00002238 <mtime_to_microsec>:
    2238:	ff010113          	addi	sp,sp,-16
    223c:	00112623          	sw	ra,12(sp)
    2240:	03200593          	li	a1,50
    2244:	00451513          	slli	a0,a0,0x4
    2248:	515000ef          	jal	2f5c <__hidden___udivsi3>
    224c:	00c12083          	lw	ra,12(sp)
    2250:	01010113          	addi	sp,sp,16
    2254:	00008067          	ret

00002258 <enable_timer_interrupt>:
    2258:	08000793          	li	a5,128
    225c:	3047a073          	csrs	mie,a5
    2260:	30046073          	csrsi	mstatus,8
    2264:	000027b7          	lui	a5,0x2
    2268:	30c78793          	addi	a5,a5,780 # 230c <_mhandler>
    226c:	30579073          	csrw	mtvec,a5
    2270:	00008067          	ret

00002274 <start_profiler>:
    2274:	c0002773          	rdcycle	a4
    2278:	000217b7          	lui	a5,0x21
    227c:	05078793          	addi	a5,a5,80 # 21050 <UART_BUF_TX>
    2280:	0ee7a823          	sw	a4,240(a5)
    2284:	c0202773          	rdinstret	a4
    2288:	0ee7ac23          	sw	a4,248(a5)
    228c:	c0102773          	rdtime	a4
    2290:	0ee7aa23          	sw	a4,244(a5)
    2294:	00008067          	ret

00002298 <end_profiler>:
    2298:	ff010113          	addi	sp,sp,-16
    229c:	00112623          	sw	ra,12(sp)
    22a0:	00812423          	sw	s0,8(sp)
    22a4:	00912223          	sw	s1,4(sp)
    22a8:	01212023          	sw	s2,0(sp)
    22ac:	c00024f3          	rdcycle	s1
    22b0:	c0202973          	rdinstret	s2
    22b4:	c0102573          	rdtime	a0
    22b8:	00021437          	lui	s0,0x21
    22bc:	05040413          	addi	s0,s0,80 # 21050 <UART_BUF_TX>
    22c0:	0f442783          	lw	a5,244(s0)
    22c4:	40f50533          	sub	a0,a0,a5
    22c8:	03200593          	li	a1,50
    22cc:	00451513          	slli	a0,a0,0x4
    22d0:	48d000ef          	jal	2f5c <__hidden___udivsi3>
    22d4:	00050693          	mv	a3,a0
    22d8:	0f842603          	lw	a2,248(s0)
    22dc:	0f042583          	lw	a1,240(s0)
    22e0:	40c90633          	sub	a2,s2,a2
    22e4:	40b485b3          	sub	a1,s1,a1
    22e8:	00020537          	lui	a0,0x20
    22ec:	31850513          	addi	a0,a0,792 # 20318 <__clz_tab+0x154>
    22f0:	990ff0ef          	jal	1480 <printf>
    22f4:	00c12083          	lw	ra,12(sp)
    22f8:	00812403          	lw	s0,8(sp)
    22fc:	00412483          	lw	s1,4(sp)
    2300:	00012903          	lw	s2,0(sp)
    2304:	01010113          	addi	sp,sp,16
    2308:	00008067          	ret

0000230c <_mhandler>:
    230c:	fc010113          	addi	sp,sp,-64
    2310:	00112023          	sw	ra,0(sp)
    2314:	00512223          	sw	t0,4(sp)
    2318:	00612423          	sw	t1,8(sp)
    231c:	00712623          	sw	t2,12(sp)
    2320:	00a12823          	sw	a0,16(sp)
    2324:	00b12a23          	sw	a1,20(sp)
    2328:	00c12c23          	sw	a2,24(sp)
    232c:	00d12e23          	sw	a3,28(sp)
    2330:	02e12023          	sw	a4,32(sp)
    2334:	02f12223          	sw	a5,36(sp)
    2338:	03012423          	sw	a6,40(sp)
    233c:	03112623          	sw	a7,44(sp)
    2340:	03c12823          	sw	t3,48(sp)
    2344:	03d12a23          	sw	t4,52(sp)
    2348:	03e12c23          	sw	t5,56(sp)
    234c:	03f12e23          	sw	t6,60(sp)
    2350:	965ff0ef          	jal	1cb4 <mhandler>
    2354:	00012083          	lw	ra,0(sp)
    2358:	00412283          	lw	t0,4(sp)
    235c:	00812303          	lw	t1,8(sp)
    2360:	00c12383          	lw	t2,12(sp)
    2364:	01012503          	lw	a0,16(sp)
    2368:	01412583          	lw	a1,20(sp)
    236c:	01812603          	lw	a2,24(sp)
    2370:	01c12683          	lw	a3,28(sp)
    2374:	02012703          	lw	a4,32(sp)
    2378:	02412783          	lw	a5,36(sp)
    237c:	02812803          	lw	a6,40(sp)
    2380:	02c12883          	lw	a7,44(sp)
    2384:	03012e03          	lw	t3,48(sp)
    2388:	03412e83          	lw	t4,52(sp)
    238c:	03812f03          	lw	t5,56(sp)
    2390:	03c12f83          	lw	t6,60(sp)
    2394:	04010113          	addi	sp,sp,64
    2398:	30200073          	mret

0000239c <__divdi3>:
    239c:	fd010113          	addi	sp,sp,-48
    23a0:	02912223          	sw	s1,36(sp)
    23a4:	01412c23          	sw	s4,24(sp)
    23a8:	02112623          	sw	ra,44(sp)
    23ac:	02812423          	sw	s0,40(sp)
    23b0:	03212023          	sw	s2,32(sp)
    23b4:	01312e23          	sw	s3,28(sp)
    23b8:	01512a23          	sw	s5,20(sp)
    23bc:	01612823          	sw	s6,16(sp)
    23c0:	01712623          	sw	s7,12(sp)
    23c4:	01812423          	sw	s8,8(sp)
    23c8:	01912223          	sw	s9,4(sp)
    23cc:	01a12023          	sw	s10,0(sp)
    23d0:	00050a13          	mv	s4,a0
    23d4:	00000493          	li	s1,0
    23d8:	0005dc63          	bgez	a1,23f0 <__divdi3+0x54>
    23dc:	00a037b3          	snez	a5,a0
    23e0:	40b005b3          	neg	a1,a1
    23e4:	40f585b3          	sub	a1,a1,a5
    23e8:	40a00a33          	neg	s4,a0
    23ec:	fff00493          	li	s1,-1
    23f0:	0006dc63          	bgez	a3,2408 <__divdi3+0x6c>
    23f4:	00c037b3          	snez	a5,a2
    23f8:	40d006b3          	neg	a3,a3
    23fc:	fff4c493          	not	s1,s1
    2400:	40f686b3          	sub	a3,a3,a5
    2404:	40c00633          	neg	a2,a2
    2408:	00060a93          	mv	s5,a2
    240c:	000a0913          	mv	s2,s4
    2410:	00058993          	mv	s3,a1
    2414:	38069a63          	bnez	a3,27a8 <__divdi3+0x40c>
    2418:	000207b7          	lui	a5,0x20
    241c:	1c478793          	addi	a5,a5,452 # 201c4 <__clz_tab>
    2420:	12c5f663          	bgeu	a1,a2,254c <__divdi3+0x1b0>
    2424:	00010737          	lui	a4,0x10
    2428:	10e67863          	bgeu	a2,a4,2538 <__divdi3+0x19c>
    242c:	10063713          	sltiu	a4,a2,256
    2430:	00173713          	seqz	a4,a4
    2434:	00371713          	slli	a4,a4,0x3
    2438:	00e656b3          	srl	a3,a2,a4
    243c:	00d787b3          	add	a5,a5,a3
    2440:	0007c783          	lbu	a5,0(a5)
    2444:	02000693          	li	a3,32
    2448:	00e787b3          	add	a5,a5,a4
    244c:	40f68733          	sub	a4,a3,a5
    2450:	00f68c63          	beq	a3,a5,2468 <__divdi3+0xcc>
    2454:	00e599b3          	sll	s3,a1,a4
    2458:	00fa57b3          	srl	a5,s4,a5
    245c:	00e61ab3          	sll	s5,a2,a4
    2460:	0137e9b3          	or	s3,a5,s3
    2464:	00ea1933          	sll	s2,s4,a4
    2468:	010adb13          	srli	s6,s5,0x10
    246c:	000b0593          	mv	a1,s6
    2470:	00098513          	mv	a0,s3
    2474:	010a9b93          	slli	s7,s5,0x10
    2478:	2e5000ef          	jal	2f5c <__hidden___udivsi3>
    247c:	010bdb93          	srli	s7,s7,0x10
    2480:	00050593          	mv	a1,a0
    2484:	00050a13          	mv	s4,a0
    2488:	000b8513          	mv	a0,s7
    248c:	2a5000ef          	jal	2f30 <__mulsi3>
    2490:	00050413          	mv	s0,a0
    2494:	000b0593          	mv	a1,s6
    2498:	00098513          	mv	a0,s3
    249c:	309000ef          	jal	2fa4 <__umodsi3>
    24a0:	01051513          	slli	a0,a0,0x10
    24a4:	01095713          	srli	a4,s2,0x10
    24a8:	00a76733          	or	a4,a4,a0
    24ac:	000a0993          	mv	s3,s4
    24b0:	00877e63          	bgeu	a4,s0,24cc <__divdi3+0x130>
    24b4:	00ea8733          	add	a4,s5,a4
    24b8:	fffa0993          	addi	s3,s4,-1
    24bc:	01576863          	bltu	a4,s5,24cc <__divdi3+0x130>
    24c0:	00877663          	bgeu	a4,s0,24cc <__divdi3+0x130>
    24c4:	ffea0993          	addi	s3,s4,-2
    24c8:	01570733          	add	a4,a4,s5
    24cc:	40870433          	sub	s0,a4,s0
    24d0:	000b0593          	mv	a1,s6
    24d4:	00040513          	mv	a0,s0
    24d8:	285000ef          	jal	2f5c <__hidden___udivsi3>
    24dc:	00050593          	mv	a1,a0
    24e0:	00050a13          	mv	s4,a0
    24e4:	000b8513          	mv	a0,s7
    24e8:	249000ef          	jal	2f30 <__mulsi3>
    24ec:	00050b93          	mv	s7,a0
    24f0:	000b0593          	mv	a1,s6
    24f4:	00040513          	mv	a0,s0
    24f8:	2ad000ef          	jal	2fa4 <__umodsi3>
    24fc:	01091913          	slli	s2,s2,0x10
    2500:	01051513          	slli	a0,a0,0x10
    2504:	01095913          	srli	s2,s2,0x10
    2508:	00a96933          	or	s2,s2,a0
    250c:	000a0713          	mv	a4,s4
    2510:	01797c63          	bgeu	s2,s7,2528 <__divdi3+0x18c>
    2514:	012a8933          	add	s2,s5,s2
    2518:	fffa0713          	addi	a4,s4,-1
    251c:	01596663          	bltu	s2,s5,2528 <__divdi3+0x18c>
    2520:	01797463          	bgeu	s2,s7,2528 <__divdi3+0x18c>
    2524:	ffea0713          	addi	a4,s4,-2
    2528:	01099793          	slli	a5,s3,0x10
    252c:	00e7e7b3          	or	a5,a5,a4
    2530:	00000993          	li	s3,0
    2534:	1200006f          	j	2654 <__divdi3+0x2b8>
    2538:	010006b7          	lui	a3,0x1000
    253c:	01800713          	li	a4,24
    2540:	eed67ce3          	bgeu	a2,a3,2438 <__divdi3+0x9c>
    2544:	01000713          	li	a4,16
    2548:	ef1ff06f          	j	2438 <__divdi3+0x9c>
    254c:	00000713          	li	a4,0
    2550:	00060c63          	beqz	a2,2568 <__divdi3+0x1cc>
    2554:	00010737          	lui	a4,0x10
    2558:	14e67863          	bgeu	a2,a4,26a8 <__divdi3+0x30c>
    255c:	10063713          	sltiu	a4,a2,256
    2560:	00173713          	seqz	a4,a4
    2564:	00371713          	slli	a4,a4,0x3
    2568:	00e656b3          	srl	a3,a2,a4
    256c:	00d787b3          	add	a5,a5,a3
    2570:	0007c783          	lbu	a5,0(a5)
    2574:	02000693          	li	a3,32
    2578:	00e787b3          	add	a5,a5,a4
    257c:	40f68733          	sub	a4,a3,a5
    2580:	12f69e63          	bne	a3,a5,26bc <__divdi3+0x320>
    2584:	40c58a33          	sub	s4,a1,a2
    2588:	00100993          	li	s3,1
    258c:	010adb13          	srli	s6,s5,0x10
    2590:	000b0593          	mv	a1,s6
    2594:	000a0513          	mv	a0,s4
    2598:	010a9b93          	slli	s7,s5,0x10
    259c:	1c1000ef          	jal	2f5c <__hidden___udivsi3>
    25a0:	010bdb93          	srli	s7,s7,0x10
    25a4:	00050593          	mv	a1,a0
    25a8:	00050c93          	mv	s9,a0
    25ac:	000b8513          	mv	a0,s7
    25b0:	181000ef          	jal	2f30 <__mulsi3>
    25b4:	00050c13          	mv	s8,a0
    25b8:	000b0593          	mv	a1,s6
    25bc:	000a0513          	mv	a0,s4
    25c0:	1e5000ef          	jal	2fa4 <__umodsi3>
    25c4:	01051513          	slli	a0,a0,0x10
    25c8:	01095713          	srli	a4,s2,0x10
    25cc:	00a76733          	or	a4,a4,a0
    25d0:	000c8a13          	mv	s4,s9
    25d4:	01877e63          	bgeu	a4,s8,25f0 <__divdi3+0x254>
    25d8:	00ea8733          	add	a4,s5,a4
    25dc:	fffc8a13          	addi	s4,s9,-1
    25e0:	01576863          	bltu	a4,s5,25f0 <__divdi3+0x254>
    25e4:	01877663          	bgeu	a4,s8,25f0 <__divdi3+0x254>
    25e8:	ffec8a13          	addi	s4,s9,-2
    25ec:	01570733          	add	a4,a4,s5
    25f0:	41870433          	sub	s0,a4,s8
    25f4:	000b0593          	mv	a1,s6
    25f8:	00040513          	mv	a0,s0
    25fc:	161000ef          	jal	2f5c <__hidden___udivsi3>
    2600:	00050593          	mv	a1,a0
    2604:	00050c13          	mv	s8,a0
    2608:	000b8513          	mv	a0,s7
    260c:	125000ef          	jal	2f30 <__mulsi3>
    2610:	00050b93          	mv	s7,a0
    2614:	000b0593          	mv	a1,s6
    2618:	00040513          	mv	a0,s0
    261c:	189000ef          	jal	2fa4 <__umodsi3>
    2620:	01091913          	slli	s2,s2,0x10
    2624:	01051513          	slli	a0,a0,0x10
    2628:	01095913          	srli	s2,s2,0x10
    262c:	00a96933          	or	s2,s2,a0
    2630:	000c0713          	mv	a4,s8
    2634:	01797c63          	bgeu	s2,s7,264c <__divdi3+0x2b0>
    2638:	012a8933          	add	s2,s5,s2
    263c:	fffc0713          	addi	a4,s8,-1
    2640:	01596663          	bltu	s2,s5,264c <__divdi3+0x2b0>
    2644:	01797463          	bgeu	s2,s7,264c <__divdi3+0x2b0>
    2648:	ffec0713          	addi	a4,s8,-2
    264c:	010a1793          	slli	a5,s4,0x10
    2650:	00e7e7b3          	or	a5,a5,a4
    2654:	00078513          	mv	a0,a5
    2658:	00098593          	mv	a1,s3
    265c:	00048a63          	beqz	s1,2670 <__divdi3+0x2d4>
    2660:	00f037b3          	snez	a5,a5
    2664:	413005b3          	neg	a1,s3
    2668:	40f585b3          	sub	a1,a1,a5
    266c:	40a00533          	neg	a0,a0
    2670:	02c12083          	lw	ra,44(sp)
    2674:	02812403          	lw	s0,40(sp)
    2678:	02412483          	lw	s1,36(sp)
    267c:	02012903          	lw	s2,32(sp)
    2680:	01c12983          	lw	s3,28(sp)
    2684:	01812a03          	lw	s4,24(sp)
    2688:	01412a83          	lw	s5,20(sp)
    268c:	01012b03          	lw	s6,16(sp)
    2690:	00c12b83          	lw	s7,12(sp)
    2694:	00812c03          	lw	s8,8(sp)
    2698:	00412c83          	lw	s9,4(sp)
    269c:	00012d03          	lw	s10,0(sp)
    26a0:	03010113          	addi	sp,sp,48
    26a4:	00008067          	ret
    26a8:	010006b7          	lui	a3,0x1000
    26ac:	01800713          	li	a4,24
    26b0:	ead67ce3          	bgeu	a2,a3,2568 <__divdi3+0x1cc>
    26b4:	01000713          	li	a4,16
    26b8:	eb1ff06f          	j	2568 <__divdi3+0x1cc>
    26bc:	00e61ab3          	sll	s5,a2,a4
    26c0:	00f5d9b3          	srl	s3,a1,a5
    26c4:	010adb93          	srli	s7,s5,0x10
    26c8:	00e595b3          	sll	a1,a1,a4
    26cc:	00fa57b3          	srl	a5,s4,a5
    26d0:	00b7eb33          	or	s6,a5,a1
    26d4:	00ea1933          	sll	s2,s4,a4
    26d8:	000b8593          	mv	a1,s7
    26dc:	00098513          	mv	a0,s3
    26e0:	010a9a13          	slli	s4,s5,0x10
    26e4:	079000ef          	jal	2f5c <__hidden___udivsi3>
    26e8:	010a5a13          	srli	s4,s4,0x10
    26ec:	00050593          	mv	a1,a0
    26f0:	00050c13          	mv	s8,a0
    26f4:	000a0513          	mv	a0,s4
    26f8:	039000ef          	jal	2f30 <__mulsi3>
    26fc:	00050413          	mv	s0,a0
    2700:	000b8593          	mv	a1,s7
    2704:	00098513          	mv	a0,s3
    2708:	09d000ef          	jal	2fa4 <__umodsi3>
    270c:	01051513          	slli	a0,a0,0x10
    2710:	010b5713          	srli	a4,s6,0x10
    2714:	00a76733          	or	a4,a4,a0
    2718:	000c0993          	mv	s3,s8
    271c:	00877e63          	bgeu	a4,s0,2738 <__divdi3+0x39c>
    2720:	00ea8733          	add	a4,s5,a4
    2724:	fffc0993          	addi	s3,s8,-1
    2728:	01576863          	bltu	a4,s5,2738 <__divdi3+0x39c>
    272c:	00877663          	bgeu	a4,s0,2738 <__divdi3+0x39c>
    2730:	ffec0993          	addi	s3,s8,-2
    2734:	01570733          	add	a4,a4,s5
    2738:	40870433          	sub	s0,a4,s0
    273c:	000b8593          	mv	a1,s7
    2740:	00040513          	mv	a0,s0
    2744:	019000ef          	jal	2f5c <__hidden___udivsi3>
    2748:	00050593          	mv	a1,a0
    274c:	00050c13          	mv	s8,a0
    2750:	000a0513          	mv	a0,s4
    2754:	7dc000ef          	jal	2f30 <__mulsi3>
    2758:	00050a13          	mv	s4,a0
    275c:	000b8593          	mv	a1,s7
    2760:	00040513          	mv	a0,s0
    2764:	041000ef          	jal	2fa4 <__umodsi3>
    2768:	010b1793          	slli	a5,s6,0x10
    276c:	01051513          	slli	a0,a0,0x10
    2770:	0107d793          	srli	a5,a5,0x10
    2774:	00a7e7b3          	or	a5,a5,a0
    2778:	000c0713          	mv	a4,s8
    277c:	0147fe63          	bgeu	a5,s4,2798 <__divdi3+0x3fc>
    2780:	00fa87b3          	add	a5,s5,a5
    2784:	fffc0713          	addi	a4,s8,-1
    2788:	0157e863          	bltu	a5,s5,2798 <__divdi3+0x3fc>
    278c:	0147f663          	bgeu	a5,s4,2798 <__divdi3+0x3fc>
    2790:	ffec0713          	addi	a4,s8,-2
    2794:	015787b3          	add	a5,a5,s5
    2798:	01099993          	slli	s3,s3,0x10
    279c:	41478a33          	sub	s4,a5,s4
    27a0:	00e9e9b3          	or	s3,s3,a4
    27a4:	de9ff06f          	j	258c <__divdi3+0x1f0>
    27a8:	1ed5ec63          	bltu	a1,a3,29a0 <__divdi3+0x604>
    27ac:	000107b7          	lui	a5,0x10
    27b0:	04f6f463          	bgeu	a3,a5,27f8 <__divdi3+0x45c>
    27b4:	1006b713          	sltiu	a4,a3,256
    27b8:	00173713          	seqz	a4,a4
    27bc:	00371713          	slli	a4,a4,0x3
    27c0:	000207b7          	lui	a5,0x20
    27c4:	00e6d533          	srl	a0,a3,a4
    27c8:	1c478793          	addi	a5,a5,452 # 201c4 <__clz_tab>
    27cc:	00a787b3          	add	a5,a5,a0
    27d0:	0007c803          	lbu	a6,0(a5)
    27d4:	02000793          	li	a5,32
    27d8:	00e80833          	add	a6,a6,a4
    27dc:	410789b3          	sub	s3,a5,a6
    27e0:	03079663          	bne	a5,a6,280c <__divdi3+0x470>
    27e4:	00100793          	li	a5,1
    27e8:	e6b6e6e3          	bltu	a3,a1,2654 <__divdi3+0x2b8>
    27ec:	00ca37b3          	sltu	a5,s4,a2
    27f0:	0017b793          	seqz	a5,a5
    27f4:	e61ff06f          	j	2654 <__divdi3+0x2b8>
    27f8:	010007b7          	lui	a5,0x1000
    27fc:	01800713          	li	a4,24
    2800:	fcf6f0e3          	bgeu	a3,a5,27c0 <__divdi3+0x424>
    2804:	01000713          	li	a4,16
    2808:	fb9ff06f          	j	27c0 <__divdi3+0x424>
    280c:	013696b3          	sll	a3,a3,s3
    2810:	01065cb3          	srl	s9,a2,a6
    2814:	00dcecb3          	or	s9,s9,a3
    2818:	0105d933          	srl	s2,a1,a6
    281c:	010cdb93          	srli	s7,s9,0x10
    2820:	010a5833          	srl	a6,s4,a6
    2824:	013595b3          	sll	a1,a1,s3
    2828:	00b86ab3          	or	s5,a6,a1
    282c:	00090513          	mv	a0,s2
    2830:	000b8593          	mv	a1,s7
    2834:	010c9c13          	slli	s8,s9,0x10
    2838:	01361433          	sll	s0,a2,s3
    283c:	010c5c13          	srli	s8,s8,0x10
    2840:	71c000ef          	jal	2f5c <__hidden___udivsi3>
    2844:	00050593          	mv	a1,a0
    2848:	00050d13          	mv	s10,a0
    284c:	000c0513          	mv	a0,s8
    2850:	6e0000ef          	jal	2f30 <__mulsi3>
    2854:	00050b13          	mv	s6,a0
    2858:	000b8593          	mv	a1,s7
    285c:	00090513          	mv	a0,s2
    2860:	744000ef          	jal	2fa4 <__umodsi3>
    2864:	01051513          	slli	a0,a0,0x10
    2868:	010ad693          	srli	a3,s5,0x10
    286c:	00a6e6b3          	or	a3,a3,a0
    2870:	000d0913          	mv	s2,s10
    2874:	0166fe63          	bgeu	a3,s6,2890 <__divdi3+0x4f4>
    2878:	00dc86b3          	add	a3,s9,a3
    287c:	fffd0913          	addi	s2,s10,-1
    2880:	0196e863          	bltu	a3,s9,2890 <__divdi3+0x4f4>
    2884:	0166f663          	bgeu	a3,s6,2890 <__divdi3+0x4f4>
    2888:	ffed0913          	addi	s2,s10,-2
    288c:	019686b3          	add	a3,a3,s9
    2890:	41668b33          	sub	s6,a3,s6
    2894:	000b8593          	mv	a1,s7
    2898:	000b0513          	mv	a0,s6
    289c:	6c0000ef          	jal	2f5c <__hidden___udivsi3>
    28a0:	00050593          	mv	a1,a0
    28a4:	00050d13          	mv	s10,a0
    28a8:	000c0513          	mv	a0,s8
    28ac:	684000ef          	jal	2f30 <__mulsi3>
    28b0:	00050c13          	mv	s8,a0
    28b4:	000b8593          	mv	a1,s7
    28b8:	000b0513          	mv	a0,s6
    28bc:	6e8000ef          	jal	2fa4 <__umodsi3>
    28c0:	010a9713          	slli	a4,s5,0x10
    28c4:	01051513          	slli	a0,a0,0x10
    28c8:	01075713          	srli	a4,a4,0x10
    28cc:	00a76733          	or	a4,a4,a0
    28d0:	000d0693          	mv	a3,s10
    28d4:	01877e63          	bgeu	a4,s8,28f0 <__divdi3+0x554>
    28d8:	00ec8733          	add	a4,s9,a4
    28dc:	fffd0693          	addi	a3,s10,-1
    28e0:	01976863          	bltu	a4,s9,28f0 <__divdi3+0x554>
    28e4:	01877663          	bgeu	a4,s8,28f0 <__divdi3+0x554>
    28e8:	ffed0693          	addi	a3,s10,-2
    28ec:	01970733          	add	a4,a4,s9
    28f0:	01091793          	slli	a5,s2,0x10
    28f4:	01069813          	slli	a6,a3,0x10
    28f8:	01041313          	slli	t1,s0,0x10
    28fc:	00d7e7b3          	or	a5,a5,a3
    2900:	01085813          	srli	a6,a6,0x10
    2904:	01035313          	srli	t1,t1,0x10
    2908:	41870733          	sub	a4,a4,s8
    290c:	0107de13          	srli	t3,a5,0x10
    2910:	01045413          	srli	s0,s0,0x10
    2914:	00080513          	mv	a0,a6
    2918:	00030593          	mv	a1,t1
    291c:	614000ef          	jal	2f30 <__mulsi3>
    2920:	00050893          	mv	a7,a0
    2924:	00040593          	mv	a1,s0
    2928:	00080513          	mv	a0,a6
    292c:	604000ef          	jal	2f30 <__mulsi3>
    2930:	00050813          	mv	a6,a0
    2934:	00030593          	mv	a1,t1
    2938:	000e0513          	mv	a0,t3
    293c:	5f4000ef          	jal	2f30 <__mulsi3>
    2940:	00050313          	mv	t1,a0
    2944:	00040593          	mv	a1,s0
    2948:	000e0513          	mv	a0,t3
    294c:	5e4000ef          	jal	2f30 <__mulsi3>
    2950:	0108d693          	srli	a3,a7,0x10
    2954:	00680833          	add	a6,a6,t1
    2958:	010686b3          	add	a3,a3,a6
    295c:	00050613          	mv	a2,a0
    2960:	0066f663          	bgeu	a3,t1,296c <__divdi3+0x5d0>
    2964:	000105b7          	lui	a1,0x10
    2968:	00b50633          	add	a2,a0,a1
    296c:	0106d593          	srli	a1,a3,0x10
    2970:	00c58633          	add	a2,a1,a2
    2974:	02c76263          	bltu	a4,a2,2998 <__divdi3+0x5fc>
    2978:	bac71ce3          	bne	a4,a2,2530 <__divdi3+0x194>
    297c:	01089893          	slli	a7,a7,0x10
    2980:	01069693          	slli	a3,a3,0x10
    2984:	0108d893          	srli	a7,a7,0x10
    2988:	013a1733          	sll	a4,s4,s3
    298c:	011686b3          	add	a3,a3,a7
    2990:	00000993          	li	s3,0
    2994:	ccd770e3          	bgeu	a4,a3,2654 <__divdi3+0x2b8>
    2998:	fff78793          	addi	a5,a5,-1 # ffffff <stack_bot+0xfdbfff>
    299c:	b95ff06f          	j	2530 <__divdi3+0x194>
    29a0:	00000993          	li	s3,0
    29a4:	00000793          	li	a5,0
    29a8:	cadff06f          	j	2654 <__divdi3+0x2b8>

000029ac <__moddi3>:
    29ac:	fc010113          	addi	sp,sp,-64
    29b0:	02912a23          	sw	s1,52(sp)
    29b4:	02112e23          	sw	ra,60(sp)
    29b8:	02812c23          	sw	s0,56(sp)
    29bc:	03212823          	sw	s2,48(sp)
    29c0:	03312623          	sw	s3,44(sp)
    29c4:	03412423          	sw	s4,40(sp)
    29c8:	03512223          	sw	s5,36(sp)
    29cc:	03612023          	sw	s6,32(sp)
    29d0:	01712e23          	sw	s7,28(sp)
    29d4:	01812c23          	sw	s8,24(sp)
    29d8:	01912a23          	sw	s9,20(sp)
    29dc:	01a12823          	sw	s10,16(sp)
    29e0:	01b12623          	sw	s11,12(sp)
    29e4:	00000493          	li	s1,0
    29e8:	0005dc63          	bgez	a1,2a00 <__moddi3+0x54>
    29ec:	00a037b3          	snez	a5,a0
    29f0:	40b005b3          	neg	a1,a1
    29f4:	40f585b3          	sub	a1,a1,a5
    29f8:	40a00533          	neg	a0,a0
    29fc:	fff00493          	li	s1,-1
    2a00:	0006da63          	bgez	a3,2a14 <__moddi3+0x68>
    2a04:	00c037b3          	snez	a5,a2
    2a08:	40d006b3          	neg	a3,a3
    2a0c:	40f686b3          	sub	a3,a3,a5
    2a10:	40c00633          	neg	a2,a2
    2a14:	00060a13          	mv	s4,a2
    2a18:	00050413          	mv	s0,a0
    2a1c:	00058b13          	mv	s6,a1
    2a20:	2c069e63          	bnez	a3,2cfc <__moddi3+0x350>
    2a24:	000207b7          	lui	a5,0x20
    2a28:	1c478793          	addi	a5,a5,452 # 201c4 <__clz_tab>
    2a2c:	14c5fa63          	bgeu	a1,a2,2b80 <__moddi3+0x1d4>
    2a30:	00010737          	lui	a4,0x10
    2a34:	12e67c63          	bgeu	a2,a4,2b6c <__moddi3+0x1c0>
    2a38:	10063713          	sltiu	a4,a2,256
    2a3c:	00173713          	seqz	a4,a4
    2a40:	00371713          	slli	a4,a4,0x3
    2a44:	00e656b3          	srl	a3,a2,a4
    2a48:	00d787b3          	add	a5,a5,a3
    2a4c:	0007c783          	lbu	a5,0(a5)
    2a50:	00e787b3          	add	a5,a5,a4
    2a54:	02000713          	li	a4,32
    2a58:	40f709b3          	sub	s3,a4,a5
    2a5c:	00f70c63          	beq	a4,a5,2a74 <__moddi3+0xc8>
    2a60:	013595b3          	sll	a1,a1,s3
    2a64:	00f557b3          	srl	a5,a0,a5
    2a68:	01361a33          	sll	s4,a2,s3
    2a6c:	00b7eb33          	or	s6,a5,a1
    2a70:	01351433          	sll	s0,a0,s3
    2a74:	010a5b93          	srli	s7,s4,0x10
    2a78:	000b8593          	mv	a1,s7
    2a7c:	010a1a93          	slli	s5,s4,0x10
    2a80:	000b0513          	mv	a0,s6
    2a84:	4d8000ef          	jal	2f5c <__hidden___udivsi3>
    2a88:	010ada93          	srli	s5,s5,0x10
    2a8c:	000a8593          	mv	a1,s5
    2a90:	4a0000ef          	jal	2f30 <__mulsi3>
    2a94:	00050913          	mv	s2,a0
    2a98:	000b8593          	mv	a1,s7
    2a9c:	000b0513          	mv	a0,s6
    2aa0:	504000ef          	jal	2fa4 <__umodsi3>
    2aa4:	01051513          	slli	a0,a0,0x10
    2aa8:	01045793          	srli	a5,s0,0x10
    2aac:	00a7e7b3          	or	a5,a5,a0
    2ab0:	0127fa63          	bgeu	a5,s2,2ac4 <__moddi3+0x118>
    2ab4:	00fa07b3          	add	a5,s4,a5
    2ab8:	0147e663          	bltu	a5,s4,2ac4 <__moddi3+0x118>
    2abc:	0127f463          	bgeu	a5,s2,2ac4 <__moddi3+0x118>
    2ac0:	014787b3          	add	a5,a5,s4
    2ac4:	41278933          	sub	s2,a5,s2
    2ac8:	000b8593          	mv	a1,s7
    2acc:	00090513          	mv	a0,s2
    2ad0:	48c000ef          	jal	2f5c <__hidden___udivsi3>
    2ad4:	000a8593          	mv	a1,s5
    2ad8:	458000ef          	jal	2f30 <__mulsi3>
    2adc:	00050a93          	mv	s5,a0
    2ae0:	000b8593          	mv	a1,s7
    2ae4:	00090513          	mv	a0,s2
    2ae8:	4bc000ef          	jal	2fa4 <__umodsi3>
    2aec:	01041413          	slli	s0,s0,0x10
    2af0:	01051513          	slli	a0,a0,0x10
    2af4:	01045413          	srli	s0,s0,0x10
    2af8:	00a46433          	or	s0,s0,a0
    2afc:	01547a63          	bgeu	s0,s5,2b10 <__moddi3+0x164>
    2b00:	008a0433          	add	s0,s4,s0
    2b04:	01446663          	bltu	s0,s4,2b10 <__moddi3+0x164>
    2b08:	01547463          	bgeu	s0,s5,2b10 <__moddi3+0x164>
    2b0c:	01440433          	add	s0,s0,s4
    2b10:	41540433          	sub	s0,s0,s5
    2b14:	01345533          	srl	a0,s0,s3
    2b18:	00000593          	li	a1,0
    2b1c:	00048a63          	beqz	s1,2b30 <__moddi3+0x184>
    2b20:	00a037b3          	snez	a5,a0
    2b24:	40b005b3          	neg	a1,a1
    2b28:	40f585b3          	sub	a1,a1,a5
    2b2c:	40a00533          	neg	a0,a0
    2b30:	03c12083          	lw	ra,60(sp)
    2b34:	03812403          	lw	s0,56(sp)
    2b38:	03412483          	lw	s1,52(sp)
    2b3c:	03012903          	lw	s2,48(sp)
    2b40:	02c12983          	lw	s3,44(sp)
    2b44:	02812a03          	lw	s4,40(sp)
    2b48:	02412a83          	lw	s5,36(sp)
    2b4c:	02012b03          	lw	s6,32(sp)
    2b50:	01c12b83          	lw	s7,28(sp)
    2b54:	01812c03          	lw	s8,24(sp)
    2b58:	01412c83          	lw	s9,20(sp)
    2b5c:	01012d03          	lw	s10,16(sp)
    2b60:	00c12d83          	lw	s11,12(sp)
    2b64:	04010113          	addi	sp,sp,64
    2b68:	00008067          	ret
    2b6c:	010006b7          	lui	a3,0x1000
    2b70:	01800713          	li	a4,24
    2b74:	ecd678e3          	bgeu	a2,a3,2a44 <__moddi3+0x98>
    2b78:	01000713          	li	a4,16
    2b7c:	ec9ff06f          	j	2a44 <__moddi3+0x98>
    2b80:	00000713          	li	a4,0
    2b84:	00060c63          	beqz	a2,2b9c <__moddi3+0x1f0>
    2b88:	00010737          	lui	a4,0x10
    2b8c:	14e67e63          	bgeu	a2,a4,2ce8 <__moddi3+0x33c>
    2b90:	10063713          	sltiu	a4,a2,256
    2b94:	00173713          	seqz	a4,a4
    2b98:	00371713          	slli	a4,a4,0x3
    2b9c:	00e656b3          	srl	a3,a2,a4
    2ba0:	00d787b3          	add	a5,a5,a3
    2ba4:	0007c783          	lbu	a5,0(a5)
    2ba8:	40c58933          	sub	s2,a1,a2
    2bac:	00e787b3          	add	a5,a5,a4
    2bb0:	02000713          	li	a4,32
    2bb4:	40f709b3          	sub	s3,a4,a5
    2bb8:	0af70e63          	beq	a4,a5,2c74 <__moddi3+0x2c8>
    2bbc:	01361a33          	sll	s4,a2,s3
    2bc0:	00f5d933          	srl	s2,a1,a5
    2bc4:	010a5b93          	srli	s7,s4,0x10
    2bc8:	00f557b3          	srl	a5,a0,a5
    2bcc:	013595b3          	sll	a1,a1,s3
    2bd0:	00b7eab3          	or	s5,a5,a1
    2bd4:	01351433          	sll	s0,a0,s3
    2bd8:	000b8593          	mv	a1,s7
    2bdc:	010a1b13          	slli	s6,s4,0x10
    2be0:	00090513          	mv	a0,s2
    2be4:	378000ef          	jal	2f5c <__hidden___udivsi3>
    2be8:	010b5b13          	srli	s6,s6,0x10
    2bec:	000b0593          	mv	a1,s6
    2bf0:	340000ef          	jal	2f30 <__mulsi3>
    2bf4:	00050c13          	mv	s8,a0
    2bf8:	000b8593          	mv	a1,s7
    2bfc:	00090513          	mv	a0,s2
    2c00:	3a4000ef          	jal	2fa4 <__umodsi3>
    2c04:	01051513          	slli	a0,a0,0x10
    2c08:	010ad713          	srli	a4,s5,0x10
    2c0c:	00a76733          	or	a4,a4,a0
    2c10:	01877a63          	bgeu	a4,s8,2c24 <__moddi3+0x278>
    2c14:	00ea0733          	add	a4,s4,a4
    2c18:	01476663          	bltu	a4,s4,2c24 <__moddi3+0x278>
    2c1c:	01877463          	bgeu	a4,s8,2c24 <__moddi3+0x278>
    2c20:	01470733          	add	a4,a4,s4
    2c24:	41870c33          	sub	s8,a4,s8
    2c28:	000b8593          	mv	a1,s7
    2c2c:	000c0513          	mv	a0,s8
    2c30:	32c000ef          	jal	2f5c <__hidden___udivsi3>
    2c34:	000b0593          	mv	a1,s6
    2c38:	2f8000ef          	jal	2f30 <__mulsi3>
    2c3c:	00050b13          	mv	s6,a0
    2c40:	000b8593          	mv	a1,s7
    2c44:	000c0513          	mv	a0,s8
    2c48:	35c000ef          	jal	2fa4 <__umodsi3>
    2c4c:	010a9793          	slli	a5,s5,0x10
    2c50:	01051513          	slli	a0,a0,0x10
    2c54:	0107d793          	srli	a5,a5,0x10
    2c58:	00a7e7b3          	or	a5,a5,a0
    2c5c:	0167fa63          	bgeu	a5,s6,2c70 <__moddi3+0x2c4>
    2c60:	00fa07b3          	add	a5,s4,a5
    2c64:	0147e663          	bltu	a5,s4,2c70 <__moddi3+0x2c4>
    2c68:	0167f463          	bgeu	a5,s6,2c70 <__moddi3+0x2c4>
    2c6c:	014787b3          	add	a5,a5,s4
    2c70:	41678933          	sub	s2,a5,s6
    2c74:	010a5b13          	srli	s6,s4,0x10
    2c78:	000b0593          	mv	a1,s6
    2c7c:	010a1b93          	slli	s7,s4,0x10
    2c80:	00090513          	mv	a0,s2
    2c84:	2d8000ef          	jal	2f5c <__hidden___udivsi3>
    2c88:	010bdb93          	srli	s7,s7,0x10
    2c8c:	000b8593          	mv	a1,s7
    2c90:	2a0000ef          	jal	2f30 <__mulsi3>
    2c94:	00050a93          	mv	s5,a0
    2c98:	000b0593          	mv	a1,s6
    2c9c:	00090513          	mv	a0,s2
    2ca0:	304000ef          	jal	2fa4 <__umodsi3>
    2ca4:	01051513          	slli	a0,a0,0x10
    2ca8:	01045793          	srli	a5,s0,0x10
    2cac:	00a7e7b3          	or	a5,a5,a0
    2cb0:	0157fa63          	bgeu	a5,s5,2cc4 <__moddi3+0x318>
    2cb4:	00fa07b3          	add	a5,s4,a5
    2cb8:	0147e663          	bltu	a5,s4,2cc4 <__moddi3+0x318>
    2cbc:	0157f463          	bgeu	a5,s5,2cc4 <__moddi3+0x318>
    2cc0:	014787b3          	add	a5,a5,s4
    2cc4:	41578933          	sub	s2,a5,s5
    2cc8:	000b0593          	mv	a1,s6
    2ccc:	00090513          	mv	a0,s2
    2cd0:	28c000ef          	jal	2f5c <__hidden___udivsi3>
    2cd4:	000b8593          	mv	a1,s7
    2cd8:	258000ef          	jal	2f30 <__mulsi3>
    2cdc:	00050a93          	mv	s5,a0
    2ce0:	000b0593          	mv	a1,s6
    2ce4:	e01ff06f          	j	2ae4 <__moddi3+0x138>
    2ce8:	010006b7          	lui	a3,0x1000
    2cec:	01800713          	li	a4,24
    2cf0:	ead676e3          	bgeu	a2,a3,2b9c <__moddi3+0x1f0>
    2cf4:	01000713          	li	a4,16
    2cf8:	ea5ff06f          	j	2b9c <__moddi3+0x1f0>
    2cfc:	e2d5e0e3          	bltu	a1,a3,2b1c <__moddi3+0x170>
    2d00:	000107b7          	lui	a5,0x10
    2d04:	04f6fe63          	bgeu	a3,a5,2d60 <__moddi3+0x3b4>
    2d08:	1006b793          	sltiu	a5,a3,256
    2d0c:	0017b793          	seqz	a5,a5
    2d10:	00379793          	slli	a5,a5,0x3
    2d14:	00020737          	lui	a4,0x20
    2d18:	00f6d833          	srl	a6,a3,a5
    2d1c:	1c470713          	addi	a4,a4,452 # 201c4 <__clz_tab>
    2d20:	01070733          	add	a4,a4,a6
    2d24:	00074a83          	lbu	s5,0(a4)
    2d28:	00fa8ab3          	add	s5,s5,a5
    2d2c:	02000793          	li	a5,32
    2d30:	41578a33          	sub	s4,a5,s5
    2d34:	05579063          	bne	a5,s5,2d74 <__moddi3+0x3c8>
    2d38:	00b6e463          	bltu	a3,a1,2d40 <__moddi3+0x394>
    2d3c:	00c56c63          	bltu	a0,a2,2d54 <__moddi3+0x3a8>
    2d40:	40c50933          	sub	s2,a0,a2
    2d44:	40d586b3          	sub	a3,a1,a3
    2d48:	012535b3          	sltu	a1,a0,s2
    2d4c:	00090413          	mv	s0,s2
    2d50:	40b68b33          	sub	s6,a3,a1
    2d54:	00040513          	mv	a0,s0
    2d58:	000b0593          	mv	a1,s6
    2d5c:	dc1ff06f          	j	2b1c <__moddi3+0x170>
    2d60:	01000737          	lui	a4,0x1000
    2d64:	01800793          	li	a5,24
    2d68:	fae6f6e3          	bgeu	a3,a4,2d14 <__moddi3+0x368>
    2d6c:	01000793          	li	a5,16
    2d70:	fa5ff06f          	j	2d14 <__moddi3+0x368>
    2d74:	014696b3          	sll	a3,a3,s4
    2d78:	01565b33          	srl	s6,a2,s5
    2d7c:	00db6b33          	or	s6,s6,a3
    2d80:	0155dcb3          	srl	s9,a1,s5
    2d84:	01555433          	srl	s0,a0,s5
    2d88:	014595b3          	sll	a1,a1,s4
    2d8c:	010b5b93          	srli	s7,s6,0x10
    2d90:	00b46433          	or	s0,s0,a1
    2d94:	014519b3          	sll	s3,a0,s4
    2d98:	000b8593          	mv	a1,s7
    2d9c:	000c8513          	mv	a0,s9
    2da0:	010b1c13          	slli	s8,s6,0x10
    2da4:	01461933          	sll	s2,a2,s4
    2da8:	010c5c13          	srli	s8,s8,0x10
    2dac:	1b0000ef          	jal	2f5c <__hidden___udivsi3>
    2db0:	00050593          	mv	a1,a0
    2db4:	00050d93          	mv	s11,a0
    2db8:	000c0513          	mv	a0,s8
    2dbc:	174000ef          	jal	2f30 <__mulsi3>
    2dc0:	00050d13          	mv	s10,a0
    2dc4:	000b8593          	mv	a1,s7
    2dc8:	000c8513          	mv	a0,s9
    2dcc:	1d8000ef          	jal	2fa4 <__umodsi3>
    2dd0:	01051513          	slli	a0,a0,0x10
    2dd4:	01045793          	srli	a5,s0,0x10
    2dd8:	00a7e7b3          	or	a5,a5,a0
    2ddc:	000d8c93          	mv	s9,s11
    2de0:	01a7fe63          	bgeu	a5,s10,2dfc <__moddi3+0x450>
    2de4:	00fb07b3          	add	a5,s6,a5
    2de8:	fffd8c93          	addi	s9,s11,-1
    2dec:	0167e863          	bltu	a5,s6,2dfc <__moddi3+0x450>
    2df0:	01a7f663          	bgeu	a5,s10,2dfc <__moddi3+0x450>
    2df4:	ffed8c93          	addi	s9,s11,-2
    2df8:	016787b3          	add	a5,a5,s6
    2dfc:	41a78d33          	sub	s10,a5,s10
    2e00:	000b8593          	mv	a1,s7
    2e04:	000d0513          	mv	a0,s10
    2e08:	154000ef          	jal	2f5c <__hidden___udivsi3>
    2e0c:	00050593          	mv	a1,a0
    2e10:	00050d93          	mv	s11,a0
    2e14:	000c0513          	mv	a0,s8
    2e18:	118000ef          	jal	2f30 <__mulsi3>
    2e1c:	000b8593          	mv	a1,s7
    2e20:	00050c13          	mv	s8,a0
    2e24:	000d0513          	mv	a0,s10
    2e28:	17c000ef          	jal	2fa4 <__umodsi3>
    2e2c:	01041593          	slli	a1,s0,0x10
    2e30:	01051513          	slli	a0,a0,0x10
    2e34:	0105d593          	srli	a1,a1,0x10
    2e38:	00a5e5b3          	or	a1,a1,a0
    2e3c:	000d8793          	mv	a5,s11
    2e40:	0185fe63          	bgeu	a1,s8,2e5c <__moddi3+0x4b0>
    2e44:	00bb05b3          	add	a1,s6,a1
    2e48:	fffd8793          	addi	a5,s11,-1
    2e4c:	0165e863          	bltu	a1,s6,2e5c <__moddi3+0x4b0>
    2e50:	0185f663          	bgeu	a1,s8,2e5c <__moddi3+0x4b0>
    2e54:	ffed8793          	addi	a5,s11,-2
    2e58:	016585b3          	add	a1,a1,s6
    2e5c:	010c9c93          	slli	s9,s9,0x10
    2e60:	00fcecb3          	or	s9,s9,a5
    2e64:	01091313          	slli	t1,s2,0x10
    2e68:	01079793          	slli	a5,a5,0x10
    2e6c:	0107d793          	srli	a5,a5,0x10
    2e70:	01035313          	srli	t1,t1,0x10
    2e74:	41858733          	sub	a4,a1,s8
    2e78:	010cdc93          	srli	s9,s9,0x10
    2e7c:	01095893          	srli	a7,s2,0x10
    2e80:	00078513          	mv	a0,a5
    2e84:	00030593          	mv	a1,t1
    2e88:	0a8000ef          	jal	2f30 <__mulsi3>
    2e8c:	00050813          	mv	a6,a0
    2e90:	00088593          	mv	a1,a7
    2e94:	00078513          	mv	a0,a5
    2e98:	098000ef          	jal	2f30 <__mulsi3>
    2e9c:	00050413          	mv	s0,a0
    2ea0:	00030593          	mv	a1,t1
    2ea4:	000c8513          	mv	a0,s9
    2ea8:	088000ef          	jal	2f30 <__mulsi3>
    2eac:	00050793          	mv	a5,a0
    2eb0:	00088593          	mv	a1,a7
    2eb4:	000c8513          	mv	a0,s9
    2eb8:	078000ef          	jal	2f30 <__mulsi3>
    2ebc:	00f40433          	add	s0,s0,a5
    2ec0:	01085693          	srli	a3,a6,0x10
    2ec4:	00d40433          	add	s0,s0,a3
    2ec8:	00f47663          	bgeu	s0,a5,2ed4 <__moddi3+0x528>
    2ecc:	000107b7          	lui	a5,0x10
    2ed0:	00f50533          	add	a0,a0,a5
    2ed4:	01045793          	srli	a5,s0,0x10
    2ed8:	01081813          	slli	a6,a6,0x10
    2edc:	01041413          	slli	s0,s0,0x10
    2ee0:	01085813          	srli	a6,a6,0x10
    2ee4:	00a787b3          	add	a5,a5,a0
    2ee8:	01040433          	add	s0,s0,a6
    2eec:	00f76663          	bltu	a4,a5,2ef8 <__moddi3+0x54c>
    2ef0:	00f71e63          	bne	a4,a5,2f0c <__moddi3+0x560>
    2ef4:	0089fc63          	bgeu	s3,s0,2f0c <__moddi3+0x560>
    2ef8:	41240933          	sub	s2,s0,s2
    2efc:	012436b3          	sltu	a3,s0,s2
    2f00:	016686b3          	add	a3,a3,s6
    2f04:	00090413          	mv	s0,s2
    2f08:	40d787b3          	sub	a5,a5,a3
    2f0c:	40898433          	sub	s0,s3,s0
    2f10:	0089b9b3          	sltu	s3,s3,s0
    2f14:	40f705b3          	sub	a1,a4,a5
    2f18:	413585b3          	sub	a1,a1,s3
    2f1c:	01559ab3          	sll	s5,a1,s5
    2f20:	01445433          	srl	s0,s0,s4
    2f24:	008ae533          	or	a0,s5,s0
    2f28:	0145d5b3          	srl	a1,a1,s4
    2f2c:	bf1ff06f          	j	2b1c <__moddi3+0x170>

00002f30 <__mulsi3>:
    2f30:	00050613          	mv	a2,a0
    2f34:	00000513          	li	a0,0
    2f38:	0015f693          	andi	a3,a1,1
    2f3c:	00068463          	beqz	a3,2f44 <__mulsi3+0x14>
    2f40:	00c50533          	add	a0,a0,a2
    2f44:	0015d593          	srli	a1,a1,0x1
    2f48:	00161613          	slli	a2,a2,0x1
    2f4c:	fe0596e3          	bnez	a1,2f38 <__mulsi3+0x8>
    2f50:	00008067          	ret

00002f54 <__divsi3>:
    2f54:	06054063          	bltz	a0,2fb4 <__umodsi3+0x10>
    2f58:	0605c663          	bltz	a1,2fc4 <__umodsi3+0x20>

00002f5c <__hidden___udivsi3>:
    2f5c:	00058613          	mv	a2,a1
    2f60:	00050593          	mv	a1,a0
    2f64:	fff00513          	li	a0,-1
    2f68:	02060c63          	beqz	a2,2fa0 <__hidden___udivsi3+0x44>
    2f6c:	00100693          	li	a3,1
    2f70:	00b67a63          	bgeu	a2,a1,2f84 <__hidden___udivsi3+0x28>
    2f74:	00c05863          	blez	a2,2f84 <__hidden___udivsi3+0x28>
    2f78:	00161613          	slli	a2,a2,0x1
    2f7c:	00169693          	slli	a3,a3,0x1
    2f80:	feb66ae3          	bltu	a2,a1,2f74 <__hidden___udivsi3+0x18>
    2f84:	00000513          	li	a0,0
    2f88:	00c5e663          	bltu	a1,a2,2f94 <__hidden___udivsi3+0x38>
    2f8c:	40c585b3          	sub	a1,a1,a2
    2f90:	00d56533          	or	a0,a0,a3
    2f94:	0016d693          	srli	a3,a3,0x1
    2f98:	00165613          	srli	a2,a2,0x1
    2f9c:	fe0696e3          	bnez	a3,2f88 <__hidden___udivsi3+0x2c>
    2fa0:	00008067          	ret

00002fa4 <__umodsi3>:
    2fa4:	00008293          	mv	t0,ra
    2fa8:	fb5ff0ef          	jal	2f5c <__hidden___udivsi3>
    2fac:	00058513          	mv	a0,a1
    2fb0:	00028067          	jr	t0
    2fb4:	40a00533          	neg	a0,a0
    2fb8:	00b04863          	bgtz	a1,2fc8 <__umodsi3+0x24>
    2fbc:	40b005b3          	neg	a1,a1
    2fc0:	f9dff06f          	j	2f5c <__hidden___udivsi3>
    2fc4:	40b005b3          	neg	a1,a1
    2fc8:	00008293          	mv	t0,ra
    2fcc:	f91ff0ef          	jal	2f5c <__hidden___udivsi3>
    2fd0:	40a00533          	neg	a0,a0
    2fd4:	00028067          	jr	t0

00002fd8 <__modsi3>:
    2fd8:	00008293          	mv	t0,ra
    2fdc:	0005ca63          	bltz	a1,2ff0 <__modsi3+0x18>
    2fe0:	00054c63          	bltz	a0,2ff8 <__modsi3+0x20>
    2fe4:	f79ff0ef          	jal	2f5c <__hidden___udivsi3>
    2fe8:	00058513          	mv	a0,a1
    2fec:	00028067          	jr	t0
    2ff0:	40b005b3          	neg	a1,a1
    2ff4:	fe0558e3          	bgez	a0,2fe4 <__modsi3+0xc>
    2ff8:	40a00533          	neg	a0,a0
    2ffc:	f61ff0ef          	jal	2f5c <__hidden___udivsi3>
    3000:	40b00533          	neg	a0,a1
    3004:	00028067          	jr	t0

Disassembly of section .rodata:

00020000 <__clz_tab-0x1c4>:
   20000:	16d8                	.insn	2, 0x16d8
   20002:	0000                	.insn	2, 0x
   20004:	15f0                	.insn	2, 0x15f0
   20006:	0000                	.insn	2, 0x
   20008:	1790                	.insn	2, 0x1790
   2000a:	0000                	.insn	2, 0x
   2000c:	1790                	.insn	2, 0x1790
   2000e:	0000                	.insn	2, 0x
   20010:	1790                	.insn	2, 0x1790
   20012:	0000                	.insn	2, 0x
   20014:	1790                	.insn	2, 0x1790
   20016:	0000                	.insn	2, 0x
   20018:	1790                	.insn	2, 0x1790
   2001a:	0000                	.insn	2, 0x
   2001c:	1790                	.insn	2, 0x1790
   2001e:	0000                	.insn	2, 0x
   20020:	1790                	.insn	2, 0x1790
   20022:	0000                	.insn	2, 0x
   20024:	1538                	.insn	2, 0x1538
   20026:	0000                	.insn	2, 0x
   20028:	1790                	.insn	2, 0x1790
   2002a:	0000                	.insn	2, 0x
   2002c:	1790                	.insn	2, 0x1790
   2002e:	0000                	.insn	2, 0x
   20030:	1790                	.insn	2, 0x1790
   20032:	0000                	.insn	2, 0x
   20034:	155c                	.insn	2, 0x155c
   20036:	0000                	.insn	2, 0x
   20038:	1790                	.insn	2, 0x1790
   2003a:	0000                	.insn	2, 0x
   2003c:	1790                	.insn	2, 0x1790
   2003e:	0000                	.insn	2, 0x
   20040:	16b8                	.insn	2, 0x16b8
   20042:	0000                	.insn	2, 0x
   20044:	1790                	.insn	2, 0x1790
   20046:	0000                	.insn	2, 0x
   20048:	1790                	.insn	2, 0x1790
   2004a:	0000                	.insn	2, 0x
   2004c:	1790                	.insn	2, 0x1790
   2004e:	0000                	.insn	2, 0x
   20050:	1790                	.insn	2, 0x1790
   20052:	0000                	.insn	2, 0x
   20054:	15a8                	.insn	2, 0x15a8
   20056:	0000                	.insn	2, 0x
   20058:	1e9c                	.insn	2, 0x1e9c
   2005a:	0000                	.insn	2, 0x
   2005c:	1eac                	.insn	2, 0x1eac
   2005e:	0000                	.insn	2, 0x
   20060:	1eac                	.insn	2, 0x1eac
   20062:	0000                	.insn	2, 0x
   20064:	1eac                	.insn	2, 0x1eac
   20066:	0000                	.insn	2, 0x
   20068:	1eac                	.insn	2, 0x1eac
   2006a:	0000                	.insn	2, 0x
   2006c:	1eac                	.insn	2, 0x1eac
   2006e:	0000                	.insn	2, 0x
   20070:	1eac                	.insn	2, 0x1eac
   20072:	0000                	.insn	2, 0x
   20074:	1eac                	.insn	2, 0x1eac
   20076:	0000                	.insn	2, 0x
   20078:	1eac                	.insn	2, 0x1eac
   2007a:	0000                	.insn	2, 0x
   2007c:	1eac                	.insn	2, 0x1eac
   2007e:	0000                	.insn	2, 0x
   20080:	1eac                	.insn	2, 0x1eac
   20082:	0000                	.insn	2, 0x
   20084:	1eac                	.insn	2, 0x1eac
   20086:	0000                	.insn	2, 0x
   20088:	1eac                	.insn	2, 0x1eac
   2008a:	0000                	.insn	2, 0x
   2008c:	1e84                	.insn	2, 0x1e84
   2008e:	0000                	.insn	2, 0x
   20090:	1e94                	.insn	2, 0x1e94
   20092:	0000                	.insn	2, 0x
   20094:	1eac                	.insn	2, 0x1eac
   20096:	0000                	.insn	2, 0x
   20098:	1d6c                	.insn	2, 0x1d6c
   2009a:	0000                	.insn	2, 0x
   2009c:	1eb4                	.insn	2, 0x1eb4
   2009e:	0000                	.insn	2, 0x
   200a0:	1d74                	.insn	2, 0x1d74
   200a2:	0000                	.insn	2, 0x
   200a4:	1d7c                	.insn	2, 0x1d7c
   200a6:	0000                	.insn	2, 0x
   200a8:	1d84                	.insn	2, 0x1d84
   200aa:	0000                	.insn	2, 0x
   200ac:	1d8c                	.insn	2, 0x1d8c
   200ae:	0000                	.insn	2, 0x
   200b0:	1d94                	.insn	2, 0x1d94
   200b2:	0000                	.insn	2, 0x
   200b4:	1d9c                	.insn	2, 0x1d9c
   200b6:	0000                	.insn	2, 0x
   200b8:	1da4                	.insn	2, 0x1da4
   200ba:	0000                	.insn	2, 0x
   200bc:	1dac                	.insn	2, 0x1dac
   200be:	0000                	.insn	2, 0x
   200c0:	1eac                	.insn	2, 0x1eac
   200c2:	0000                	.insn	2, 0x
   200c4:	1eac                	.insn	2, 0x1eac
   200c6:	0000                	.insn	2, 0x
   200c8:	1eac                	.insn	2, 0x1eac
   200ca:	0000                	.insn	2, 0x
   200cc:	1ea4                	.insn	2, 0x1ea4
   200ce:	0000                	.insn	2, 0x
   200d0:	1eac                	.insn	2, 0x1eac
   200d2:	0000                	.insn	2, 0x
   200d4:	1eac                	.insn	2, 0x1eac
   200d6:	0000                	.insn	2, 0x
   200d8:	1eac                	.insn	2, 0x1eac
   200da:	0000                	.insn	2, 0x
   200dc:	1eac                	.insn	2, 0x1eac
   200de:	0000                	.insn	2, 0x
   200e0:	1eac                	.insn	2, 0x1eac
   200e2:	0000                	.insn	2, 0x
   200e4:	1eac                	.insn	2, 0x1eac
   200e6:	0000                	.insn	2, 0x
   200e8:	1eac                	.insn	2, 0x1eac
   200ea:	0000                	.insn	2, 0x
   200ec:	1eac                	.insn	2, 0x1eac
   200ee:	0000                	.insn	2, 0x
   200f0:	1eac                	.insn	2, 0x1eac
   200f2:	0000                	.insn	2, 0x
   200f4:	1eac                	.insn	2, 0x1eac
   200f6:	0000                	.insn	2, 0x
   200f8:	1eac                	.insn	2, 0x1eac
   200fa:	0000                	.insn	2, 0x
   200fc:	1eac                	.insn	2, 0x1eac
   200fe:	0000                	.insn	2, 0x
   20100:	1eac                	.insn	2, 0x1eac
   20102:	0000                	.insn	2, 0x
   20104:	1eac                	.insn	2, 0x1eac
   20106:	0000                	.insn	2, 0x
   20108:	1eac                	.insn	2, 0x1eac
   2010a:	0000                	.insn	2, 0x
   2010c:	1eac                	.insn	2, 0x1eac
   2010e:	0000                	.insn	2, 0x
   20110:	1eac                	.insn	2, 0x1eac
   20112:	0000                	.insn	2, 0x
   20114:	1eac                	.insn	2, 0x1eac
   20116:	0000                	.insn	2, 0x
   20118:	1eac                	.insn	2, 0x1eac
   2011a:	0000                	.insn	2, 0x
   2011c:	1eac                	.insn	2, 0x1eac
   2011e:	0000                	.insn	2, 0x
   20120:	1eac                	.insn	2, 0x1eac
   20122:	0000                	.insn	2, 0x
   20124:	1eac                	.insn	2, 0x1eac
   20126:	0000                	.insn	2, 0x
   20128:	1eac                	.insn	2, 0x1eac
   2012a:	0000                	.insn	2, 0x
   2012c:	1eac                	.insn	2, 0x1eac
   2012e:	0000                	.insn	2, 0x
   20130:	1eac                	.insn	2, 0x1eac
   20132:	0000                	.insn	2, 0x
   20134:	1eac                	.insn	2, 0x1eac
   20136:	0000                	.insn	2, 0x
   20138:	1eac                	.insn	2, 0x1eac
   2013a:	0000                	.insn	2, 0x
   2013c:	1eac                	.insn	2, 0x1eac
   2013e:	0000                	.insn	2, 0x
   20140:	1eac                	.insn	2, 0x1eac
   20142:	0000                	.insn	2, 0x
   20144:	1eac                	.insn	2, 0x1eac
   20146:	0000                	.insn	2, 0x
   20148:	1eac                	.insn	2, 0x1eac
   2014a:	0000                	.insn	2, 0x
   2014c:	1eac                	.insn	2, 0x1eac
   2014e:	0000                	.insn	2, 0x
   20150:	1eac                	.insn	2, 0x1eac
   20152:	0000                	.insn	2, 0x
   20154:	1e8c                	.insn	2, 0x1e8c
   20156:	0000                	.insn	2, 0x
   20158:	1eac                	.insn	2, 0x1eac
   2015a:	0000                	.insn	2, 0x
   2015c:	1db4                	.insn	2, 0x1db4
   2015e:	0000                	.insn	2, 0x
   20160:	1dbc                	.insn	2, 0x1dbc
   20162:	0000                	.insn	2, 0x
   20164:	1dc4                	.insn	2, 0x1dc4
   20166:	0000                	.insn	2, 0x
   20168:	1dcc                	.insn	2, 0x1dcc
   2016a:	0000                	.insn	2, 0x
   2016c:	1dd4                	.insn	2, 0x1dd4
   2016e:	0000                	.insn	2, 0x
   20170:	1ddc                	.insn	2, 0x1ddc
   20172:	0000                	.insn	2, 0x
   20174:	1de4                	.insn	2, 0x1de4
   20176:	0000                	.insn	2, 0x
   20178:	1dec                	.insn	2, 0x1dec
   2017a:	0000                	.insn	2, 0x
   2017c:	1df4                	.insn	2, 0x1df4
   2017e:	0000                	.insn	2, 0x
   20180:	1dfc                	.insn	2, 0x1dfc
   20182:	0000                	.insn	2, 0x
   20184:	1e04                	.insn	2, 0x1e04
   20186:	0000                	.insn	2, 0x
   20188:	1e0c                	.insn	2, 0x1e0c
   2018a:	0000                	.insn	2, 0x
   2018c:	1e14                	.insn	2, 0x1e14
   2018e:	0000                	.insn	2, 0x
   20190:	1e1c                	.insn	2, 0x1e1c
   20192:	0000                	.insn	2, 0x
   20194:	1e24                	.insn	2, 0x1e24
   20196:	0000                	.insn	2, 0x
   20198:	1e2c                	.insn	2, 0x1e2c
   2019a:	0000                	.insn	2, 0x
   2019c:	1e34                	.insn	2, 0x1e34
   2019e:	0000                	.insn	2, 0x
   201a0:	1e3c                	.insn	2, 0x1e3c
   201a2:	0000                	.insn	2, 0x
   201a4:	1e44                	.insn	2, 0x1e44
   201a6:	0000                	.insn	2, 0x
   201a8:	1e4c                	.insn	2, 0x1e4c
   201aa:	0000                	.insn	2, 0x
   201ac:	1e54                	.insn	2, 0x1e54
   201ae:	0000                	.insn	2, 0x
   201b0:	1e5c                	.insn	2, 0x1e5c
   201b2:	0000                	.insn	2, 0x
   201b4:	1e64                	.insn	2, 0x1e64
   201b6:	0000                	.insn	2, 0x
   201b8:	1e6c                	.insn	2, 0x1e6c
   201ba:	0000                	.insn	2, 0x
   201bc:	1e74                	.insn	2, 0x1e74
   201be:	0000                	.insn	2, 0x
   201c0:	1e7c                	.insn	2, 0x1e7c
	...

000201c4 <__clz_tab>:
   201c4:	0100                	.insn	2, 0x0100
   201c6:	0202                	.insn	2, 0x0202
   201c8:	03030303          	lb	t1,48(t1)
   201cc:	0404                	.insn	2, 0x0404
   201ce:	0404                	.insn	2, 0x0404
   201d0:	0404                	.insn	2, 0x0404
   201d2:	0404                	.insn	2, 0x0404
   201d4:	0505                	.insn	2, 0x0505
   201d6:	0505                	.insn	2, 0x0505
   201d8:	0505                	.insn	2, 0x0505
   201da:	0505                	.insn	2, 0x0505
   201dc:	0505                	.insn	2, 0x0505
   201de:	0505                	.insn	2, 0x0505
   201e0:	0505                	.insn	2, 0x0505
   201e2:	0505                	.insn	2, 0x0505
   201e4:	0606                	.insn	2, 0x0606
   201e6:	0606                	.insn	2, 0x0606
   201e8:	0606                	.insn	2, 0x0606
   201ea:	0606                	.insn	2, 0x0606
   201ec:	0606                	.insn	2, 0x0606
   201ee:	0606                	.insn	2, 0x0606
   201f0:	0606                	.insn	2, 0x0606
   201f2:	0606                	.insn	2, 0x0606
   201f4:	0606                	.insn	2, 0x0606
   201f6:	0606                	.insn	2, 0x0606
   201f8:	0606                	.insn	2, 0x0606
   201fa:	0606                	.insn	2, 0x0606
   201fc:	0606                	.insn	2, 0x0606
   201fe:	0606                	.insn	2, 0x0606
   20200:	0606                	.insn	2, 0x0606
   20202:	0606                	.insn	2, 0x0606
   20204:	07070707          	.insn	4, 0x07070707
   20208:	07070707          	.insn	4, 0x07070707
   2020c:	07070707          	.insn	4, 0x07070707
   20210:	07070707          	.insn	4, 0x07070707
   20214:	07070707          	.insn	4, 0x07070707
   20218:	07070707          	.insn	4, 0x07070707
   2021c:	07070707          	.insn	4, 0x07070707
   20220:	07070707          	.insn	4, 0x07070707
   20224:	07070707          	.insn	4, 0x07070707
   20228:	07070707          	.insn	4, 0x07070707
   2022c:	07070707          	.insn	4, 0x07070707
   20230:	07070707          	.insn	4, 0x07070707
   20234:	07070707          	.insn	4, 0x07070707
   20238:	07070707          	.insn	4, 0x07070707
   2023c:	07070707          	.insn	4, 0x07070707
   20240:	07070707          	.insn	4, 0x07070707
   20244:	0808                	.insn	2, 0x0808
   20246:	0808                	.insn	2, 0x0808
   20248:	0808                	.insn	2, 0x0808
   2024a:	0808                	.insn	2, 0x0808
   2024c:	0808                	.insn	2, 0x0808
   2024e:	0808                	.insn	2, 0x0808
   20250:	0808                	.insn	2, 0x0808
   20252:	0808                	.insn	2, 0x0808
   20254:	0808                	.insn	2, 0x0808
   20256:	0808                	.insn	2, 0x0808
   20258:	0808                	.insn	2, 0x0808
   2025a:	0808                	.insn	2, 0x0808
   2025c:	0808                	.insn	2, 0x0808
   2025e:	0808                	.insn	2, 0x0808
   20260:	0808                	.insn	2, 0x0808
   20262:	0808                	.insn	2, 0x0808
   20264:	0808                	.insn	2, 0x0808
   20266:	0808                	.insn	2, 0x0808
   20268:	0808                	.insn	2, 0x0808
   2026a:	0808                	.insn	2, 0x0808
   2026c:	0808                	.insn	2, 0x0808
   2026e:	0808                	.insn	2, 0x0808
   20270:	0808                	.insn	2, 0x0808
   20272:	0808                	.insn	2, 0x0808
   20274:	0808                	.insn	2, 0x0808
   20276:	0808                	.insn	2, 0x0808
   20278:	0808                	.insn	2, 0x0808
   2027a:	0808                	.insn	2, 0x0808
   2027c:	0808                	.insn	2, 0x0808
   2027e:	0808                	.insn	2, 0x0808
   20280:	0808                	.insn	2, 0x0808
   20282:	0808                	.insn	2, 0x0808
   20284:	0808                	.insn	2, 0x0808
   20286:	0808                	.insn	2, 0x0808
   20288:	0808                	.insn	2, 0x0808
   2028a:	0808                	.insn	2, 0x0808
   2028c:	0808                	.insn	2, 0x0808
   2028e:	0808                	.insn	2, 0x0808
   20290:	0808                	.insn	2, 0x0808
   20292:	0808                	.insn	2, 0x0808
   20294:	0808                	.insn	2, 0x0808
   20296:	0808                	.insn	2, 0x0808
   20298:	0808                	.insn	2, 0x0808
   2029a:	0808                	.insn	2, 0x0808
   2029c:	0808                	.insn	2, 0x0808
   2029e:	0808                	.insn	2, 0x0808
   202a0:	0808                	.insn	2, 0x0808
   202a2:	0808                	.insn	2, 0x0808
   202a4:	0808                	.insn	2, 0x0808
   202a6:	0808                	.insn	2, 0x0808
   202a8:	0808                	.insn	2, 0x0808
   202aa:	0808                	.insn	2, 0x0808
   202ac:	0808                	.insn	2, 0x0808
   202ae:	0808                	.insn	2, 0x0808
   202b0:	0808                	.insn	2, 0x0808
   202b2:	0808                	.insn	2, 0x0808
   202b4:	0808                	.insn	2, 0x0808
   202b6:	0808                	.insn	2, 0x0808
   202b8:	0808                	.insn	2, 0x0808
   202ba:	0808                	.insn	2, 0x0808
   202bc:	0808                	.insn	2, 0x0808
   202be:	0808                	.insn	2, 0x0808
   202c0:	0808                	.insn	2, 0x0808
   202c2:	0808                	.insn	2, 0x0808
   202c4:	6e756f63          	bltu	a0,t2,209c2 <__clz_tab+0x7fe>
   202c8:	6974                	.insn	2, 0x6974
   202ca:	676e                	.insn	2, 0x676e
   202cc:	0000                	.insn	2, 0x
   202ce:	0000                	.insn	2, 0x
   202d0:	6974                	.insn	2, 0x6974
   202d2:	656d                	.insn	2, 0x656d
   202d4:	2072                	.insn	2, 0x2072
   202d6:	00006e6f          	jal	t3,262d6 <stack_bot+0x22d6>
   202da:	0000                	.insn	2, 0x
   202dc:	6974                	.insn	2, 0x6974
   202de:	656d                	.insn	2, 0x656d
   202e0:	2072                	.insn	2, 0x2072
   202e2:	0066666f          	jal	a2,862e8 <stack_bot+0x622e8>
   202e6:	0000                	.insn	2, 0x
   202e8:	7041                	.insn	2, 0x7041
   202ea:	6c70                	.insn	2, 0x6c70
   202ec:	3065                	.insn	2, 0x3065
   202ee:	3030                	.insn	2, 0x3030
   202f0:	0000                	.insn	2, 0x
   202f2:	0000                	.insn	2, 0x
   202f4:	6142                	.insn	2, 0x6142
   202f6:	616e                	.insn	2, 0x616e
   202f8:	616e                	.insn	2, 0x616e
   202fa:	3030                	.insn	2, 0x3030
   202fc:	0000                	.insn	2, 0x
   202fe:	0000                	.insn	2, 0x
   20300:	72656843          	.insn	4, 0x72656843
   20304:	7972                	.insn	2, 0x7972
   20306:	3030                	.insn	2, 0x3030
   20308:	0000                	.insn	2, 0x
   2030a:	0000                	.insn	2, 0x
   2030c:	6144                	.insn	2, 0x6144
   2030e:	6574                	.insn	2, 0x6574
   20310:	3030                	.insn	2, 0x3030
   20312:	3030                	.insn	2, 0x3030
   20314:	0000                	.insn	2, 0x
   20316:	0000                	.insn	2, 0x
   20318:	5250                	.insn	2, 0x5250
   2031a:	4c49464f          	.insn	4, 0x4c49464f
   2031e:	2045                	.insn	2, 0x2045
   20320:	203a                	.insn	2, 0x203a
   20322:	6425                	.insn	2, 0x6425
   20324:	6320                	.insn	2, 0x6320
   20326:	6379                	.insn	2, 0x6379
   20328:	656c                	.insn	2, 0x656c
   2032a:	25202c73          	csrr	s8,vsireg2
   2032e:	2064                	.insn	2, 0x2064
   20330:	6e69                	.insn	2, 0x6e69
   20332:	2c737473          	csrrci	s0,0x2c7,6
   20336:	2520                	.insn	2, 0x2520
   20338:	2064                	.insn	2, 0x2064
   2033a:	7375                	.insn	2, 0x7375
   2033c:	6365                	.insn	2, 0x6365
   2033e:	Address 0x2033e is out of bounds.


Disassembly of section .eh_frame:

00020344 <.eh_frame>:
   20344:	0010                	.insn	2, 0x0010
   20346:	0000                	.insn	2, 0x
   20348:	0000                	.insn	2, 0x
   2034a:	0000                	.insn	2, 0x
   2034c:	00527a03          	.insn	4, 0x00527a03
   20350:	7c01                	.insn	2, 0x7c01
   20352:	0101                	.insn	2, 0x0101
   20354:	00020c1b          	.insn	4, 0x00020c1b
   20358:	004c                	.insn	2, 0x004c
   2035a:	0000                	.insn	2, 0x
   2035c:	0018                	.insn	2, 0x0018
   2035e:	0000                	.insn	2, 0x
   20360:	203c                	.insn	2, 0x203c
   20362:	fffe                	.insn	2, 0xfffe
   20364:	0610                	.insn	2, 0x0610
   20366:	0000                	.insn	2, 0x
   20368:	4400                	.insn	2, 0x4400
   2036a:	300e                	.insn	2, 0x300e
   2036c:	8970                	.insn	2, 0x8970
   2036e:	81069403          	lh	s0,-2032(a3) # fff810 <stack_bot+0xfdb810>
   20372:	8801                	.insn	2, 0x8801
   20374:	9202                	.insn	2, 0x9202
   20376:	9304                	.insn	2, 0x9304
   20378:	9505                	.insn	2, 0x9505
   2037a:	97089607          	.insn	4, 0x97089607
   2037e:	9809                	.insn	2, 0x9809
   20380:	990a                	.insn	2, 0x990a
   20382:	030c9a0b          	.insn	4, 0x030c9a0b
   20386:	02a4                	.insn	2, 0x02a4
   20388:	c10a                	.insn	2, 0xc10a
   2038a:	c844                	.insn	2, 0xc844
   2038c:	c944                	.insn	2, 0xc944
   2038e:	d244                	.insn	2, 0xd244
   20390:	d344                	.insn	2, 0xd344
   20392:	d444                	.insn	2, 0xd444
   20394:	d544                	.insn	2, 0xd544
   20396:	d644                	.insn	2, 0xd644
   20398:	d744                	.insn	2, 0xd744
   2039a:	d844                	.insn	2, 0xd844
   2039c:	d944                	.insn	2, 0xd944
   2039e:	da44                	.insn	2, 0xda44
   203a0:	0e44                	.insn	2, 0x0e44
   203a2:	4400                	.insn	2, 0x4400
   203a4:	0000000b          	.insn	4, 0x000b
   203a8:	0050                	.insn	2, 0x0050
   203aa:	0000                	.insn	2, 0x
   203ac:	0068                	.insn	2, 0x0068
   203ae:	0000                	.insn	2, 0x
   203b0:	25fc                	.insn	2, 0x25fc
   203b2:	fffe                	.insn	2, 0xfffe
   203b4:	0584                	.insn	2, 0x0584
   203b6:	0000                	.insn	2, 0x
   203b8:	4400                	.insn	2, 0x4400
   203ba:	400e                	.insn	2, 0x400e
   203bc:	8974                	.insn	2, 0x8974
   203be:	88018103          	lb	sp,-1920(gp)
   203c2:	9202                	.insn	2, 0x9202
   203c4:	9304                	.insn	2, 0x9304
   203c6:	9405                	.insn	2, 0x9405
   203c8:	9506                	.insn	2, 0x9506
   203ca:	97089607          	.insn	4, 0x97089607
   203ce:	9809                	.insn	2, 0x9809
   203d0:	990a                	.insn	2, 0x990a
   203d2:	9b0c9a0b          	.insn	4, 0x9b0c9a0b
   203d6:	030d                	.insn	2, 0x030d
   203d8:	0150                	.insn	2, 0x0150
   203da:	c10a                	.insn	2, 0xc10a
   203dc:	c844                	.insn	2, 0xc844
   203de:	c944                	.insn	2, 0xc944
   203e0:	d244                	.insn	2, 0xd244
   203e2:	d344                	.insn	2, 0xd344
   203e4:	d444                	.insn	2, 0xd444
   203e6:	d544                	.insn	2, 0xd544
   203e8:	d644                	.insn	2, 0xd644
   203ea:	d744                	.insn	2, 0xd744
   203ec:	d844                	.insn	2, 0xd844
   203ee:	d944                	.insn	2, 0xd944
   203f0:	da44                	.insn	2, 0xda44
   203f2:	db44                	.insn	2, 0xdb44
   203f4:	0e44                	.insn	2, 0x0e44
   203f6:	4400                	.insn	2, 0x4400
   203f8:	0000000b          	.insn	4, 0x000b

Disassembly of section .data:

00021000 <fruits>:
   21000:	02e8                	.insn	2, 0x02e8
   21002:	0002                	.insn	2, 0x0002
   21004:	02f4                	.insn	2, 0x02f4
   21006:	0002                	.insn	2, 0x0002
   21008:	0300                	.insn	2, 0x0300
   2100a:	0002                	.insn	2, 0x0002
   2100c:	030c                	.insn	2, 0x030c
   2100e:	0002                	.insn	2, 0x0002
   21010:	3a434347          	.insn	4, 0x3a434347
   21014:	2820                	.insn	2, 0x2820
   21016:	36343067          	.insn	4, 0x36343067
   2101a:	3639                	.insn	2, 0x3639
   2101c:	6664                	.insn	2, 0x6664
   2101e:	3930                	.insn	2, 0x3930
   21020:	2029                	.insn	2, 0x2029
   21022:	3431                	.insn	2, 0x3431
   21024:	322e                	.insn	2, 0x322e
   21026:	302e                	.insn	2, 0x302e
	...

Disassembly of section .sdata:

0002102c <size>:
   2102c:	0004                	.insn	2, 0x0004
	...

00021030 <io_getch>:
   21030:	1808                	.insn	2, 0x1808
	...

00021034 <io_putch>:
   21034:	17d8                	.insn	2, 0x17d8
	...

00021038 <_uart>:
   21038:	0000                	.insn	2, 0x
   2103a:	1000                	.insn	2, 0x1000
   2103c:	0040                	.insn	2, 0x0040
   2103e:	1000                	.insn	2, 0x1000

00021040 <gpio>:
   21040:	0080                	.insn	2, 0x0080
   21042:	1000                	.insn	2, 0x1000

00021044 <sysctrl>:
   21044:	1000                	.insn	2, 0x1000
   21046:	1000                	.insn	2, 0x1000

Disassembly of section .init_array:

00021048 <__init_array_start>:
   21048:	1838                	.insn	2, 0x1838
	...

Disassembly of section .fini_array:

0002104c <__fini_array_start>:
   2104c:	19bc                	.insn	2, 0x19bc
	...

Disassembly of section .riscv.attributes:

00000000 <.riscv.attributes>:
   0:	4041                	.insn	2, 0x4041
   2:	0000                	.insn	2, 0x
   4:	7200                	.insn	2, 0x7200
   6:	7369                	.insn	2, 0x7369
   8:	01007663          	bgeu	zero,a6,14 <MEM_START-0xfec>
   c:	0036                	.insn	2, 0x0036
   e:	0000                	.insn	2, 0x
  10:	1004                	.insn	2, 0x1004
  12:	7205                	.insn	2, 0x7205
  14:	3376                	.insn	2, 0x3376
  16:	6932                	.insn	2, 0x6932
  18:	7032                	.insn	2, 0x7032
  1a:	5f31                	.insn	2, 0x5f31
  1c:	3261                	.insn	2, 0x3261
  1e:	3170                	.insn	2, 0x3170
  20:	7a5f 6369 7273      	.insn	6, 0x727363697a5f
  26:	7032                	.insn	2, 0x7032
  28:	5f30                	.insn	2, 0x5f30
  2a:	617a                	.insn	2, 0x617a
  2c:	6d61                	.insn	2, 0x6d61
  2e:	3070316f          	jal	sp,3b34 <__modsi3+0xb5c>
  32:	7a5f 6c61 7372      	.insn	6, 0x73726c617a5f
  38:	30703163          	.insn	4, 0x30703163
  3c:	0800                	.insn	2, 0x0800
  3e:	0a01                	.insn	2, 0x0a01
  40:	Address 0x40 is out of bounds.


Disassembly of section .debug_info:

00000000 <.debug_info>:
       0:	00000983          	lb	s3,0(zero) # 0 <MEM_START-0x1000>
       4:	0005                	.insn	2, 0x0005
       6:	0401                	.insn	2, 0x0401
       8:	0000                	.insn	2, 0x
       a:	0000                	.insn	2, 0x
       c:	9b15                	.insn	2, 0x9b15
       e:	0000                	.insn	2, 0x
      10:	1d00                	.insn	2, 0x1d00
      12:	0000                	.insn	2, 0x
      14:	0000                	.insn	2, 0x
      16:	0021                	.insn	2, 0x0021
      18:	0000                	.insn	2, 0x
      1a:	239c                	.insn	2, 0x239c
      1c:	0000                	.insn	2, 0x
      1e:	0610                	.insn	2, 0x0610
      20:	0000                	.insn	2, 0x
      22:	0000                	.insn	2, 0x
      24:	0000                	.insn	2, 0x
      26:	0805                	.insn	2, 0x0805
      28:	00006407          	.insn	4, 0x6407
      2c:	1600                	.insn	2, 0x1600
      2e:	0504                	.insn	2, 0x0504
      30:	6e69                	.insn	2, 0x6e69
      32:	0074                	.insn	2, 0x0074
      34:	0405                	.insn	2, 0x0405
      36:	00006e07          	.insn	4, 0x6e07
      3a:	0500                	.insn	2, 0x0500
      3c:	0508                	.insn	2, 0x0508
      3e:	0056                	.insn	2, 0x0056
      40:	0000                	.insn	2, 0x
      42:	1005                	.insn	2, 0x1005
      44:	0304                	.insn	2, 0x0304
      46:	0002                	.insn	2, 0x0002
      48:	0500                	.insn	2, 0x0500
      4a:	0601                	.insn	2, 0x0601
      4c:	0175                	.insn	2, 0x0175
      4e:	0000                	.insn	2, 0x
      50:	0105                	.insn	2, 0x0105
      52:	7308                	.insn	2, 0x7308
      54:	0001                	.insn	2, 0x0001
      56:	0500                	.insn	2, 0x0500
      58:	0502                	.insn	2, 0x0502
      5a:	0020                	.insn	2, 0x0020
      5c:	0000                	.insn	2, 0x
      5e:	0205                	.insn	2, 0x0205
      60:	00019d07          	.insn	4, 0x00019d07
      64:	0500                	.insn	2, 0x0500
      66:	0504                	.insn	2, 0x0504
      68:	0000005b          	.insn	4, 0x005b
      6c:	0405                	.insn	2, 0x0405
      6e:	00006907          	.insn	4, 0x6907
      72:	0500                	.insn	2, 0x0500
      74:	0801                	.insn	2, 0x0801
      76:	017c                	.insn	2, 0x017c
      78:	0000                	.insn	2, 0x
      7a:	0105                	.insn	2, 0x0105
      7c:	d402                	.insn	2, 0xd402
      7e:	0001                	.insn	2, 0x0001
      80:	0800                	.insn	2, 0x0800
      82:	0195                	.insn	2, 0x0195
      84:	0000                	.insn	2, 0x
      86:	167e                	.insn	2, 0x167e
      88:	0050                	.insn	2, 0x0050
      8a:	0000                	.insn	2, 0x
      8c:	810d                	.insn	2, 0x810d
      8e:	0000                	.insn	2, 0x
      90:	0800                	.insn	2, 0x0800
      92:	01b9                	.insn	2, 0x01b9
      94:	0000                	.insn	2, 0x
      96:	002d0f83          	lb	t6,2(s10)
      9a:	0000                	.insn	2, 0x
      9c:	b808                	.insn	2, 0xb808
      9e:	0001                	.insn	2, 0x0001
      a0:	8400                	.insn	2, 0x8400
      a2:	3416                	.insn	2, 0x3416
      a4:	0000                	.insn	2, 0x
      a6:	0800                	.insn	2, 0x0800
      a8:	01b1                	.insn	2, 0x01b1
      aa:	0000                	.insn	2, 0x
      ac:	003b0f87          	.insn	4, 0x003b0f87
      b0:	0000                	.insn	2, 0x
      b2:	b008                	.insn	2, 0xb008
      b4:	0001                	.insn	2, 0x0001
      b6:	8800                	.insn	2, 0x8800
      b8:	2616                	.insn	2, 0x2616
      ba:	0000                	.insn	2, 0x
      bc:	0500                	.insn	2, 0x0500
      be:	0402                	.insn	2, 0x0402
      c0:	0092                	.insn	2, 0x0092
      c2:	0000                	.insn	2, 0x
      c4:	0405                	.insn	2, 0x0405
      c6:	00008a03          	lb	s4,0(ra)
      ca:	0500                	.insn	2, 0x0500
      cc:	0404                	.insn	2, 0x0404
      ce:	0011                	.insn	2, 0x0011
      d0:	0000                	.insn	2, 0x
      d2:	0805                	.insn	2, 0x0805
      d4:	00000903          	lb	s2,0(zero) # 0 <MEM_START-0x1000>
      d8:	0500                	.insn	2, 0x0500
      da:	0408                	.insn	2, 0x0408
      dc:	0208                	.insn	2, 0x0208
      de:	0000                	.insn	2, 0x
      e0:	1005                	.insn	2, 0x1005
      e2:	0001da03          	lhu	s4,0(gp)
      e6:	0500                	.insn	2, 0x0500
      e8:	0320                	.insn	2, 0x0320
      ea:	000001fb          	.insn	4, 0x01fb
      ee:	00000017          	auipc	zero,0x0
      f2:	0800                	.insn	2, 0x0800
      f4:	0502                	.insn	2, 0x0502
      f6:	0a02                	.insn	2, 0x0a02
      f8:	0119                	.insn	2, 0x0119
      fa:	0000                	.insn	2, 0x
      fc:	6c18                	.insn	2, 0x6c18
      fe:	0200776f          	jal	a4,711e <__modsi3+0x4146>
     102:	0205                	.insn	2, 0x0205
     104:	911a                	.insn	2, 0x911a
     106:	0000                	.insn	2, 0x
     108:	0000                	.insn	2, 0x
     10a:	7b19                	.insn	2, 0x7b19
     10c:	0000                	.insn	2, 0x
     10e:	0200                	.insn	2, 0x0200
     110:	0205                	.insn	2, 0x0205
     112:	911f 0000 0400      	.insn	6, 0x04000000911f
     118:	1a00                	.insn	2, 0x1a00
     11a:	0208                	.insn	2, 0x0208
     11c:	020c                	.insn	2, 0x020c
     11e:	3909                	.insn	2, 0x3909
     120:	0001                	.insn	2, 0x0001
     122:	1200                	.insn	2, 0x1200
     124:	020e0073          	.insn	4, 0x020e0073
     128:	0000ee13          	ori	t3,ra,0
     12c:	1200                	.insn	2, 0x1200
     12e:	6c6c                	.insn	2, 0x6c6c
     130:	0f00                	.insn	2, 0x0f00
     132:	0a02                	.insn	2, 0x0a02
     134:	000000a7          	.insn	4, 0x00a7
     138:	1b00                	.insn	2, 0x1b00
     13a:	002a                	.insn	2, 0x002a
     13c:	0000                	.insn	2, 0x
     13e:	1002                	.insn	2, 0x1002
     140:	0302                	.insn	2, 0x0302
     142:	0119                	.insn	2, 0x0119
     144:	0000                	.insn	2, 0x
     146:	390d                	.insn	2, 0x390d
     148:	0001                	.insn	2, 0x0001
     14a:	1c00                	.insn	2, 0x1c00
     14c:	008c                	.insn	2, 0x008c
     14e:	0000                	.insn	2, 0x
     150:	0000015b          	.insn	4, 0x015b
     154:	341d                	.insn	2, 0x341d
     156:	0000                	.insn	2, 0x
     158:	ff00                	.insn	2, 0xff00
     15a:	0d00                	.insn	2, 0x0d00
     15c:	0000014b          	.insn	4, 0x014b
     160:	801e                	.insn	2, 0x801e
     162:	0000                	.insn	2, 0x
     164:	0200                	.insn	2, 0x0200
     166:	021a                	.insn	2, 0x021a
     168:	5b16                	.insn	2, 0x5b16
     16a:	0001                	.insn	2, 0x0001
     16c:	1f00                	.insn	2, 0x1f00
     16e:	004d                	.insn	2, 0x004d
     170:	0000                	.insn	2, 0x
     172:	bb01                	.insn	2, 0xbb01
     174:	0104                	.insn	2, 0x0104
     176:	000000a7          	.insn	4, 0x00a7
     17a:	239c                	.insn	2, 0x239c
     17c:	0000                	.insn	2, 0x
     17e:	0610                	.insn	2, 0x0610
     180:	0000                	.insn	2, 0x
     182:	9c01                	.insn	2, 0x9c01
     184:	05c5                	.insn	2, 0x05c5
     186:	0000                	.insn	2, 0x
     188:	12007513          	andi	a0,zero,288
     18c:	000000a7          	.insn	4, 0x00a7
     190:	000c                	.insn	2, 0x000c
     192:	0000                	.insn	2, 0x
     194:	1c007613          	andi	a2,zero,448
     198:	000000a7          	.insn	4, 0x00a7
     19c:	0090                	.insn	2, 0x0090
     19e:	0000                	.insn	2, 0x
     1a0:	bd00630b          	.insn	4, 0xbd00630b
     1a4:	0904                	.insn	2, 0x0904
     1a6:	0091                	.insn	2, 0x0091
     1a8:	0000                	.insn	2, 0x
     1aa:	00a6                	.insn	2, 0x00a6
     1ac:	0000                	.insn	2, 0x
     1ae:	0075750b          	.insn	4, 0x0075750b
     1b2:	04be                	.insn	2, 0x04be
     1b4:	0001390b          	.insn	4, 0x0001390b
     1b8:	c100                	.insn	2, 0xc100
     1ba:	0000                	.insn	2, 0x
     1bc:	0b00                	.insn	2, 0x0b00
     1be:	7676                	.insn	2, 0x7676
     1c0:	bf00                	.insn	2, 0xbf00
     1c2:	0b04                	.insn	2, 0x0b04
     1c4:	0139                	.insn	2, 0x0139
     1c6:	0000                	.insn	2, 0x
     1c8:	00cc                	.insn	2, 0x00cc
     1ca:	0000                	.insn	2, 0x
     1cc:	c000770b          	.insn	4, 0xc000770b
     1d0:	0a04                	.insn	2, 0x0a04
     1d2:	000000a7          	.insn	4, 0x00a7
     1d6:	000000d7          	.insn	4, 0x00d7
     1da:	c520                	.insn	2, 0xc520
     1dc:	0005                	.insn	2, 0x0005
     1de:	0800                	.insn	2, 0x0800
     1e0:	0024                	.insn	2, 0x0024
     1e2:	0c00                	.insn	2, 0x0c00
     1e4:	0000                	.insn	2, 0x
     1e6:	0100                	.insn	2, 0x0100
     1e8:	04c9                	.insn	2, 0x04c9
     1ea:	05d71407          	.insn	4, 0x05d71407
     1ee:	0000                	.insn	2, 0x
     1f0:	df14                	.insn	2, 0xdf14
     1f2:	0005                	.insn	2, 0x0005
     1f4:	2100                	.insn	2, 0x2100
     1f6:	000005e7          	jalr	a1,zero # 0 <MEM_START-0x1000>
     1fa:	00f0                	.insn	2, 0x00f0
     1fc:	0000                	.insn	2, 0x
     1fe:	1622                	.insn	2, 0x1622
     200:	0000                	.insn	2, 0x
     202:	0c00                	.insn	2, 0x0c00
     204:	05f0                	.insn	2, 0x05f0
     206:	0000                	.insn	2, 0x
     208:	fb0c                	.insn	2, 0xfb0c
     20a:	0005                	.insn	2, 0x0005
     20c:	0c00                	.insn	2, 0x0c00
     20e:	0606                	.insn	2, 0x0606
     210:	0000                	.insn	2, 0x
     212:	1101                	.insn	2, 0x1101
     214:	0006                	.insn	2, 0x0006
     216:	0000                	.insn	2, 0x
     218:	0001                	.insn	2, 0x0001
     21a:	0100                	.insn	2, 0x0100
     21c:	061c                	.insn	2, 0x061c
     21e:	0000                	.insn	2, 0x
     220:	014e                	.insn	2, 0x014e
     222:	0000                	.insn	2, 0x
     224:	2701                	.insn	2, 0x2701
     226:	0006                	.insn	2, 0x0006
     228:	5600                	.insn	2, 0x5600
     22a:	0001                	.insn	2, 0x0001
     22c:	0100                	.insn	2, 0x0100
     22e:	0632                	.insn	2, 0x0632
     230:	0000                	.insn	2, 0x
     232:	018a                	.insn	2, 0x018a
     234:	0000                	.insn	2, 0x
     236:	3d01                	.insn	2, 0x3d01
     238:	0006                	.insn	2, 0x0006
     23a:	ae00                	.insn	2, 0xae00
     23c:	0001                	.insn	2, 0x0001
     23e:	0100                	.insn	2, 0x0100
     240:	0648                	.insn	2, 0x0648
     242:	0000                	.insn	2, 0x
     244:	01c4                	.insn	2, 0x01c4
     246:	0000                	.insn	2, 0x
     248:	5301                	.insn	2, 0x5301
     24a:	0006                	.insn	2, 0x0006
     24c:	da00                	.insn	2, 0xda00
     24e:	0001                	.insn	2, 0x0001
     250:	0100                	.insn	2, 0x0100
     252:	065e                	.insn	2, 0x065e
     254:	0000                	.insn	2, 0x
     256:	01f1                	.insn	2, 0x01f1
     258:	0000                	.insn	2, 0x
     25a:	6801                	.insn	2, 0x6801
     25c:	0006                	.insn	2, 0x0006
     25e:	0000                	.insn	2, 0x
     260:	0002                	.insn	2, 0x0002
     262:	0c00                	.insn	2, 0x0c00
     264:	00000673          	.insn	4, 0x0673
     268:	7e09                	.insn	2, 0x7e09
     26a:	0006                	.insn	2, 0x0006
     26c:	2500                	.insn	2, 0x2500
     26e:	0000                	.insn	2, 0x
     270:	8800                	.insn	2, 0x8800
     272:	0002                	.insn	2, 0x0002
     274:	0100                	.insn	2, 0x0100
     276:	00000683          	lb	a3,0(zero) # 0 <MEM_START-0x1000>
     27a:	0224                	.insn	2, 0x0224
     27c:	0000                	.insn	2, 0x
     27e:	8f01                	.insn	2, 0x8f01
     280:	0006                	.insn	2, 0x0006
     282:	4900                	.insn	2, 0x4900
     284:	0002                	.insn	2, 0x0002
     286:	0000                	.insn	2, 0x
     288:	9c0a                	.insn	2, 0x9c0a
     28a:	0006                	.insn	2, 0x0006
     28c:	6800                	.insn	2, 0x6800
     28e:	0024                	.insn	2, 0x0024
     290:	c800                	.insn	2, 0xc800
     292:	0000                	.insn	2, 0x
     294:	0f00                	.insn	2, 0x0f00
     296:	01000003          	lb	zero,16(zero) # 10 <MEM_START-0xff0>
     29a:	06a1                	.insn	2, 0x06a1
     29c:	0000                	.insn	2, 0x
     29e:	0251                	.insn	2, 0x0251
     2a0:	0000                	.insn	2, 0x
     2a2:	ad01                	.insn	2, 0xad01
     2a4:	0006                	.insn	2, 0x0006
     2a6:	5900                	.insn	2, 0x5900
     2a8:	0002                	.insn	2, 0x0002
     2aa:	0100                	.insn	2, 0x0100
     2ac:	06b9                	.insn	2, 0x06b9
     2ae:	0000                	.insn	2, 0x
     2b0:	026e                	.insn	2, 0x026e
     2b2:	0000                	.insn	2, 0x
     2b4:	c501                	.insn	2, 0xc501
     2b6:	0006                	.insn	2, 0x0006
     2b8:	8b00                	.insn	2, 0x8b00
     2ba:	0002                	.insn	2, 0x0002
     2bc:	0100                	.insn	2, 0x0100
     2be:	06d1                	.insn	2, 0x06d1
     2c0:	0000                	.insn	2, 0x
     2c2:	02a8                	.insn	2, 0x02a8
     2c4:	0000                	.insn	2, 0x
     2c6:	dd01                	.insn	2, 0xdd01
     2c8:	0006                	.insn	2, 0x0006
     2ca:	d800                	.insn	2, 0xd800
     2cc:	0002                	.insn	2, 0x0002
     2ce:	0100                	.insn	2, 0x0100
     2d0:	06e9                	.insn	2, 0x06e9
     2d2:	0000                	.insn	2, 0x
     2d4:	02ec                	.insn	2, 0x02ec
     2d6:	0000                	.insn	2, 0x
     2d8:	7c04                	.insn	2, 0x7c04
     2da:	0024                	.insn	2, 0x0024
     2dc:	6b00                	.insn	2, 0x6b00
     2de:	0009                	.insn	2, 0x0009
     2e0:	0400                	.insn	2, 0x0400
     2e2:	2490                	.insn	2, 0x2490
     2e4:	0000                	.insn	2, 0x
     2e6:	0974                	.insn	2, 0x0974
     2e8:	0000                	.insn	2, 0x
     2ea:	a004                	.insn	2, 0xa004
     2ec:	0024                	.insn	2, 0x0024
     2ee:	7d00                	.insn	2, 0x7d00
     2f0:	0009                	.insn	2, 0x0009
     2f2:	0400                	.insn	2, 0x0400
     2f4:	24dc                	.insn	2, 0x24dc
     2f6:	0000                	.insn	2, 0x
     2f8:	0000096b          	.insn	4, 0x096b
     2fc:	ec04                	.insn	2, 0xec04
     2fe:	0024                	.insn	2, 0x0024
     300:	7400                	.insn	2, 0x7400
     302:	0009                	.insn	2, 0x0009
     304:	0400                	.insn	2, 0x0400
     306:	24fc                	.insn	2, 0x24fc
     308:	0000                	.insn	2, 0x
     30a:	097d                	.insn	2, 0x097d
     30c:	0000                	.insn	2, 0x
     30e:	0900                	.insn	2, 0x0900
     310:	07f8                	.insn	2, 0x07f8
     312:	0000                	.insn	2, 0x
     314:	0030                	.insn	2, 0x0030
     316:	0000                	.insn	2, 0x
     318:	047c                	.insn	2, 0x047c
     31a:	0000                	.insn	2, 0x
     31c:	f901                	.insn	2, 0xf901
     31e:	02000007          	.insn	4, 0x02000007
     322:	01000003          	lb	zero,16(zero) # 10 <MEM_START-0xff0>
     326:	0804                	.insn	2, 0x0804
     328:	0000                	.insn	2, 0x
     32a:	030a                	.insn	2, 0x030a
     32c:	0000                	.insn	2, 0x
     32e:	0f09                	.insn	2, 0x0f09
     330:	0008                	.insn	2, 0x0008
     332:	3b00                	.insn	2, 0x3b00
     334:	0000                	.insn	2, 0x
     336:	b100                	.insn	2, 0xb100
     338:	01000003          	lb	zero,16(zero) # 10 <MEM_START-0xff0>
     33c:	0814                	.insn	2, 0x0814
     33e:	0000                	.insn	2, 0x
     340:	0321                	.insn	2, 0x0321
     342:	0000                	.insn	2, 0x
     344:	2001                	.insn	2, 0x2001
     346:	0008                	.insn	2, 0x0008
     348:	3000                	.insn	2, 0x3000
     34a:	01000003          	lb	zero,16(zero) # 10 <MEM_START-0xff0>
     34e:	082c                	.insn	2, 0x082c
     350:	0000                	.insn	2, 0x
     352:	0345                	.insn	2, 0x0345
     354:	0000                	.insn	2, 0x
     356:	3801                	.insn	2, 0x3801
     358:	0008                	.insn	2, 0x0008
     35a:	6200                	.insn	2, 0x6200
     35c:	01000003          	lb	zero,16(zero) # 10 <MEM_START-0xff0>
     360:	0844                	.insn	2, 0x0844
     362:	0000                	.insn	2, 0x
     364:	037f 0000 5001 0008 	.insn	10, 0xbb00000850010000037f
     36c:	bb00 
     36e:	01000003          	lb	zero,16(zero) # 10 <MEM_START-0xff0>
     372:	085c                	.insn	2, 0x085c
     374:	0000                	.insn	2, 0x
     376:	03e6                	.insn	2, 0x03e6
     378:	0000                	.insn	2, 0x
     37a:	4404                	.insn	2, 0x4404
     37c:	0028                	.insn	2, 0x0028
     37e:	6b00                	.insn	2, 0x6b00
     380:	0009                	.insn	2, 0x0009
     382:	0400                	.insn	2, 0x0400
     384:	2854                	.insn	2, 0x2854
     386:	0000                	.insn	2, 0x
     388:	0974                	.insn	2, 0x0974
     38a:	0000                	.insn	2, 0x
     38c:	6404                	.insn	2, 0x6404
     38e:	0028                	.insn	2, 0x0028
     390:	7d00                	.insn	2, 0x7d00
     392:	0009                	.insn	2, 0x0009
     394:	0400                	.insn	2, 0x0400
     396:	28a0                	.insn	2, 0x28a0
     398:	0000                	.insn	2, 0x
     39a:	0000096b          	.insn	4, 0x096b
     39e:	b004                	.insn	2, 0xb004
     3a0:	0028                	.insn	2, 0x0028
     3a2:	7400                	.insn	2, 0x7400
     3a4:	0009                	.insn	2, 0x0009
     3a6:	0400                	.insn	2, 0x0400
     3a8:	28c0                	.insn	2, 0x28c0
     3aa:	0000                	.insn	2, 0x
     3ac:	097d                	.insn	2, 0x097d
     3ae:	0000                	.insn	2, 0x
     3b0:	0e00                	.insn	2, 0x0e00
     3b2:	0869                	.insn	2, 0x0869
     3b4:	0000                	.insn	2, 0x
     3b6:	0055                	.insn	2, 0x0055
     3b8:	0000                	.insn	2, 0x
     3ba:	6e01                	.insn	2, 0x6e01
     3bc:	0008                	.insn	2, 0x0008
     3be:	0300                	.insn	2, 0x0300
     3c0:	0004                	.insn	2, 0x0004
     3c2:	0100                	.insn	2, 0x0100
     3c4:	087a                	.insn	2, 0x087a
     3c6:	0000                	.insn	2, 0x
     3c8:	0412                	.insn	2, 0x0412
     3ca:	0000                	.insn	2, 0x
     3cc:	8601                	.insn	2, 0x8601
     3ce:	0008                	.insn	2, 0x0008
     3d0:	2800                	.insn	2, 0x2800
     3d2:	0004                	.insn	2, 0x0004
     3d4:	0100                	.insn	2, 0x0100
     3d6:	0892                	.insn	2, 0x0892
     3d8:	0000                	.insn	2, 0x
     3da:	0430                	.insn	2, 0x0430
     3dc:	0000                	.insn	2, 0x
     3de:	9e01                	.insn	2, 0x9e01
     3e0:	0008                	.insn	2, 0x0008
     3e2:	3f00                	.insn	2, 0x3f00
     3e4:	0004                	.insn	2, 0x0004
     3e6:	0100                	.insn	2, 0x0100
     3e8:	08aa                	.insn	2, 0x08aa
     3ea:	0000                	.insn	2, 0x
     3ec:	00000447          	.insn	4, 0x0447
     3f0:	b601                	.insn	2, 0xb601
     3f2:	0008                	.insn	2, 0x0008
     3f4:	4f00                	.insn	2, 0x4f00
     3f6:	0004                	.insn	2, 0x0004
     3f8:	0100                	.insn	2, 0x0100
     3fa:	08c2                	.insn	2, 0x08c2
     3fc:	0000                	.insn	2, 0x
     3fe:	00000457          	.insn	4, 0x0457
     402:	ce0a                	.insn	2, 0xce0a
     404:	0008                	.insn	2, 0x0008
     406:	1400                	.insn	2, 0x1400
     408:	0029                	.insn	2, 0x0029
     40a:	1000                	.insn	2, 0x1000
     40c:	0000                	.insn	2, 0x
     40e:	2200                	.insn	2, 0x2200
     410:	0004                	.insn	2, 0x0004
     412:	0700                	.insn	2, 0x0700
     414:	000008d3          	.insn	4, 0x08d3
     418:	5a01                	.insn	2, 0x5a01
     41a:	0008df07          	.insn	4, 0x0008df07
     41e:	0100                	.insn	2, 0x0100
     420:	ec0a005b          	.insn	4, 0xec0a005b
     424:	0008                	.insn	2, 0x0008
     426:	2400                	.insn	2, 0x2400
     428:	0029                	.insn	2, 0x0029
     42a:	1000                	.insn	2, 0x1000
     42c:	0000                	.insn	2, 0x
     42e:	4200                	.insn	2, 0x4200
     430:	0004                	.insn	2, 0x0004
     432:	0700                	.insn	2, 0x0700
     434:	08f1                	.insn	2, 0x08f1
     436:	0000                	.insn	2, 0x
     438:	5a01                	.insn	2, 0x5a01
     43a:	0008fd07          	.insn	4, 0x0008fd07
     43e:	0100                	.insn	2, 0x0100
     440:	0a0a005b          	.insn	4, 0x0a0a005b
     444:	0009                	.insn	2, 0x0009
     446:	3400                	.insn	2, 0x3400
     448:	0029                	.insn	2, 0x0029
     44a:	1000                	.insn	2, 0x1000
     44c:	0000                	.insn	2, 0x
     44e:	6200                	.insn	2, 0x6200
     450:	0004                	.insn	2, 0x0004
     452:	0700                	.insn	2, 0x0700
     454:	0000090f          	.insn	4, 0x090f
     458:	5a01                	.insn	2, 0x5a01
     45a:	00091b07          	.insn	4, 0x00091b07
     45e:	0100                	.insn	2, 0x0100
     460:	280e005b          	.insn	4, 0x280e005b
     464:	0009                	.insn	2, 0x0009
     466:	6f00                	.insn	2, 0x6f00
     468:	0000                	.insn	2, 0x
     46a:	0700                	.insn	2, 0x0700
     46c:	0929                	.insn	2, 0x0929
     46e:	0000                	.insn	2, 0x
     470:	5a01                	.insn	2, 0x5a01
     472:	00093507          	.insn	4, 0x00093507
     476:	0100                	.insn	2, 0x0100
     478:	0000005b          	.insn	4, 0x005b
     47c:	f609                	.insn	2, 0xf609
     47e:	0006                	.insn	2, 0x0006
     480:	7a00                	.insn	2, 0x7a00
     482:	0000                	.insn	2, 0x
     484:	9c00                	.insn	2, 0x9c00
     486:	0004                	.insn	2, 0x0004
     488:	0100                	.insn	2, 0x0100
     48a:	000006fb          	.insn	4, 0x06fb
     48e:	045f 0000 0701      	.insn	6, 0x07010000045f
     494:	6e000007          	.insn	4, 0x6e000007
     498:	0004                	.insn	2, 0x0004
     49a:	0000                	.insn	2, 0x
     49c:	6e0a                	.insn	2, 0x6e0a
     49e:	8c000007          	.insn	4, 0x8c000007
     4a2:	0025                	.insn	2, 0x0025
     4a4:	c800                	.insn	2, 0xc800
     4a6:	0000                	.insn	2, 0x
     4a8:	2300                	.insn	2, 0x2300
     4aa:	0005                	.insn	2, 0x0005
     4ac:	0100                	.insn	2, 0x0100
     4ae:	00000773          	.insn	4, 0x0773
     4b2:	0476                	.insn	2, 0x0476
     4b4:	0000                	.insn	2, 0x
     4b6:	7f01                	.insn	2, 0x7f01
     4b8:	7e000007          	.insn	4, 0x7e000007
     4bc:	0004                	.insn	2, 0x0004
     4be:	0100                	.insn	2, 0x0100
     4c0:	0000078b          	.insn	4, 0x078b
     4c4:	00000493          	li	s1,0
     4c8:	9701                	.insn	2, 0x9701
     4ca:	b0000007          	.insn	4, 0xb0000007
     4ce:	0004                	.insn	2, 0x0004
     4d0:	0100                	.insn	2, 0x0100
     4d2:	000007a3          	sb	zero,15(zero) # f <MEM_START-0xff1>
     4d6:	04cd                	.insn	2, 0x04cd
     4d8:	0000                	.insn	2, 0x
     4da:	af01                	.insn	2, 0xaf01
     4dc:	fd000007          	.insn	4, 0xfd000007
     4e0:	0004                	.insn	2, 0x0004
     4e2:	0100                	.insn	2, 0x0100
     4e4:	000007bb          	.insn	4, 0x07bb
     4e8:	0511                	.insn	2, 0x0511
     4ea:	0000                	.insn	2, 0x
     4ec:	a004                	.insn	2, 0xa004
     4ee:	0025                	.insn	2, 0x0025
     4f0:	6b00                	.insn	2, 0x6b00
     4f2:	0009                	.insn	2, 0x0009
     4f4:	0400                	.insn	2, 0x0400
     4f6:	25b4                	.insn	2, 0x25b4
     4f8:	0000                	.insn	2, 0x
     4fa:	0974                	.insn	2, 0x0974
     4fc:	0000                	.insn	2, 0x
     4fe:	c404                	.insn	2, 0xc404
     500:	0025                	.insn	2, 0x0025
     502:	7d00                	.insn	2, 0x7d00
     504:	0009                	.insn	2, 0x0009
     506:	0400                	.insn	2, 0x0400
     508:	2600                	.insn	2, 0x2600
     50a:	0000                	.insn	2, 0x
     50c:	0000096b          	.insn	4, 0x096b
     510:	1004                	.insn	2, 0x1004
     512:	0026                	.insn	2, 0x0026
     514:	7400                	.insn	2, 0x7400
     516:	0009                	.insn	2, 0x0009
     518:	0400                	.insn	2, 0x0400
     51a:	2620                	.insn	2, 0x2620
     51c:	0000                	.insn	2, 0x
     51e:	097d                	.insn	2, 0x097d
     520:	0000                	.insn	2, 0x
     522:	0900                	.insn	2, 0x0900
     524:	0714                	.insn	2, 0x0714
     526:	0000                	.insn	2, 0x
     528:	008a                	.insn	2, 0x008a
     52a:	0000                	.insn	2, 0x
     52c:	05a6                	.insn	2, 0x05a6
     52e:	0000                	.insn	2, 0x
     530:	1901                	.insn	2, 0x1901
     532:	2e000007          	.insn	4, 0x2e000007
     536:	0005                	.insn	2, 0x0005
     538:	0100                	.insn	2, 0x0100
     53a:	0725                	.insn	2, 0x0725
     53c:	0000                	.insn	2, 0x
     53e:	0536                	.insn	2, 0x0536
     540:	0000                	.insn	2, 0x
     542:	3101                	.insn	2, 0x3101
     544:	4b000007          	.insn	4, 0x4b000007
     548:	0005                	.insn	2, 0x0005
     54a:	0100                	.insn	2, 0x0100
     54c:	073d                	.insn	2, 0x073d
     54e:	0000                	.insn	2, 0x
     550:	0568                	.insn	2, 0x0568
     552:	0000                	.insn	2, 0x
     554:	4901                	.insn	2, 0x4901
     556:	85000007          	.insn	4, 0x85000007
     55a:	0005                	.insn	2, 0x0005
     55c:	0100                	.insn	2, 0x0100
     55e:	0755                	.insn	2, 0x0755
     560:	0000                	.insn	2, 0x
     562:	05b5                	.insn	2, 0x05b5
     564:	0000                	.insn	2, 0x
     566:	6101                	.insn	2, 0x6101
     568:	e7000007          	.insn	4, 0xe7000007
     56c:	0005                	.insn	2, 0x0005
     56e:	0400                	.insn	2, 0x0400
     570:	26e8                	.insn	2, 0x26e8
     572:	0000                	.insn	2, 0x
     574:	0000096b          	.insn	4, 0x096b
     578:	fc04                	.insn	2, 0xfc04
     57a:	0026                	.insn	2, 0x0026
     57c:	7400                	.insn	2, 0x7400
     57e:	0009                	.insn	2, 0x0009
     580:	0400                	.insn	2, 0x0400
     582:	270c                	.insn	2, 0x270c
     584:	0000                	.insn	2, 0x
     586:	097d                	.insn	2, 0x097d
     588:	0000                	.insn	2, 0x
     58a:	4804                	.insn	2, 0x4804
     58c:	6b000027          	.insn	4, 0x6b000027
     590:	0009                	.insn	2, 0x0009
     592:	0400                	.insn	2, 0x0400
     594:	2758                	.insn	2, 0x2758
     596:	0000                	.insn	2, 0x
     598:	0974                	.insn	2, 0x0974
     59a:	0000                	.insn	2, 0x
     59c:	6804                	.insn	2, 0x6804
     59e:	7d000027          	.insn	4, 0x7d000027
     5a2:	0009                	.insn	2, 0x0009
     5a4:	0000                	.insn	2, 0x
     5a6:	c80e                	.insn	2, 0xc80e
     5a8:	95000007          	.insn	4, 0x95000007
     5ac:	0000                	.insn	2, 0x
     5ae:	0100                	.insn	2, 0x0100
     5b0:	07cd                	.insn	2, 0x07cd
     5b2:	0000                	.insn	2, 0x
     5b4:	05fd                	.insn	2, 0x05fd
     5b6:	0000                	.insn	2, 0x
     5b8:	d901                	.insn	2, 0xd901
     5ba:	05000007          	.insn	4, 0x05000007
     5be:	0006                	.insn	2, 0x0006
     5c0:	0000                	.insn	2, 0x
     5c2:	0000                	.insn	2, 0x
     5c4:	2300                	.insn	2, 0x2300
     5c6:	01ee                	.insn	2, 0x01ee
     5c8:	0000                	.insn	2, 0x
     5ca:	e301                	.insn	2, 0xe301
     5cc:	00b20103          	lb	sp,11(tp) # b <MEM_START-0xff5>
     5d0:	0000                	.insn	2, 0x
     5d2:	00096503          	.insn	4, 0x00096503
     5d6:	0f00                	.insn	2, 0x0f00
     5d8:	006e                	.insn	2, 0x006e
     5da:	0000b217          	auipc	tp,0xb
     5de:	0f00                	.insn	2, 0x0f00
     5e0:	0064                	.insn	2, 0x0064
     5e2:	b222                	.insn	2, 0xb222
     5e4:	0000                	.insn	2, 0x
     5e6:	0f00                	.insn	2, 0x0f00
     5e8:	7072                	.insn	2, 0x7072
     5ea:	2e00                	.insn	2, 0x2e00
     5ec:	0965                	.insn	2, 0x0965
     5ee:	0000                	.insn	2, 0x
     5f0:	006e6e03          	.insn	4, 0x006e6e03
     5f4:	03e5                	.insn	2, 0x03e5
     5f6:	4611                	.insn	2, 0x4611
     5f8:	0001                	.insn	2, 0x0001
     5fa:	0300                	.insn	2, 0x0300
     5fc:	6464                	.insn	2, 0x6464
     5fe:	e600                	.insn	2, 0xe600
     600:	01461103          	lh	sp,20(a2)
     604:	0000                	.insn	2, 0x
     606:	00727203          	.insn	4, 0x00727203
     60a:	390b03e7          	jalr	t2,912(s6)
     60e:	0001                	.insn	2, 0x0001
     610:	0300                	.insn	2, 0x0300
     612:	3064                	.insn	2, 0x3064
     614:	e800                	.insn	2, 0xe800
     616:	009c0a03          	lb	s4,9(s8)
     61a:	0000                	.insn	2, 0x
     61c:	00316403          	.insn	4, 0x00316403
     620:	03e8                	.insn	2, 0x03e8
     622:	9c0e                	.insn	2, 0x9c0e
     624:	0000                	.insn	2, 0x
     626:	0300                	.insn	2, 0x0300
     628:	306e                	.insn	2, 0x306e
     62a:	e800                	.insn	2, 0xe800
     62c:	009c1203          	lh	tp,9(s8)
     630:	0000                	.insn	2, 0x
     632:	00316e03          	.insn	4, 0x00316e03
     636:	03e8                	.insn	2, 0x03e8
     638:	9c16                	.insn	2, 0x9c16
     63a:	0000                	.insn	2, 0x
     63c:	0300                	.insn	2, 0x0300
     63e:	326e                	.insn	2, 0x326e
     640:	e800                	.insn	2, 0xe800
     642:	009c1a03          	lh	s4,9(s8)
     646:	0000                	.insn	2, 0x
     648:	00307103          	.insn	4, 0x00307103
     64c:	03e9                	.insn	2, 0x03e9
     64e:	9c0a                	.insn	2, 0x9c0a
     650:	0000                	.insn	2, 0x
     652:	0300                	.insn	2, 0x0300
     654:	3171                	.insn	2, 0x3171
     656:	e900                	.insn	2, 0xe900
     658:	009c0e03          	lb	t3,9(s8)
     65c:	0000                	.insn	2, 0x
     65e:	ea006203          	.insn	4, 0xea006203
     662:	009c0a03          	lb	s4,9(s8)
     666:	0000                	.insn	2, 0x
     668:	006d6203          	.insn	4, 0x006d6203
     66c:	03ea                	.insn	2, 0x03ea
     66e:	9c0d                	.insn	2, 0x9c0d
     670:	0000                	.insn	2, 0x
     672:	0300                	.insn	2, 0x0300
     674:	b3007777          	.insn	4, 0xb3007777
     678:	1104                	.insn	2, 0x1104
     67a:	0146                	.insn	2, 0x0146
     67c:	0000                	.insn	2, 0x
     67e:	9c06                	.insn	2, 0x9c06
     680:	0006                	.insn	2, 0x0006
     682:	0200                	.insn	2, 0x0200
     684:	0000020f          	.insn	4, 0x020f
     688:	041a                	.insn	2, 0x041a
     68a:	9c04                	.insn	2, 0x9c04
     68c:	0000                	.insn	2, 0x
     68e:	0300                	.insn	2, 0x0300
     690:	5f5f 0061 041a      	.insn	6, 0x041a00615f5f
     696:	9c04                	.insn	2, 0x9c04
     698:	0000                	.insn	2, 0x
     69a:	0000                	.insn	2, 0x
     69c:	f606                	.insn	2, 0xf606
     69e:	0006                	.insn	2, 0x0006
     6a0:	0200                	.insn	2, 0x0200
     6a2:	00000037          	lui	zero,0x0
     6a6:	0426                	.insn	2, 0x0426
     6a8:	9c04                	.insn	2, 0x9c04
     6aa:	0000                	.insn	2, 0x
     6ac:	0200                	.insn	2, 0x0200
     6ae:	0032                	.insn	2, 0x0032
     6b0:	0000                	.insn	2, 0x
     6b2:	0426                	.insn	2, 0x0426
     6b4:	9c04                	.insn	2, 0x9c04
     6b6:	0000                	.insn	2, 0x
     6b8:	0200                	.insn	2, 0x0200
     6ba:	01c5                	.insn	2, 0x01c5
     6bc:	0000                	.insn	2, 0x
     6be:	0426                	.insn	2, 0x0426
     6c0:	9c04                	.insn	2, 0x9c04
     6c2:	0000                	.insn	2, 0x
     6c4:	0200                	.insn	2, 0x0200
     6c6:	01c0                	.insn	2, 0x01c0
     6c8:	0000                	.insn	2, 0x
     6ca:	0426                	.insn	2, 0x0426
     6cc:	9c04                	.insn	2, 0x9c04
     6ce:	0000                	.insn	2, 0x
     6d0:	0200                	.insn	2, 0x0200
     6d2:	0219                	.insn	2, 0x0219
     6d4:	0000                	.insn	2, 0x
     6d6:	0426                	.insn	2, 0x0426
     6d8:	9c04                	.insn	2, 0x9c04
     6da:	0000                	.insn	2, 0x
     6dc:	0200                	.insn	2, 0x0200
     6de:	0214                	.insn	2, 0x0214
     6e0:	0000                	.insn	2, 0x
     6e2:	0426                	.insn	2, 0x0426
     6e4:	9c04                	.insn	2, 0x9c04
     6e6:	0000                	.insn	2, 0x
     6e8:	0300                	.insn	2, 0x0300
     6ea:	5f5f 006d 0426      	.insn	6, 0x0426006d5f5f
     6f0:	9c04                	.insn	2, 0x9c04
     6f2:	0000                	.insn	2, 0x
     6f4:	0000                	.insn	2, 0x
     6f6:	1406                	.insn	2, 0x1406
     6f8:	02000007          	.insn	4, 0x02000007
     6fc:	0000020f          	.insn	4, 0x020f
     700:	0432                	.insn	2, 0x0432
     702:	9c04                	.insn	2, 0x9c04
     704:	0000                	.insn	2, 0x
     706:	0300                	.insn	2, 0x0300
     708:	5f5f 0061 0432      	.insn	6, 0x043200615f5f
     70e:	9c04                	.insn	2, 0x9c04
     710:	0000                	.insn	2, 0x
     712:	0000                	.insn	2, 0x
     714:	6e06                	.insn	2, 0x6e06
     716:	02000007          	.insn	4, 0x02000007
     71a:	00000037          	lui	zero,0x0
     71e:	9c08044b          	.insn	4, 0x9c08044b
     722:	0000                	.insn	2, 0x
     724:	0200                	.insn	2, 0x0200
     726:	0032                	.insn	2, 0x0032
     728:	0000                	.insn	2, 0x
     72a:	9c08044b          	.insn	4, 0x9c08044b
     72e:	0000                	.insn	2, 0x
     730:	0200                	.insn	2, 0x0200
     732:	01c5                	.insn	2, 0x01c5
     734:	0000                	.insn	2, 0x
     736:	9c08044b          	.insn	4, 0x9c08044b
     73a:	0000                	.insn	2, 0x
     73c:	0200                	.insn	2, 0x0200
     73e:	01c0                	.insn	2, 0x01c0
     740:	0000                	.insn	2, 0x
     742:	9c08044b          	.insn	4, 0x9c08044b
     746:	0000                	.insn	2, 0x
     748:	0200                	.insn	2, 0x0200
     74a:	0219                	.insn	2, 0x0219
     74c:	0000                	.insn	2, 0x
     74e:	9c08044b          	.insn	4, 0x9c08044b
     752:	0000                	.insn	2, 0x
     754:	0200                	.insn	2, 0x0200
     756:	0214                	.insn	2, 0x0214
     758:	0000                	.insn	2, 0x
     75a:	9c08044b          	.insn	4, 0x9c08044b
     75e:	0000                	.insn	2, 0x
     760:	0300                	.insn	2, 0x0300
     762:	5f5f 006d 044b      	.insn	6, 0x044b006d5f5f
     768:	9c08                	.insn	2, 0x9c08
     76a:	0000                	.insn	2, 0x
     76c:	0000                	.insn	2, 0x
     76e:	c806                	.insn	2, 0xc806
     770:	02000007          	.insn	4, 0x02000007
     774:	00000037          	lui	zero,0x0
     778:	0450                	.insn	2, 0x0450
     77a:	9c04                	.insn	2, 0x9c04
     77c:	0000                	.insn	2, 0x
     77e:	0200                	.insn	2, 0x0200
     780:	0032                	.insn	2, 0x0032
     782:	0000                	.insn	2, 0x
     784:	0450                	.insn	2, 0x0450
     786:	9c04                	.insn	2, 0x9c04
     788:	0000                	.insn	2, 0x
     78a:	0200                	.insn	2, 0x0200
     78c:	01c5                	.insn	2, 0x01c5
     78e:	0000                	.insn	2, 0x
     790:	0450                	.insn	2, 0x0450
     792:	9c04                	.insn	2, 0x9c04
     794:	0000                	.insn	2, 0x
     796:	0200                	.insn	2, 0x0200
     798:	01c0                	.insn	2, 0x01c0
     79a:	0000                	.insn	2, 0x
     79c:	0450                	.insn	2, 0x0450
     79e:	9c04                	.insn	2, 0x9c04
     7a0:	0000                	.insn	2, 0x
     7a2:	0200                	.insn	2, 0x0200
     7a4:	0219                	.insn	2, 0x0219
     7a6:	0000                	.insn	2, 0x
     7a8:	0450                	.insn	2, 0x0450
     7aa:	9c04                	.insn	2, 0x9c04
     7ac:	0000                	.insn	2, 0x
     7ae:	0200                	.insn	2, 0x0200
     7b0:	0214                	.insn	2, 0x0214
     7b2:	0000                	.insn	2, 0x
     7b4:	0450                	.insn	2, 0x0450
     7b6:	9c04                	.insn	2, 0x9c04
     7b8:	0000                	.insn	2, 0x
     7ba:	0300                	.insn	2, 0x0300
     7bc:	5f5f 006d 0450      	.insn	6, 0x0450006d5f5f
     7c2:	9c04                	.insn	2, 0x9c04
     7c4:	0000                	.insn	2, 0x
     7c6:	0000                	.insn	2, 0x
     7c8:	e606                	.insn	2, 0xe606
     7ca:	02000007          	.insn	4, 0x02000007
     7ce:	0000020f          	.insn	4, 0x020f
     7d2:	9c040473          	.insn	4, 0x9c040473
     7d6:	0000                	.insn	2, 0x
     7d8:	0300                	.insn	2, 0x0300
     7da:	5f5f 0061 0473      	.insn	6, 0x047300615f5f
     7e0:	9c04                	.insn	2, 0x9c04
     7e2:	0000                	.insn	2, 0x
     7e4:	0000                	.insn	2, 0x
     7e6:	f806                	.insn	2, 0xf806
     7e8:	03000007          	.insn	4, 0x03000007
     7ec:	5f5f 0078 0481      	.insn	6, 0x048100785f5f
     7f2:	9c05                	.insn	2, 0x9c05
     7f4:	0000                	.insn	2, 0x
     7f6:	0000                	.insn	2, 0x
     7f8:	0310                	.insn	2, 0x0310
     7fa:	316d                	.insn	2, 0x316d
     7fc:	9100                	.insn	2, 0x9100
     7fe:	0f04                	.insn	2, 0x0f04
     800:	009c                	.insn	2, 0x009c
     802:	0000                	.insn	2, 0x
     804:	00306d03          	.insn	4, 0x00306d03
     808:	0491                	.insn	2, 0x0491
     80a:	00009c13          	slli	s8,ra,0x0
     80e:	0600                	.insn	2, 0x0600
     810:	0869                	.insn	2, 0x0869
     812:	0000                	.insn	2, 0x
     814:	3702                	.insn	2, 0x3702
     816:	0000                	.insn	2, 0x
     818:	9c00                	.insn	2, 0x9c00
     81a:	0804                	.insn	2, 0x0804
     81c:	009c                	.insn	2, 0x009c
     81e:	0000                	.insn	2, 0x
     820:	3202                	.insn	2, 0x3202
     822:	0000                	.insn	2, 0x
     824:	9c00                	.insn	2, 0x9c00
     826:	0804                	.insn	2, 0x0804
     828:	009c                	.insn	2, 0x009c
     82a:	0000                	.insn	2, 0x
     82c:	c502                	.insn	2, 0xc502
     82e:	0001                	.insn	2, 0x0001
     830:	9c00                	.insn	2, 0x9c00
     832:	0804                	.insn	2, 0x0804
     834:	009c                	.insn	2, 0x009c
     836:	0000                	.insn	2, 0x
     838:	c002                	.insn	2, 0xc002
     83a:	0001                	.insn	2, 0x0001
     83c:	9c00                	.insn	2, 0x9c00
     83e:	0804                	.insn	2, 0x0804
     840:	009c                	.insn	2, 0x009c
     842:	0000                	.insn	2, 0x
     844:	1902                	.insn	2, 0x1902
     846:	0002                	.insn	2, 0x0002
     848:	9c00                	.insn	2, 0x9c00
     84a:	0804                	.insn	2, 0x0804
     84c:	009c                	.insn	2, 0x009c
     84e:	0000                	.insn	2, 0x
     850:	1402                	.insn	2, 0x1402
     852:	0002                	.insn	2, 0x0002
     854:	9c00                	.insn	2, 0x9c00
     856:	0804                	.insn	2, 0x0804
     858:	009c                	.insn	2, 0x009c
     85a:	0000                	.insn	2, 0x
     85c:	6d5f5f03          	lhu	t5,1749(t5)
     860:	9c00                	.insn	2, 0x9c00
     862:	0804                	.insn	2, 0x0804
     864:	009c                	.insn	2, 0x009c
     866:	0000                	.insn	2, 0x
     868:	0600                	.insn	2, 0x0600
     86a:	00000943          	.insn	4, 0x0943
     86e:	8102                	.insn	2, 0x8102
     870:	0001                	.insn	2, 0x0001
     872:	9d00                	.insn	2, 0x9d00
     874:	0804                	.insn	2, 0x0804
     876:	009c                	.insn	2, 0x009c
     878:	0000                	.insn	2, 0x
     87a:	8602                	.insn	2, 0x8602
     87c:	0001                	.insn	2, 0x0001
     87e:	9d00                	.insn	2, 0x9d00
     880:	0804                	.insn	2, 0x0804
     882:	009c                	.insn	2, 0x009c
     884:	0000                	.insn	2, 0x
     886:	8b02                	.insn	2, 0x8b02
     888:	0001                	.insn	2, 0x0001
     88a:	9d00                	.insn	2, 0x9d00
     88c:	0804                	.insn	2, 0x0804
     88e:	009c                	.insn	2, 0x009c
     890:	0000                	.insn	2, 0x
     892:	9002                	.insn	2, 0x9002
     894:	0001                	.insn	2, 0x0001
     896:	9d00                	.insn	2, 0x9d00
     898:	0804                	.insn	2, 0x0804
     89a:	009c                	.insn	2, 0x009c
     89c:	0000                	.insn	2, 0x
     89e:	2302                	.insn	2, 0x2302
     8a0:	0002                	.insn	2, 0x0002
     8a2:	9d00                	.insn	2, 0x9d00
     8a4:	0804                	.insn	2, 0x0804
     8a6:	009c                	.insn	2, 0x009c
     8a8:	0000                	.insn	2, 0x
     8aa:	e902                	.insn	2, 0xe902
     8ac:	0001                	.insn	2, 0x0001
     8ae:	9d00                	.insn	2, 0x9d00
     8b0:	0804                	.insn	2, 0x0804
     8b2:	009c                	.insn	2, 0x009c
     8b4:	0000                	.insn	2, 0x
     8b6:	1e02                	.insn	2, 0x1e02
     8b8:	0002                	.insn	2, 0x0002
     8ba:	9d00                	.insn	2, 0x9d00
     8bc:	0804                	.insn	2, 0x0804
     8be:	009c                	.insn	2, 0x009c
     8c0:	0000                	.insn	2, 0x
     8c2:	3c02                	.insn	2, 0x3c02
     8c4:	0000                	.insn	2, 0x
     8c6:	9d00                	.insn	2, 0x9d00
     8c8:	0804                	.insn	2, 0x0804
     8ca:	009c                	.insn	2, 0x009c
     8cc:	0000                	.insn	2, 0x
     8ce:	ec06                	.insn	2, 0xec06
     8d0:	0008                	.insn	2, 0x0008
     8d2:	0200                	.insn	2, 0x0200
     8d4:	0041                	.insn	2, 0x0041
     8d6:	0000                	.insn	2, 0x
     8d8:	049d                	.insn	2, 0x049d
     8da:	9c08                	.insn	2, 0x9c08
     8dc:	0000                	.insn	2, 0x
     8de:	0200                	.insn	2, 0x0200
     8e0:	00000047          	.insn	4, 0x0047
     8e4:	049d                	.insn	2, 0x049d
     8e6:	9c08                	.insn	2, 0x9c08
     8e8:	0000                	.insn	2, 0x
     8ea:	0000                	.insn	2, 0x
     8ec:	0a06                	.insn	2, 0x0a06
     8ee:	0009                	.insn	2, 0x0009
     8f0:	0200                	.insn	2, 0x0200
     8f2:	0041                	.insn	2, 0x0041
     8f4:	0000                	.insn	2, 0x
     8f6:	049d                	.insn	2, 0x049d
     8f8:	9c08                	.insn	2, 0x9c08
     8fa:	0000                	.insn	2, 0x
     8fc:	0200                	.insn	2, 0x0200
     8fe:	00000047          	.insn	4, 0x0047
     902:	049d                	.insn	2, 0x049d
     904:	9c08                	.insn	2, 0x9c08
     906:	0000                	.insn	2, 0x
     908:	0000                	.insn	2, 0x
     90a:	2806                	.insn	2, 0x2806
     90c:	0009                	.insn	2, 0x0009
     90e:	0200                	.insn	2, 0x0200
     910:	0041                	.insn	2, 0x0041
     912:	0000                	.insn	2, 0x
     914:	049d                	.insn	2, 0x049d
     916:	9c08                	.insn	2, 0x9c08
     918:	0000                	.insn	2, 0x
     91a:	0200                	.insn	2, 0x0200
     91c:	00000047          	.insn	4, 0x0047
     920:	049d                	.insn	2, 0x049d
     922:	9c08                	.insn	2, 0x9c08
     924:	0000                	.insn	2, 0x
     926:	0000                	.insn	2, 0x
     928:	0210                	.insn	2, 0x0210
     92a:	0041                	.insn	2, 0x0041
     92c:	0000                	.insn	2, 0x
     92e:	049d                	.insn	2, 0x049d
     930:	9c08                	.insn	2, 0x9c08
     932:	0000                	.insn	2, 0x
     934:	0200                	.insn	2, 0x0200
     936:	00000047          	.insn	4, 0x0047
     93a:	049d                	.insn	2, 0x049d
     93c:	9c08                	.insn	2, 0x9c08
     93e:	0000                	.insn	2, 0x
     940:	0000                	.insn	2, 0x
     942:	0600                	.insn	2, 0x0600
     944:	0955                	.insn	2, 0x0955
     946:	0000                	.insn	2, 0x
     948:	785f5f03          	lhu	t5,1925(t5)
     94c:	a200                	.insn	2, 0xa200
     94e:	0504                	.insn	2, 0x0504
     950:	009c                	.insn	2, 0x009c
     952:	0000                	.insn	2, 0x
     954:	1000                	.insn	2, 0x1000
     956:	785f5f03          	lhu	t5,1925(t5)
     95a:	aa00                	.insn	2, 0xaa00
     95c:	0504                	.insn	2, 0x0504
     95e:	009c                	.insn	2, 0x009c
     960:	0000                	.insn	2, 0x
     962:	0000                	.insn	2, 0x
     964:	2400                	.insn	2, 0x2400
     966:	b204                	.insn	2, 0xb204
     968:	0000                	.insn	2, 0x
     96a:	1100                	.insn	2, 0x1100
     96c:	0000030f          	.insn	4, 0x030f
     970:	0000030f          	.insn	4, 0x030f
     974:	1711                	.insn	2, 0x1711
     976:	0000                	.insn	2, 0x
     978:	1700                	.insn	2, 0x1700
     97a:	0000                	.insn	2, 0x
     97c:	1100                	.insn	2, 0x1100
     97e:	01ca                	.insn	2, 0x01ca
     980:	0000                	.insn	2, 0x
     982:	01ca                	.insn	2, 0x01ca
     984:	0000                	.insn	2, 0x
     986:	c700                	.insn	2, 0xc700
     988:	0009                	.insn	2, 0x0009
     98a:	0500                	.insn	2, 0x0500
     98c:	0100                	.insn	2, 0x0100
     98e:	de04                	.insn	2, 0xde04
     990:	0001                	.insn	2, 0x0001
     992:	1500                	.insn	2, 0x1500
     994:	0000009b          	.insn	4, 0x009b
     998:	001d                	.insn	2, 0x001d
     99a:	0000                	.insn	2, 0x
     99c:	2100                	.insn	2, 0x2100
     99e:	0000                	.insn	2, 0x
     9a0:	ac00                	.insn	2, 0xac00
     9a2:	0029                	.insn	2, 0x0029
     9a4:	8400                	.insn	2, 0x8400
     9a6:	0005                	.insn	2, 0x0005
     9a8:	9c00                	.insn	2, 0x9c00
     9aa:	000a                	.insn	2, 0x000a
     9ac:	0500                	.insn	2, 0x0500
     9ae:	0704                	.insn	2, 0x0704
     9b0:	006e                	.insn	2, 0x006e
     9b2:	0000                	.insn	2, 0x
     9b4:	0805                	.insn	2, 0x0805
     9b6:	00006407          	.insn	4, 0x6407
     9ba:	1600                	.insn	2, 0x1600
     9bc:	0504                	.insn	2, 0x0504
     9be:	6e69                	.insn	2, 0x6e69
     9c0:	0074                	.insn	2, 0x0074
     9c2:	0805                	.insn	2, 0x0805
     9c4:	5605                	.insn	2, 0x5605
     9c6:	0000                	.insn	2, 0x
     9c8:	0500                	.insn	2, 0x0500
     9ca:	0410                	.insn	2, 0x0410
     9cc:	00000203          	lb	tp,0(zero) # 0 <MEM_START-0x1000>
     9d0:	0105                	.insn	2, 0x0105
     9d2:	7506                	.insn	2, 0x7506
     9d4:	0001                	.insn	2, 0x0001
     9d6:	0500                	.insn	2, 0x0500
     9d8:	0801                	.insn	2, 0x0801
     9da:	00000173          	.insn	4, 0x0173
     9de:	0205                	.insn	2, 0x0205
     9e0:	2005                	.insn	2, 0x2005
     9e2:	0000                	.insn	2, 0x
     9e4:	0500                	.insn	2, 0x0500
     9e6:	0702                	.insn	2, 0x0702
     9e8:	019d                	.insn	2, 0x019d
     9ea:	0000                	.insn	2, 0x
     9ec:	0405                	.insn	2, 0x0405
     9ee:	5b05                	.insn	2, 0x5b05
     9f0:	0000                	.insn	2, 0x
     9f2:	0500                	.insn	2, 0x0500
     9f4:	0704                	.insn	2, 0x0704
     9f6:	0069                	.insn	2, 0x0069
     9f8:	0000                	.insn	2, 0x
     9fa:	0105                	.insn	2, 0x0105
     9fc:	7c08                	.insn	2, 0x7c08
     9fe:	0001                	.insn	2, 0x0001
     a00:	0500                	.insn	2, 0x0500
     a02:	0201                	.insn	2, 0x0201
     a04:	01d4                	.insn	2, 0x01d4
     a06:	0000                	.insn	2, 0x
     a08:	950a                	.insn	2, 0x950a
     a0a:	0001                	.insn	2, 0x0001
     a0c:	7e00                	.insn	2, 0x7e00
     a0e:	5016                	.insn	2, 0x5016
     a10:	0000                	.insn	2, 0x
     a12:	0d00                	.insn	2, 0x0d00
     a14:	0081                	.insn	2, 0x0081
     a16:	0000                	.insn	2, 0x
     a18:	b90a                	.insn	2, 0xb90a
     a1a:	0001                	.insn	2, 0x0001
     a1c:	8300                	.insn	2, 0x8300
     a1e:	0000340f          	.insn	4, 0x340f
     a22:	0a00                	.insn	2, 0x0a00
     a24:	01b8                	.insn	2, 0x01b8
     a26:	0000                	.insn	2, 0x
     a28:	1684                	.insn	2, 0x1684
     a2a:	0026                	.insn	2, 0x0026
     a2c:	0000                	.insn	2, 0x
     a2e:	b10a                	.insn	2, 0xb10a
     a30:	0001                	.insn	2, 0x0001
     a32:	8700                	.insn	2, 0x8700
     a34:	00003b0f          	.insn	4, 0x3b0f
     a38:	0a00                	.insn	2, 0x0a00
     a3a:	01b0                	.insn	2, 0x01b0
     a3c:	0000                	.insn	2, 0x
     a3e:	1688                	.insn	2, 0x1688
     a40:	002d                	.insn	2, 0x002d
     a42:	0000                	.insn	2, 0x
     a44:	0205                	.insn	2, 0x0205
     a46:	9204                	.insn	2, 0x9204
     a48:	0000                	.insn	2, 0x
     a4a:	0500                	.insn	2, 0x0500
     a4c:	0304                	.insn	2, 0x0304
     a4e:	008a                	.insn	2, 0x008a
     a50:	0000                	.insn	2, 0x
     a52:	0405                	.insn	2, 0x0405
     a54:	1104                	.insn	2, 0x1104
     a56:	0000                	.insn	2, 0x
     a58:	0500                	.insn	2, 0x0500
     a5a:	0308                	.insn	2, 0x0308
     a5c:	0009                	.insn	2, 0x0009
     a5e:	0000                	.insn	2, 0x
     a60:	0805                	.insn	2, 0x0805
     a62:	0804                	.insn	2, 0x0804
     a64:	0002                	.insn	2, 0x0002
     a66:	0500                	.insn	2, 0x0500
     a68:	0310                	.insn	2, 0x0310
     a6a:	01da                	.insn	2, 0x01da
     a6c:	0000                	.insn	2, 0x
     a6e:	2005                	.insn	2, 0x2005
     a70:	0001fb03          	.insn	4, 0x0001fb03
     a74:	1700                	.insn	2, 0x1700
     a76:	0000                	.insn	2, 0x
     a78:	0000                	.insn	2, 0x
     a7a:	0208                	.insn	2, 0x0208
     a7c:	0205                	.insn	2, 0x0205
     a7e:	190a                	.insn	2, 0x190a
     a80:	0001                	.insn	2, 0x0001
     a82:	1800                	.insn	2, 0x1800
     a84:	6f6c                	.insn	2, 0x6f6c
     a86:	05020077          	.insn	4, 0x05020077
     a8a:	1a02                	.insn	2, 0x1a02
     a8c:	0091                	.insn	2, 0x0091
     a8e:	0000                	.insn	2, 0x
     a90:	1900                	.insn	2, 0x1900
     a92:	0000007b          	.insn	4, 0x007b
     a96:	0502                	.insn	2, 0x0502
     a98:	1f02                	.insn	2, 0x1f02
     a9a:	0091                	.insn	2, 0x0091
     a9c:	0000                	.insn	2, 0x
     a9e:	0004                	.insn	2, 0x0004
     aa0:	081a                	.insn	2, 0x081a
     aa2:	0c02                	.insn	2, 0x0c02
     aa4:	0902                	.insn	2, 0x0902
     aa6:	0139                	.insn	2, 0x0139
     aa8:	0000                	.insn	2, 0x
     aaa:	7312                	.insn	2, 0x7312
     aac:	0e00                	.insn	2, 0x0e00
     aae:	1302                	.insn	2, 0x1302
     ab0:	00ee                	.insn	2, 0x00ee
     ab2:	0000                	.insn	2, 0x
     ab4:	6c12                	.insn	2, 0x6c12
     ab6:	006c                	.insn	2, 0x006c
     ab8:	a70a020f          	.insn	4, 0xa70a020f
     abc:	0000                	.insn	2, 0x
     abe:	0000                	.insn	2, 0x
     ac0:	00002a1b          	.insn	4, 0x2a1b
     ac4:	0200                	.insn	2, 0x0200
     ac6:	0210                	.insn	2, 0x0210
     ac8:	00011903          	lh	s2,0(sp)
     acc:	0d00                	.insn	2, 0x0d00
     ace:	0139                	.insn	2, 0x0139
     ad0:	0000                	.insn	2, 0x
     ad2:	8c1c                	.insn	2, 0x8c1c
     ad4:	0000                	.insn	2, 0x
     ad6:	5b00                	.insn	2, 0x5b00
     ad8:	0001                	.insn	2, 0x0001
     ada:	1d00                	.insn	2, 0x1d00
     adc:	0026                	.insn	2, 0x0026
     ade:	0000                	.insn	2, 0x
     ae0:	00ff 4b0d 0001 1e00 	.insn	10, 0x00801e0000014b0d00ff
     ae8:	0080 
     aea:	0000                	.insn	2, 0x
     aec:	1a02                	.insn	2, 0x1a02
     aee:	1602                	.insn	2, 0x1602
     af0:	0000015b          	.insn	4, 0x015b
     af4:	281f 0002 0100      	.insn	6, 0x01000002281f
     afa:	a70104d3          	.insn	4, 0xa70104d3
     afe:	0000                	.insn	2, 0x
     b00:	ac00                	.insn	2, 0xac00
     b02:	0029                	.insn	2, 0x0029
     b04:	8400                	.insn	2, 0x8400
     b06:	0005                	.insn	2, 0x0005
     b08:	0100                	.insn	2, 0x0100
     b0a:	099c                	.insn	2, 0x099c
     b0c:	0006                	.insn	2, 0x0006
     b0e:	1300                	.insn	2, 0x1300
     b10:	0075                	.insn	2, 0x0075
     b12:	a712                	.insn	2, 0xa712
     b14:	0000                	.insn	2, 0x
     b16:	2000                	.insn	2, 0x2000
     b18:	0006                	.insn	2, 0x0006
     b1a:	1300                	.insn	2, 0x1300
     b1c:	0076                	.insn	2, 0x0076
     b1e:	a71c                	.insn	2, 0xa71c
     b20:	0000                	.insn	2, 0x
     b22:	3600                	.insn	2, 0x3600
     b24:	0006                	.insn	2, 0x0006
     b26:	0c00                	.insn	2, 0x0c00
     b28:	04d50063          	beq	a0,a3,b68 <MEM_START-0x498>
     b2c:	9109                	.insn	2, 0x9109
     b2e:	0000                	.insn	2, 0x
     b30:	4c00                	.insn	2, 0x4c00
     b32:	0006                	.insn	2, 0x0006
     b34:	0c00                	.insn	2, 0x0c00
     b36:	7575                	.insn	2, 0x7575
     b38:	d600                	.insn	2, 0xd600
     b3a:	0b04                	.insn	2, 0x0b04
     b3c:	0139                	.insn	2, 0x0139
     b3e:	0000                	.insn	2, 0x
     b40:	00000667          	jalr	a2,zero # 0 <MEM_START-0x1000>
     b44:	760c                	.insn	2, 0x760c
     b46:	0076                	.insn	2, 0x0076
     b48:	390b04d7          	.insn	4, 0x390b04d7
     b4c:	0001                	.insn	2, 0x0001
     b4e:	7200                	.insn	2, 0x7200
     b50:	0006                	.insn	2, 0x0006
     b52:	0c00                	.insn	2, 0x0c00
     b54:	04d80077          	.insn	4, 0x04d80077
     b58:	a70a                	.insn	2, 0xa70a
     b5a:	0000                	.insn	2, 0x
     b5c:	c400                	.insn	2, 0xc400
     b5e:	0006                	.insn	2, 0x0006
     b60:	2000                	.insn	2, 0x2000
     b62:	0609                	.insn	2, 0x0609
     b64:	0000                	.insn	2, 0x
     b66:	2a14                	.insn	2, 0x2a14
     b68:	0000                	.insn	2, 0x
     b6a:	00ac                	.insn	2, 0x00ac
     b6c:	0000                	.insn	2, 0x
     b6e:	e001                	.insn	2, 0xe001
     b70:	0a04                	.insn	2, 0x0a04
     b72:	1b21                	.insn	2, 0x1b21
     b74:	0006                	.insn	2, 0x0006
     b76:	1400                	.insn	2, 0x1400
     b78:	00000623          	sb	zero,12(zero) # c <MEM_START-0xff4>
     b7c:	06d1                	.insn	2, 0x06d1
     b7e:	0000                	.insn	2, 0x
     b80:	2b14                	.insn	2, 0x2b14
     b82:	0006                	.insn	2, 0x0006
     b84:	1900                	.insn	2, 0x1900
     b86:	22000007          	.insn	4, 0x22000007
     b8a:	00ac                	.insn	2, 0x00ac
     b8c:	0000                	.insn	2, 0x
     b8e:	0006340b          	.insn	4, 0x0006340b
     b92:	0b00                	.insn	2, 0x0b00
     b94:	0000063f 00064a0b 	.insn	8, 0x00064a0b0000063f
     b9c:	0100                	.insn	2, 0x0100
     b9e:	0655                	.insn	2, 0x0655
     ba0:	0000                	.insn	2, 0x
     ba2:	0731                	.insn	2, 0x0731
     ba4:	0000                	.insn	2, 0x
     ba6:	6001                	.insn	2, 0x6001
     ba8:	0006                	.insn	2, 0x0006
     baa:	5b00                	.insn	2, 0x5b00
     bac:	01000007          	.insn	4, 0x01000007
     bb0:	0000066b          	.insn	4, 0x066b
     bb4:	078c                	.insn	2, 0x078c
     bb6:	0000                	.insn	2, 0x
     bb8:	7601                	.insn	2, 0x7601
     bba:	0006                	.insn	2, 0x0006
     bbc:	d000                	.insn	2, 0xd000
     bbe:	01000007          	.insn	4, 0x01000007
     bc2:	0681                	.insn	2, 0x0681
     bc4:	0000                	.insn	2, 0x
     bc6:	080a                	.insn	2, 0x080a
     bc8:	0000                	.insn	2, 0x
     bca:	8c01                	.insn	2, 0x8c01
     bcc:	0006                	.insn	2, 0x0006
     bce:	2000                	.insn	2, 0x2000
     bd0:	0008                	.insn	2, 0x0008
     bd2:	0100                	.insn	2, 0x0100
     bd4:	00000697          	auipc	a3,0x0
     bd8:	0829                	.insn	2, 0x0829
     bda:	0000                	.insn	2, 0x
     bdc:	a201                	.insn	2, 0xa201
     bde:	0006                	.insn	2, 0x0006
     be0:	3a00                	.insn	2, 0x3a00
     be2:	0008                	.insn	2, 0x0008
     be4:	0100                	.insn	2, 0x0100
     be6:	06ac                	.insn	2, 0x06ac
     be8:	0000                	.insn	2, 0x
     bea:	0849                	.insn	2, 0x0849
     bec:	0000                	.insn	2, 0x
     bee:	0006b70b          	.insn	4, 0x0006b70b
     bf2:	0800                	.insn	2, 0x0800
     bf4:	06c2                	.insn	2, 0x06c2
     bf6:	0000                	.insn	2, 0x
     bf8:	00b6                	.insn	2, 0x00b6
     bfa:	0000                	.insn	2, 0x
     bfc:	028c                	.insn	2, 0x028c
     bfe:	0000                	.insn	2, 0x
     c00:	c701                	.insn	2, 0xc701
     c02:	0006                	.insn	2, 0x0006
     c04:	6600                	.insn	2, 0x6600
     c06:	0008                	.insn	2, 0x0008
     c08:	0100                	.insn	2, 0x0100
     c0a:	000006d3          	.insn	4, 0x06d3
     c0e:	0875                	.insn	2, 0x0875
     c10:	0000                	.insn	2, 0x
     c12:	0900                	.insn	2, 0x0900
     c14:	06e0                	.insn	2, 0x06e0
     c16:	0000                	.insn	2, 0x
     c18:	2a74                	.insn	2, 0x2a74
     c1a:	0000                	.insn	2, 0x
     c1c:	0070                	.insn	2, 0x0070
     c1e:	0000                	.insn	2, 0x
     c20:	0306                	.insn	2, 0x0306
     c22:	0000                	.insn	2, 0x
     c24:	e501                	.insn	2, 0xe501
     c26:	0006                	.insn	2, 0x0006
     c28:	7d00                	.insn	2, 0x7d00
     c2a:	0008                	.insn	2, 0x0008
     c2c:	0100                	.insn	2, 0x0100
     c2e:	06f1                	.insn	2, 0x06f1
     c30:	0000                	.insn	2, 0x
     c32:	0885                	.insn	2, 0x0885
     c34:	0000                	.insn	2, 0x
     c36:	0006fd0b          	.insn	4, 0x0006fd0b
     c3a:	0100                	.insn	2, 0x0100
     c3c:	0709                	.insn	2, 0x0709
     c3e:	0000                	.insn	2, 0x
     c40:	089a                	.insn	2, 0x089a
     c42:	0000                	.insn	2, 0x
     c44:	1501                	.insn	2, 0x1501
     c46:	ad000007          	.insn	4, 0xad000007
     c4a:	0008                	.insn	2, 0x0008
     c4c:	0100                	.insn	2, 0x0100
     c4e:	0721                	.insn	2, 0x0721
     c50:	0000                	.insn	2, 0x
     c52:	08bc                	.insn	2, 0x08bc
     c54:	0000                	.insn	2, 0x
     c56:	2d01                	.insn	2, 0x2d01
     c58:	c9000007          	.insn	4, 0xc9000007
     c5c:	0008                	.insn	2, 0x0008
     c5e:	0400                	.insn	2, 0x0400
     c60:	2a88                	.insn	2, 0x2a88
     c62:	0000                	.insn	2, 0x
     c64:	000009af          	.insn	4, 0x09af
     c68:	9404                	.insn	2, 0x9404
     c6a:	002a                	.insn	2, 0x002a
     c6c:	b800                	.insn	2, 0xb800
     c6e:	0009                	.insn	2, 0x0009
     c70:	0400                	.insn	2, 0x0400
     c72:	2aa4                	.insn	2, 0x2aa4
     c74:	0000                	.insn	2, 0x
     c76:	09c1                	.insn	2, 0x09c1
     c78:	0000                	.insn	2, 0x
     c7a:	d404                	.insn	2, 0xd404
     c7c:	002a                	.insn	2, 0x002a
     c7e:	af00                	.insn	2, 0xaf00
     c80:	0009                	.insn	2, 0x0009
     c82:	0400                	.insn	2, 0x0400
     c84:	2adc                	.insn	2, 0x2adc
     c86:	0000                	.insn	2, 0x
     c88:	09b8                	.insn	2, 0x09b8
     c8a:	0000                	.insn	2, 0x
     c8c:	0800                	.insn	2, 0x0800
     c8e:	07b2                	.insn	2, 0x07b2
     c90:	0000                	.insn	2, 0x
     c92:	00c1                	.insn	2, 0x00c1
     c94:	0000                	.insn	2, 0x
     c96:	0389                	.insn	2, 0x0389
     c98:	0000                	.insn	2, 0x
     c9a:	b701                	.insn	2, 0xb701
     c9c:	df000007          	.insn	4, 0xdf000007
     ca0:	0008                	.insn	2, 0x0008
     ca2:	0100                	.insn	2, 0x0100
     ca4:	000007c3          	.insn	4, 0x07c3
     ca8:	000008e7          	jalr	a7,zero # 0 <MEM_START-0x1000>
     cac:	cf01                	.insn	2, 0xcf01
     cae:	ef000007          	.insn	4, 0xef000007
     cb2:	0008                	.insn	2, 0x0008
     cb4:	0100                	.insn	2, 0x0100
     cb6:	000007db          	.insn	4, 0x07db
     cba:	092a                	.insn	2, 0x092a
     cbc:	0000                	.insn	2, 0x
     cbe:	e701                	.insn	2, 0xe701
     cc0:	3d000007          	.insn	4, 0x3d000007
     cc4:	0009                	.insn	2, 0x0009
     cc6:	0100                	.insn	2, 0x0100
     cc8:	000007f3          	.insn	4, 0x07f3
     ccc:	0958                	.insn	2, 0x0958
     cce:	0000                	.insn	2, 0x
     cd0:	ff01                	.insn	2, 0xff01
     cd2:	6c000007          	.insn	4, 0x6c000007
     cd6:	0009                	.insn	2, 0x0009
     cd8:	0400                	.insn	2, 0x0400
     cda:	2aec                	.insn	2, 0x2aec
     cdc:	0000                	.insn	2, 0x
     cde:	09c1                	.insn	2, 0x09c1
     ce0:	0000                	.insn	2, 0x
     ce2:	8804                	.insn	2, 0x8804
     ce4:	002c                	.insn	2, 0x002c
     ce6:	af00                	.insn	2, 0xaf00
     ce8:	0009                	.insn	2, 0x0009
     cea:	0400                	.insn	2, 0x0400
     cec:	2c94                	.insn	2, 0x2c94
     cee:	0000                	.insn	2, 0x
     cf0:	09b8                	.insn	2, 0x09b8
     cf2:	0000                	.insn	2, 0x
     cf4:	a404                	.insn	2, 0xa404
     cf6:	002c                	.insn	2, 0x002c
     cf8:	c100                	.insn	2, 0xc100
     cfa:	0009                	.insn	2, 0x0009
     cfc:	0400                	.insn	2, 0x0400
     cfe:	2cd4                	.insn	2, 0x2cd4
     d00:	0000                	.insn	2, 0x
     d02:	000009af          	.insn	4, 0x09af
     d06:	dc04                	.insn	2, 0xdc04
     d08:	002c                	.insn	2, 0x002c
     d0a:	b800                	.insn	2, 0xb800
     d0c:	0009                	.insn	2, 0x0009
     d0e:	0000                	.insn	2, 0x
     d10:	3a08                	.insn	2, 0x3a08
     d12:	cc000007          	.insn	4, 0xcc000007
     d16:	0000                	.insn	2, 0x
     d18:	a900                	.insn	2, 0xa900
     d1a:	01000003          	lb	zero,16(zero) # 10 <MEM_START-0xff0>
     d1e:	0000073f 00000982 	.insn	8, 0x09820000073f
     d26:	4b01                	.insn	2, 0x4b01
     d28:	91000007          	.insn	4, 0x91000007
     d2c:	0009                	.insn	2, 0x0009
     d2e:	0000                	.insn	2, 0x
     d30:	5808                	.insn	2, 0x5808
     d32:	e1000007          	.insn	4, 0xe1000007
     d36:	0000                	.insn	2, 0x
     d38:	2c00                	.insn	2, 0x2c00
     d3a:	0004                	.insn	2, 0x0004
     d3c:	0100                	.insn	2, 0x0100
     d3e:	075d                	.insn	2, 0x075d
     d40:	0000                	.insn	2, 0x
     d42:	0999                	.insn	2, 0x0999
     d44:	0000                	.insn	2, 0x
     d46:	6901                	.insn	2, 0x6901
     d48:	a1000007          	.insn	4, 0xa1000007
     d4c:	0009                	.insn	2, 0x0009
     d4e:	0100                	.insn	2, 0x0100
     d50:	0775                	.insn	2, 0x0775
     d52:	0000                	.insn	2, 0x
     d54:	09b6                	.insn	2, 0x09b6
     d56:	0000                	.insn	2, 0x
     d58:	8101                	.insn	2, 0x8101
     d5a:	f1000007          	.insn	4, 0xf1000007
     d5e:	0009                	.insn	2, 0x0009
     d60:	0100                	.insn	2, 0x0100
     d62:	078d                	.insn	2, 0x078d
     d64:	0000                	.insn	2, 0x
     d66:	0a2c                	.insn	2, 0x0a2c
     d68:	0000                	.insn	2, 0x
     d6a:	9901                	.insn	2, 0x9901
     d6c:	47000007          	.insn	4, 0x47000007
     d70:	000a                	.insn	2, 0x000a
     d72:	0100                	.insn	2, 0x0100
     d74:	07a5                	.insn	2, 0x07a5
     d76:	0000                	.insn	2, 0x
     d78:	00000a5b          	.insn	4, 0x0a5b
     d7c:	e804                	.insn	2, 0xe804
     d7e:	af00002b          	.insn	4, 0xaf00002b
     d82:	0009                	.insn	2, 0x0009
     d84:	0400                	.insn	2, 0x0400
     d86:	2bf4                	.insn	2, 0x2bf4
     d88:	0000                	.insn	2, 0x
     d8a:	09b8                	.insn	2, 0x09b8
     d8c:	0000                	.insn	2, 0x
     d8e:	0404                	.insn	2, 0x0404
     d90:	002c                	.insn	2, 0x002c
     d92:	c100                	.insn	2, 0xc100
     d94:	0009                	.insn	2, 0x0009
     d96:	0400                	.insn	2, 0x0400
     d98:	2c34                	.insn	2, 0x2c34
     d9a:	0000                	.insn	2, 0x
     d9c:	000009af          	.insn	4, 0x09af
     da0:	3c04                	.insn	2, 0x3c04
     da2:	002c                	.insn	2, 0x002c
     da4:	b800                	.insn	2, 0xb800
     da6:	0009                	.insn	2, 0x0009
     da8:	0400                	.insn	2, 0x0400
     daa:	2c4c                	.insn	2, 0x2c4c
     dac:	0000                	.insn	2, 0x
     dae:	09c1                	.insn	2, 0x09c1
     db0:	0000                	.insn	2, 0x
     db2:	0800                	.insn	2, 0x0800
     db4:	080c                	.insn	2, 0x080c
     db6:	0000                	.insn	2, 0x
     db8:	00ec                	.insn	2, 0x00ec
     dba:	0000                	.insn	2, 0x
     dbc:	044c                	.insn	2, 0x044c
     dbe:	0000                	.insn	2, 0x
     dc0:	1101                	.insn	2, 0x1101
     dc2:	0008                	.insn	2, 0x0008
     dc4:	7800                	.insn	2, 0x7800
     dc6:	000a                	.insn	2, 0x000a
     dc8:	0100                	.insn	2, 0x0100
     dca:	081d                	.insn	2, 0x081d
     dcc:	0000                	.insn	2, 0x
     dce:	00000a87          	.insn	4, 0x0a87
     dd2:	0900                	.insn	2, 0x0900
     dd4:	082a                	.insn	2, 0x082a
     dd6:	0000                	.insn	2, 0x
     dd8:	2d40                	.insn	2, 0x2d40
     dda:	0000                	.insn	2, 0x
     ddc:	0014                	.insn	2, 0x0014
     dde:	0000                	.insn	2, 0x
     de0:	00000467          	jalr	s0,zero # 0 <MEM_START-0x1000>
     de4:	2f01                	.insn	2, 0x2f01
     de6:	0008                	.insn	2, 0x0008
     de8:	8f00                	.insn	2, 0x8f00
     dea:	000a                	.insn	2, 0x000a
     dec:	0000                	.insn	2, 0x
     dee:	3c0e                	.insn	2, 0x3c0e
     df0:	0008                	.insn	2, 0x0008
     df2:	7400                	.insn	2, 0x7400
     df4:	002d                	.insn	2, 0x002d
     df6:	bc00                	.insn	2, 0xbc00
     df8:	0001                	.insn	2, 0x0001
     dfa:	0700                	.insn	2, 0x0700
     dfc:	083d                	.insn	2, 0x083d
     dfe:	0000                	.insn	2, 0x
     e00:	5f01                	.insn	2, 0x5f01
     e02:	4801                	.insn	2, 0x4801
     e04:	0008                	.insn	2, 0x0008
     e06:	9700                	.insn	2, 0x9700
     e08:	000a                	.insn	2, 0x000a
     e0a:	0800                	.insn	2, 0x0800
     e0c:	00000853          	.insn	4, 0x0853
     e10:	000000f7          	.insn	4, 0x00f7
     e14:	00000507          	.insn	4, 0x0507
     e18:	5801                	.insn	2, 0x5801
     e1a:	0008                	.insn	2, 0x0008
     e1c:	a600                	.insn	2, 0xa600
     e1e:	000a                	.insn	2, 0x000a
     e20:	0100                	.insn	2, 0x0100
     e22:	0864                	.insn	2, 0x0864
     e24:	0000                	.insn	2, 0x
     e26:	0ab5                	.insn	2, 0x0ab5
     e28:	0000                	.insn	2, 0x
     e2a:	7001                	.insn	2, 0x7001
     e2c:	0008                	.insn	2, 0x0008
     e2e:	ca00                	.insn	2, 0xca00
     e30:	000a                	.insn	2, 0x000a
     e32:	0100                	.insn	2, 0x0100
     e34:	087c                	.insn	2, 0x087c
     e36:	0000                	.insn	2, 0x
     e38:	00000ae7          	jalr	s5,zero # 0 <MEM_START-0x1000>
     e3c:	8801                	.insn	2, 0x8801
     e3e:	0008                	.insn	2, 0x0008
     e40:	0400                	.insn	2, 0x0400
     e42:	0100000b          	.insn	4, 0x0100000b
     e46:	0894                	.insn	2, 0x0894
     e48:	0000                	.insn	2, 0x
     e4a:	0b40                	.insn	2, 0x0b40
     e4c:	0000                	.insn	2, 0x
     e4e:	a001                	.insn	2, 0xa001
     e50:	0008                	.insn	2, 0x0008
     e52:	7200                	.insn	2, 0x7200
     e54:	0400000b          	.insn	4, 0x0400000b
     e58:	2db0                	.insn	2, 0x2db0
     e5a:	0000                	.insn	2, 0x
     e5c:	000009af          	.insn	4, 0x09af
     e60:	c004                	.insn	2, 0xc004
     e62:	002d                	.insn	2, 0x002d
     e64:	b800                	.insn	2, 0xb800
     e66:	0009                	.insn	2, 0x0009
     e68:	0400                	.insn	2, 0x0400
     e6a:	2dd0                	.insn	2, 0x2dd0
     e6c:	0000                	.insn	2, 0x
     e6e:	09c1                	.insn	2, 0x09c1
     e70:	0000                	.insn	2, 0x
     e72:	0c04                	.insn	2, 0x0c04
     e74:	002e                	.insn	2, 0x002e
     e76:	af00                	.insn	2, 0xaf00
     e78:	0009                	.insn	2, 0x0009
     e7a:	0400                	.insn	2, 0x0400
     e7c:	2e1c                	.insn	2, 0x2e1c
     e7e:	0000                	.insn	2, 0x
     e80:	09b8                	.insn	2, 0x09b8
     e82:	0000                	.insn	2, 0x
     e84:	2c04                	.insn	2, 0x2c04
     e86:	002e                	.insn	2, 0x002e
     e88:	c100                	.insn	2, 0xc100
     e8a:	0009                	.insn	2, 0x0009
     e8c:	0000                	.insn	2, 0x
     e8e:	ad08                	.insn	2, 0xad08
     e90:	0008                	.insn	2, 0x0008
     e92:	0c00                	.insn	2, 0x0c00
     e94:	0001                	.insn	2, 0x0001
     e96:	d300                	.insn	2, 0xd300
     e98:	0005                	.insn	2, 0x0005
     e9a:	0100                	.insn	2, 0x0100
     e9c:	08b2                	.insn	2, 0x08b2
     e9e:	0000                	.insn	2, 0x
     ea0:	00000b8f          	.insn	4, 0x0b8f
     ea4:	be01                	.insn	2, 0xbe01
     ea6:	0008                	.insn	2, 0x0008
     ea8:	9e00                	.insn	2, 0x9e00
     eaa:	0100000b          	.insn	4, 0x0100000b
     eae:	08ca                	.insn	2, 0x08ca
     eb0:	0000                	.insn	2, 0x
     eb2:	00000bbb          	.insn	4, 0x0bbb
     eb6:	d601                	.insn	2, 0xd601
     eb8:	0008                	.insn	2, 0x0008
     eba:	ca00                	.insn	2, 0xca00
     ebc:	0100000b          	.insn	4, 0x0100000b
     ec0:	08e2                	.insn	2, 0x08e2
     ec2:	0000                	.insn	2, 0x
     ec4:	0bd2                	.insn	2, 0x0bd2
     ec6:	0000                	.insn	2, 0x
     ec8:	0008ee07          	.insn	4, 0x0008ee07
     ecc:	0100                	.insn	2, 0x0100
     ece:	0756                	.insn	2, 0x0756
     ed0:	08fa                	.insn	2, 0x08fa
     ed2:	0000                	.insn	2, 0x
     ed4:	6901                	.insn	2, 0x6901
     ed6:	00090607          	.insn	4, 0x00090607
     eda:	0100                	.insn	2, 0x0100
     edc:	0961                	.insn	2, 0x0961
     ede:	0912                	.insn	2, 0x0912
     ee0:	0000                	.insn	2, 0x
     ee2:	2e80                	.insn	2, 0x2e80
     ee4:	0000                	.insn	2, 0x
     ee6:	0010                	.insn	2, 0x0010
     ee8:	0000                	.insn	2, 0x
     eea:	0576                	.insn	2, 0x0576
     eec:	0000                	.insn	2, 0x
     eee:	00091707          	.insn	4, 0x00091707
     ef2:	0100                	.insn	2, 0x0100
     ef4:	075a                	.insn	2, 0x075a
     ef6:	00000923          	sb	zero,18(zero) # 12 <MEM_START-0xfee>
     efa:	5b01                	.insn	2, 0x5b01
     efc:	0900                	.insn	2, 0x0900
     efe:	0930                	.insn	2, 0x0930
     f00:	0000                	.insn	2, 0x
     f02:	2e90                	.insn	2, 0x2e90
     f04:	0000                	.insn	2, 0x
     f06:	0010                	.insn	2, 0x0010
     f08:	0000                	.insn	2, 0x
     f0a:	0596                	.insn	2, 0x0596
     f0c:	0000                	.insn	2, 0x
     f0e:	00093507          	.insn	4, 0x00093507
     f12:	0100                	.insn	2, 0x0100
     f14:	075a                	.insn	2, 0x075a
     f16:	0941                	.insn	2, 0x0941
     f18:	0000                	.insn	2, 0x
     f1a:	5b01                	.insn	2, 0x5b01
     f1c:	0900                	.insn	2, 0x0900
     f1e:	094e                	.insn	2, 0x094e
     f20:	0000                	.insn	2, 0x
     f22:	2ea0                	.insn	2, 0x2ea0
     f24:	0000                	.insn	2, 0x
     f26:	0010                	.insn	2, 0x0010
     f28:	0000                	.insn	2, 0x
     f2a:	05b6                	.insn	2, 0x05b6
     f2c:	0000                	.insn	2, 0x
     f2e:	00095307          	.insn	4, 0x00095307
     f32:	0100                	.insn	2, 0x0100
     f34:	075a                	.insn	2, 0x075a
     f36:	095f 0000 5b01      	.insn	6, 0x5b010000095f
     f3c:	0e00                	.insn	2, 0x0e00
     f3e:	096c                	.insn	2, 0x096c
     f40:	0000                	.insn	2, 0x
     f42:	2eb0                	.insn	2, 0x2eb0
     f44:	0000                	.insn	2, 0x
     f46:	000c                	.insn	2, 0x000c
     f48:	0000                	.insn	2, 0x
     f4a:	00096d07          	.insn	4, 0x00096d07
     f4e:	0100                	.insn	2, 0x0100
     f50:	075a                	.insn	2, 0x075a
     f52:	0979                	.insn	2, 0x0979
     f54:	0000                	.insn	2, 0x
     f56:	5b01                	.insn	2, 0x5b01
     f58:	0000                	.insn	2, 0x
     f5a:	8709                	.insn	2, 0x8709
     f5c:	0009                	.insn	2, 0x0009
     f5e:	f800                	.insn	2, 0xf800
     f60:	002e                	.insn	2, 0x002e
     f62:	1400                	.insn	2, 0x1400
     f64:	0000                	.insn	2, 0x
     f66:	ee00                	.insn	2, 0xee00
     f68:	0005                	.insn	2, 0x0005
     f6a:	0100                	.insn	2, 0x0100
     f6c:	098c                	.insn	2, 0x098c
     f6e:	0000                	.insn	2, 0x
     f70:	0bda                	.insn	2, 0x0bda
     f72:	0000                	.insn	2, 0x
     f74:	0e00                	.insn	2, 0x0e00
     f76:	0999                	.insn	2, 0x0999
     f78:	0000                	.insn	2, 0x
     f7a:	2f0c                	.insn	2, 0x2f0c
     f7c:	0000                	.insn	2, 0x
     f7e:	0010                	.insn	2, 0x0010
     f80:	0000                	.insn	2, 0x
     f82:	9a01                	.insn	2, 0x9a01
     f84:	0009                	.insn	2, 0x0009
     f86:	e200                	.insn	2, 0xe200
     f88:	0000000b          	.insn	4, 0x000b
     f8c:	0000                	.insn	2, 0x
     f8e:	0000                	.insn	2, 0x
     f90:	0001ee23          	.insn	4, 0x0001ee23
     f94:	0100                	.insn	2, 0x0100
     f96:	b20103e3          	beqz	sp,abc <MEM_START-0x544>
     f9a:	0000                	.insn	2, 0x
     f9c:	0300                	.insn	2, 0x0300
     f9e:	09a9                	.insn	2, 0x09a9
     fa0:	0000                	.insn	2, 0x
     fa2:	17006e0f          	.insn	4, 0x17006e0f
     fa6:	00b2                	.insn	2, 0x00b2
     fa8:	0000                	.insn	2, 0x
     faa:	2200640f          	.insn	4, 0x2200640f
     fae:	00b2                	.insn	2, 0x00b2
     fb0:	0000                	.insn	2, 0x
     fb2:	0070720f          	.insn	4, 0x0070720f
     fb6:	a92e                	.insn	2, 0xa92e
     fb8:	0009                	.insn	2, 0x0009
     fba:	0300                	.insn	2, 0x0300
     fbc:	6e6e                	.insn	2, 0x6e6e
     fbe:	e500                	.insn	2, 0xe500
     fc0:	01461103          	lh	sp,20(a2)
     fc4:	0000                	.insn	2, 0x
     fc6:	00646403          	.insn	4, 0x00646403
     fca:	03e6                	.insn	2, 0x03e6
     fcc:	4611                	.insn	2, 0x4611
     fce:	0001                	.insn	2, 0x0001
     fd0:	0300                	.insn	2, 0x0300
     fd2:	7272                	.insn	2, 0x7272
     fd4:	e700                	.insn	2, 0xe700
     fd6:	01390b03          	lb	s6,19(s2)
     fda:	0000                	.insn	2, 0x
     fdc:	00306403          	.insn	4, 0x00306403
     fe0:	03e8                	.insn	2, 0x03e8
     fe2:	9c0a                	.insn	2, 0x9c0a
     fe4:	0000                	.insn	2, 0x
     fe6:	0300                	.insn	2, 0x0300
     fe8:	3164                	.insn	2, 0x3164
     fea:	e800                	.insn	2, 0xe800
     fec:	009c0e03          	lb	t3,9(s8)
     ff0:	0000                	.insn	2, 0x
     ff2:	00306e03          	.insn	4, 0x00306e03
     ff6:	03e8                	.insn	2, 0x03e8
     ff8:	9c12                	.insn	2, 0x9c12
     ffa:	0000                	.insn	2, 0x
     ffc:	0300                	.insn	2, 0x0300
     ffe:	316e                	.insn	2, 0x316e
    1000:	e800                	.insn	2, 0xe800
    1002:	009c1603          	lh	a2,9(s8)
    1006:	0000                	.insn	2, 0x
    1008:	00326e03          	.insn	4, 0x00326e03
    100c:	03e8                	.insn	2, 0x03e8
    100e:	9c1a                	.insn	2, 0x9c1a
    1010:	0000                	.insn	2, 0x
    1012:	0300                	.insn	2, 0x0300
    1014:	3071                	.insn	2, 0x3071
    1016:	e900                	.insn	2, 0xe900
    1018:	009c0a03          	lb	s4,9(s8)
    101c:	0000                	.insn	2, 0x
    101e:	00317103          	.insn	4, 0x00317103
    1022:	03e9                	.insn	2, 0x03e9
    1024:	9c0e                	.insn	2, 0x9c0e
    1026:	0000                	.insn	2, 0x
    1028:	0300                	.insn	2, 0x0300
    102a:	0062                	.insn	2, 0x0062
    102c:	03ea                	.insn	2, 0x03ea
    102e:	9c0a                	.insn	2, 0x9c0a
    1030:	0000                	.insn	2, 0x
    1032:	0300                	.insn	2, 0x0300
    1034:	6d62                	.insn	2, 0x6d62
    1036:	ea00                	.insn	2, 0xea00
    1038:	009c0d03          	lb	s10,9(s8)
    103c:	0000                	.insn	2, 0x
    103e:	00777703          	.insn	4, 0x00777703
    1042:	461104b3          	.insn	4, 0x461104b3
    1046:	0001                	.insn	2, 0x0001
    1048:	0600                	.insn	2, 0x0600
    104a:	06e0                	.insn	2, 0x06e0
    104c:	0000                	.insn	2, 0x
    104e:	0f02                	.insn	2, 0x0f02
    1050:	0002                	.insn	2, 0x0002
    1052:	1a00                	.insn	2, 0x1a00
    1054:	0404                	.insn	2, 0x0404
    1056:	009c                	.insn	2, 0x009c
    1058:	0000                	.insn	2, 0x
    105a:	615f5f03          	lhu	t5,1557(t5)
    105e:	1a00                	.insn	2, 0x1a00
    1060:	0404                	.insn	2, 0x0404
    1062:	009c                	.insn	2, 0x009c
    1064:	0000                	.insn	2, 0x
    1066:	0600                	.insn	2, 0x0600
    1068:	073a                	.insn	2, 0x073a
    106a:	0000                	.insn	2, 0x
    106c:	3702                	.insn	2, 0x3702
    106e:	0000                	.insn	2, 0x
    1070:	2600                	.insn	2, 0x2600
    1072:	0404                	.insn	2, 0x0404
    1074:	009c                	.insn	2, 0x009c
    1076:	0000                	.insn	2, 0x
    1078:	3202                	.insn	2, 0x3202
    107a:	0000                	.insn	2, 0x
    107c:	2600                	.insn	2, 0x2600
    107e:	0404                	.insn	2, 0x0404
    1080:	009c                	.insn	2, 0x009c
    1082:	0000                	.insn	2, 0x
    1084:	c502                	.insn	2, 0xc502
    1086:	0001                	.insn	2, 0x0001
    1088:	2600                	.insn	2, 0x2600
    108a:	0404                	.insn	2, 0x0404
    108c:	009c                	.insn	2, 0x009c
    108e:	0000                	.insn	2, 0x
    1090:	c002                	.insn	2, 0xc002
    1092:	0001                	.insn	2, 0x0001
    1094:	2600                	.insn	2, 0x2600
    1096:	0404                	.insn	2, 0x0404
    1098:	009c                	.insn	2, 0x009c
    109a:	0000                	.insn	2, 0x
    109c:	1902                	.insn	2, 0x1902
    109e:	0002                	.insn	2, 0x0002
    10a0:	2600                	.insn	2, 0x2600
    10a2:	0404                	.insn	2, 0x0404
    10a4:	009c                	.insn	2, 0x009c
    10a6:	0000                	.insn	2, 0x
    10a8:	1402                	.insn	2, 0x1402
    10aa:	0002                	.insn	2, 0x0002
    10ac:	2600                	.insn	2, 0x2600
    10ae:	0404                	.insn	2, 0x0404
    10b0:	009c                	.insn	2, 0x009c
    10b2:	0000                	.insn	2, 0x
    10b4:	6d5f5f03          	lhu	t5,1749(t5)
    10b8:	2600                	.insn	2, 0x2600
    10ba:	0404                	.insn	2, 0x0404
    10bc:	009c                	.insn	2, 0x009c
    10be:	0000                	.insn	2, 0x
    10c0:	0600                	.insn	2, 0x0600
    10c2:	0758                	.insn	2, 0x0758
    10c4:	0000                	.insn	2, 0x
    10c6:	0f02                	.insn	2, 0x0f02
    10c8:	0002                	.insn	2, 0x0002
    10ca:	3200                	.insn	2, 0x3200
    10cc:	0404                	.insn	2, 0x0404
    10ce:	009c                	.insn	2, 0x009c
    10d0:	0000                	.insn	2, 0x
    10d2:	615f5f03          	lhu	t5,1557(t5)
    10d6:	3200                	.insn	2, 0x3200
    10d8:	0404                	.insn	2, 0x0404
    10da:	009c                	.insn	2, 0x009c
    10dc:	0000                	.insn	2, 0x
    10de:	0600                	.insn	2, 0x0600
    10e0:	07b2                	.insn	2, 0x07b2
    10e2:	0000                	.insn	2, 0x
    10e4:	3702                	.insn	2, 0x3702
    10e6:	0000                	.insn	2, 0x
    10e8:	4b00                	.insn	2, 0x4b00
    10ea:	0804                	.insn	2, 0x0804
    10ec:	009c                	.insn	2, 0x009c
    10ee:	0000                	.insn	2, 0x
    10f0:	3202                	.insn	2, 0x3202
    10f2:	0000                	.insn	2, 0x
    10f4:	4b00                	.insn	2, 0x4b00
    10f6:	0804                	.insn	2, 0x0804
    10f8:	009c                	.insn	2, 0x009c
    10fa:	0000                	.insn	2, 0x
    10fc:	c502                	.insn	2, 0xc502
    10fe:	0001                	.insn	2, 0x0001
    1100:	4b00                	.insn	2, 0x4b00
    1102:	0804                	.insn	2, 0x0804
    1104:	009c                	.insn	2, 0x009c
    1106:	0000                	.insn	2, 0x
    1108:	c002                	.insn	2, 0xc002
    110a:	0001                	.insn	2, 0x0001
    110c:	4b00                	.insn	2, 0x4b00
    110e:	0804                	.insn	2, 0x0804
    1110:	009c                	.insn	2, 0x009c
    1112:	0000                	.insn	2, 0x
    1114:	1902                	.insn	2, 0x1902
    1116:	0002                	.insn	2, 0x0002
    1118:	4b00                	.insn	2, 0x4b00
    111a:	0804                	.insn	2, 0x0804
    111c:	009c                	.insn	2, 0x009c
    111e:	0000                	.insn	2, 0x
    1120:	1402                	.insn	2, 0x1402
    1122:	0002                	.insn	2, 0x0002
    1124:	4b00                	.insn	2, 0x4b00
    1126:	0804                	.insn	2, 0x0804
    1128:	009c                	.insn	2, 0x009c
    112a:	0000                	.insn	2, 0x
    112c:	6d5f5f03          	lhu	t5,1749(t5)
    1130:	4b00                	.insn	2, 0x4b00
    1132:	0804                	.insn	2, 0x0804
    1134:	009c                	.insn	2, 0x009c
    1136:	0000                	.insn	2, 0x
    1138:	0600                	.insn	2, 0x0600
    113a:	080c                	.insn	2, 0x080c
    113c:	0000                	.insn	2, 0x
    113e:	3702                	.insn	2, 0x3702
    1140:	0000                	.insn	2, 0x
    1142:	5000                	.insn	2, 0x5000
    1144:	0404                	.insn	2, 0x0404
    1146:	009c                	.insn	2, 0x009c
    1148:	0000                	.insn	2, 0x
    114a:	3202                	.insn	2, 0x3202
    114c:	0000                	.insn	2, 0x
    114e:	5000                	.insn	2, 0x5000
    1150:	0404                	.insn	2, 0x0404
    1152:	009c                	.insn	2, 0x009c
    1154:	0000                	.insn	2, 0x
    1156:	c502                	.insn	2, 0xc502
    1158:	0001                	.insn	2, 0x0001
    115a:	5000                	.insn	2, 0x5000
    115c:	0404                	.insn	2, 0x0404
    115e:	009c                	.insn	2, 0x009c
    1160:	0000                	.insn	2, 0x
    1162:	c002                	.insn	2, 0xc002
    1164:	0001                	.insn	2, 0x0001
    1166:	5000                	.insn	2, 0x5000
    1168:	0404                	.insn	2, 0x0404
    116a:	009c                	.insn	2, 0x009c
    116c:	0000                	.insn	2, 0x
    116e:	1902                	.insn	2, 0x1902
    1170:	0002                	.insn	2, 0x0002
    1172:	5000                	.insn	2, 0x5000
    1174:	0404                	.insn	2, 0x0404
    1176:	009c                	.insn	2, 0x009c
    1178:	0000                	.insn	2, 0x
    117a:	1402                	.insn	2, 0x1402
    117c:	0002                	.insn	2, 0x0002
    117e:	5000                	.insn	2, 0x5000
    1180:	0404                	.insn	2, 0x0404
    1182:	009c                	.insn	2, 0x009c
    1184:	0000                	.insn	2, 0x
    1186:	6d5f5f03          	lhu	t5,1749(t5)
    118a:	5000                	.insn	2, 0x5000
    118c:	0404                	.insn	2, 0x0404
    118e:	009c                	.insn	2, 0x009c
    1190:	0000                	.insn	2, 0x
    1192:	0600                	.insn	2, 0x0600
    1194:	082a                	.insn	2, 0x082a
    1196:	0000                	.insn	2, 0x
    1198:	0f02                	.insn	2, 0x0f02
    119a:	0002                	.insn	2, 0x0002
    119c:	7300                	.insn	2, 0x7300
    119e:	0404                	.insn	2, 0x0404
    11a0:	009c                	.insn	2, 0x009c
    11a2:	0000                	.insn	2, 0x
    11a4:	615f5f03          	lhu	t5,1557(t5)
    11a8:	7300                	.insn	2, 0x7300
    11aa:	0404                	.insn	2, 0x0404
    11ac:	009c                	.insn	2, 0x009c
    11ae:	0000                	.insn	2, 0x
    11b0:	0600                	.insn	2, 0x0600
    11b2:	083c                	.insn	2, 0x083c
    11b4:	0000                	.insn	2, 0x
    11b6:	785f5f03          	lhu	t5,1925(t5)
    11ba:	8100                	.insn	2, 0x8100
    11bc:	0504                	.insn	2, 0x0504
    11be:	009c                	.insn	2, 0x009c
    11c0:	0000                	.insn	2, 0x
    11c2:	1000                	.insn	2, 0x1000
    11c4:	00316d03          	.insn	4, 0x00316d03
    11c8:	0491                	.insn	2, 0x0491
    11ca:	00009c0f          	.insn	4, 0x9c0f
    11ce:	0300                	.insn	2, 0x0300
    11d0:	306d                	.insn	2, 0x306d
    11d2:	9100                	.insn	2, 0x9100
    11d4:	1304                	.insn	2, 0x1304
    11d6:	009c                	.insn	2, 0x009c
    11d8:	0000                	.insn	2, 0x
    11da:	ad06                	.insn	2, 0xad06
    11dc:	0008                	.insn	2, 0x0008
    11de:	0200                	.insn	2, 0x0200
    11e0:	00000037          	lui	zero,0x0
    11e4:	049c                	.insn	2, 0x049c
    11e6:	9c08                	.insn	2, 0x9c08
    11e8:	0000                	.insn	2, 0x
    11ea:	0200                	.insn	2, 0x0200
    11ec:	0032                	.insn	2, 0x0032
    11ee:	0000                	.insn	2, 0x
    11f0:	049c                	.insn	2, 0x049c
    11f2:	9c08                	.insn	2, 0x9c08
    11f4:	0000                	.insn	2, 0x
    11f6:	0200                	.insn	2, 0x0200
    11f8:	01c5                	.insn	2, 0x01c5
    11fa:	0000                	.insn	2, 0x
    11fc:	049c                	.insn	2, 0x049c
    11fe:	9c08                	.insn	2, 0x9c08
    1200:	0000                	.insn	2, 0x
    1202:	0200                	.insn	2, 0x0200
    1204:	01c0                	.insn	2, 0x01c0
    1206:	0000                	.insn	2, 0x
    1208:	049c                	.insn	2, 0x049c
    120a:	9c08                	.insn	2, 0x9c08
    120c:	0000                	.insn	2, 0x
    120e:	0200                	.insn	2, 0x0200
    1210:	0219                	.insn	2, 0x0219
    1212:	0000                	.insn	2, 0x
    1214:	049c                	.insn	2, 0x049c
    1216:	9c08                	.insn	2, 0x9c08
    1218:	0000                	.insn	2, 0x
    121a:	0200                	.insn	2, 0x0200
    121c:	0214                	.insn	2, 0x0214
    121e:	0000                	.insn	2, 0x
    1220:	049c                	.insn	2, 0x049c
    1222:	9c08                	.insn	2, 0x9c08
    1224:	0000                	.insn	2, 0x
    1226:	0300                	.insn	2, 0x0300
    1228:	5f5f 006d 049c      	.insn	6, 0x049c006d5f5f
    122e:	9c08                	.insn	2, 0x9c08
    1230:	0000                	.insn	2, 0x
    1232:	0000                	.insn	2, 0x
    1234:	8706                	.insn	2, 0x8706
    1236:	0009                	.insn	2, 0x0009
    1238:	0200                	.insn	2, 0x0200
    123a:	0181                	.insn	2, 0x0181
    123c:	0000                	.insn	2, 0x
    123e:	049d                	.insn	2, 0x049d
    1240:	9c08                	.insn	2, 0x9c08
    1242:	0000                	.insn	2, 0x
    1244:	0200                	.insn	2, 0x0200
    1246:	0186                	.insn	2, 0x0186
    1248:	0000                	.insn	2, 0x
    124a:	049d                	.insn	2, 0x049d
    124c:	9c08                	.insn	2, 0x9c08
    124e:	0000                	.insn	2, 0x
    1250:	0200                	.insn	2, 0x0200
    1252:	0000018b          	.insn	4, 0x018b
    1256:	049d                	.insn	2, 0x049d
    1258:	9c08                	.insn	2, 0x9c08
    125a:	0000                	.insn	2, 0x
    125c:	0200                	.insn	2, 0x0200
    125e:	0190                	.insn	2, 0x0190
    1260:	0000                	.insn	2, 0x
    1262:	049d                	.insn	2, 0x049d
    1264:	9c08                	.insn	2, 0x9c08
    1266:	0000                	.insn	2, 0x
    1268:	0200                	.insn	2, 0x0200
    126a:	00000223          	sb	zero,4(zero) # 4 <MEM_START-0xffc>
    126e:	049d                	.insn	2, 0x049d
    1270:	9c08                	.insn	2, 0x9c08
    1272:	0000                	.insn	2, 0x
    1274:	0200                	.insn	2, 0x0200
    1276:	01e9                	.insn	2, 0x01e9
    1278:	0000                	.insn	2, 0x
    127a:	049d                	.insn	2, 0x049d
    127c:	9c08                	.insn	2, 0x9c08
    127e:	0000                	.insn	2, 0x
    1280:	0200                	.insn	2, 0x0200
    1282:	021e                	.insn	2, 0x021e
    1284:	0000                	.insn	2, 0x
    1286:	049d                	.insn	2, 0x049d
    1288:	9c08                	.insn	2, 0x9c08
    128a:	0000                	.insn	2, 0x
    128c:	0200                	.insn	2, 0x0200
    128e:	003c                	.insn	2, 0x003c
    1290:	0000                	.insn	2, 0x
    1292:	049d                	.insn	2, 0x049d
    1294:	9c08                	.insn	2, 0x9c08
    1296:	0000                	.insn	2, 0x
    1298:	0600                	.insn	2, 0x0600
    129a:	0930                	.insn	2, 0x0930
    129c:	0000                	.insn	2, 0x
    129e:	4102                	.insn	2, 0x4102
    12a0:	0000                	.insn	2, 0x
    12a2:	9d00                	.insn	2, 0x9d00
    12a4:	0804                	.insn	2, 0x0804
    12a6:	009c                	.insn	2, 0x009c
    12a8:	0000                	.insn	2, 0x
    12aa:	4702                	.insn	2, 0x4702
    12ac:	0000                	.insn	2, 0x
    12ae:	9d00                	.insn	2, 0x9d00
    12b0:	0804                	.insn	2, 0x0804
    12b2:	009c                	.insn	2, 0x009c
    12b4:	0000                	.insn	2, 0x
    12b6:	0600                	.insn	2, 0x0600
    12b8:	094e                	.insn	2, 0x094e
    12ba:	0000                	.insn	2, 0x
    12bc:	4102                	.insn	2, 0x4102
    12be:	0000                	.insn	2, 0x
    12c0:	9d00                	.insn	2, 0x9d00
    12c2:	0804                	.insn	2, 0x0804
    12c4:	009c                	.insn	2, 0x009c
    12c6:	0000                	.insn	2, 0x
    12c8:	4702                	.insn	2, 0x4702
    12ca:	0000                	.insn	2, 0x
    12cc:	9d00                	.insn	2, 0x9d00
    12ce:	0804                	.insn	2, 0x0804
    12d0:	009c                	.insn	2, 0x009c
    12d2:	0000                	.insn	2, 0x
    12d4:	0600                	.insn	2, 0x0600
    12d6:	096c                	.insn	2, 0x096c
    12d8:	0000                	.insn	2, 0x
    12da:	4102                	.insn	2, 0x4102
    12dc:	0000                	.insn	2, 0x
    12de:	9d00                	.insn	2, 0x9d00
    12e0:	0804                	.insn	2, 0x0804
    12e2:	009c                	.insn	2, 0x009c
    12e4:	0000                	.insn	2, 0x
    12e6:	4702                	.insn	2, 0x4702
    12e8:	0000                	.insn	2, 0x
    12ea:	9d00                	.insn	2, 0x9d00
    12ec:	0804                	.insn	2, 0x0804
    12ee:	009c                	.insn	2, 0x009c
    12f0:	0000                	.insn	2, 0x
    12f2:	1000                	.insn	2, 0x1000
    12f4:	4102                	.insn	2, 0x4102
    12f6:	0000                	.insn	2, 0x
    12f8:	9d00                	.insn	2, 0x9d00
    12fa:	0804                	.insn	2, 0x0804
    12fc:	009c                	.insn	2, 0x009c
    12fe:	0000                	.insn	2, 0x
    1300:	4702                	.insn	2, 0x4702
    1302:	0000                	.insn	2, 0x
    1304:	9d00                	.insn	2, 0x9d00
    1306:	0804                	.insn	2, 0x0804
    1308:	009c                	.insn	2, 0x009c
    130a:	0000                	.insn	2, 0x
    130c:	0000                	.insn	2, 0x
    130e:	9906                	.insn	2, 0x9906
    1310:	0009                	.insn	2, 0x0009
    1312:	0300                	.insn	2, 0x0300
    1314:	5f5f 0078 04a2      	.insn	6, 0x04a200785f5f
    131a:	9c05                	.insn	2, 0x9c05
    131c:	0000                	.insn	2, 0x
    131e:	0000                	.insn	2, 0x
    1320:	0310                	.insn	2, 0x0310
    1322:	5f5f 0078 04aa      	.insn	6, 0x04aa00785f5f
    1328:	9c05                	.insn	2, 0x9c05
    132a:	0000                	.insn	2, 0x
    132c:	0000                	.insn	2, 0x
    132e:	0000                	.insn	2, 0x
    1330:	0424                	.insn	2, 0x0424
    1332:	00b2                	.insn	2, 0x00b2
    1334:	0000                	.insn	2, 0x
    1336:	0f11                	.insn	2, 0x0f11
    1338:	0f000003          	lb	zero,240(zero) # f0 <MEM_START-0xf10>
    133c:	11000003          	lb	zero,272(zero) # 110 <MEM_START-0xef0>
    1340:	00000017          	auipc	zero,0x0
    1344:	00000017          	auipc	zero,0x0
    1348:	ca11                	.insn	2, 0xca11
    134a:	0001                	.insn	2, 0x0001
    134c:	ca00                	.insn	2, 0xca00
    134e:	0001                	.insn	2, 0x0001
    1350:	0000                	.insn	2, 0x
    1352:	002d                	.insn	2, 0x002d
    1354:	0000                	.insn	2, 0x
    1356:	0005                	.insn	2, 0x0005
    1358:	0401                	.insn	2, 0x0401
    135a:	03be                	.insn	2, 0x03be
    135c:	0000                	.insn	2, 0x
    135e:	3601                	.insn	2, 0x3601
    1360:	0015                	.insn	2, 0x0015
    1362:	3000                	.insn	2, 0x3000
    1364:	2400002f          	.insn	4, 0x2400002f
    1368:	0231                	.insn	2, 0x0231
    136a:	0000                	.insn	2, 0x
    136c:	025e                	.insn	2, 0x025e
    136e:	0000                	.insn	2, 0x
    1370:	02c5                	.insn	2, 0x02c5
    1372:	0000                	.insn	2, 0x
    1374:	8001                	.insn	2, 0x8001
    1376:	1702                	.insn	2, 0x1702
    1378:	0000                	.insn	2, 0x
    137a:	2f00                	.insn	2, 0x2f00
    137c:	2f30                	.insn	2, 0x2f30
    137e:	0000                	.insn	2, 0x
    1380:	0324                	.insn	2, 0x0324
    1382:	5b00                	.insn	2, 0x5b00
    1384:	0000                	.insn	2, 0x
    1386:	0500                	.insn	2, 0x0500
    1388:	0100                	.insn	2, 0x0100
    138a:	e604                	.insn	2, 0xe604
    138c:	01000003          	lb	zero,16(zero) # 10 <MEM_START-0xff0>
    1390:	15b0                	.insn	2, 0x15b0
    1392:	0000                	.insn	2, 0x
    1394:	2f54                	.insn	2, 0x2f54
    1396:	0000                	.insn	2, 0x
    1398:	01b4                	.insn	2, 0x01b4
    139a:	000002d3          	.insn	4, 0x02d3
    139e:	025e                	.insn	2, 0x025e
    13a0:	0000                	.insn	2, 0x
    13a2:	02c5                	.insn	2, 0x02c5
    13a4:	0000                	.insn	2, 0x
    13a6:	8001                	.insn	2, 0x8001
    13a8:	fd02                	.insn	2, 0xfd02
    13aa:	0002                	.insn	2, 0x0002
    13ac:	5d00                	.insn	2, 0x5d00
    13ae:	2f54                	.insn	2, 0x2f54
    13b0:	0000                	.insn	2, 0x
    13b2:	0184                	.insn	2, 0x0184
    13b4:	0f02                	.insn	2, 0x0f02
    13b6:	5d000003          	lb	zero,1488(zero) # 5d0 <MEM_START-0xa30>
    13ba:	2f5c                	.insn	2, 0x2f5c
    13bc:	0000                	.insn	2, 0x
    13be:	0248                	.insn	2, 0x0248
    13c0:	0306                	.insn	2, 0x0306
    13c2:	0000                	.insn	2, 0x
    13c4:	5c5d                	.insn	2, 0x5c5d
    13c6:	4800002f          	.insn	4, 0x4800002f
    13ca:	ca02                	.insn	2, 0xca02
    13cc:	0001                	.insn	2, 0x0001
    13ce:	5d00                	.insn	2, 0x5d00
    13d0:	2fa4                	.insn	2, 0x2fa4
    13d2:	0000                	.insn	2, 0x
    13d4:	0210                	.insn	2, 0x0210
    13d6:	0319                	.insn	2, 0x0319
    13d8:	0000                	.insn	2, 0x
    13da:	d85d                	.insn	2, 0xd85d
    13dc:	3000002f          	.insn	4, 0x3000002f
    13e0:	00e90003          	lb	zero,14(s2)
    13e4:	0000                	.insn	2, 0x
    13e6:	0005                	.insn	2, 0x0005
    13e8:	0401                	.insn	2, 0x0401
    13ea:	040e                	.insn	2, 0x040e
    13ec:	0000                	.insn	2, 0x
    13ee:	00032203          	lw	tp,0(t1)
    13f2:	1d00                	.insn	2, 0x1d00
    13f4:	0000                	.insn	2, 0x
    13f6:	0000                	.insn	2, 0x
    13f8:	0021                	.insn	2, 0x0021
    13fa:	0000                	.insn	2, 0x
    13fc:	00001703          	lh	a4,0(zero) # 0 <MEM_START-0x1000>
    1400:	0404                	.insn	2, 0x0404
    1402:	6905                	.insn	2, 0x6905
    1404:	746e                	.insn	2, 0x746e
    1406:	0100                	.insn	2, 0x0100
    1408:	0704                	.insn	2, 0x0704
    140a:	006e                	.insn	2, 0x006e
    140c:	0000                	.insn	2, 0x
    140e:	0801                	.insn	2, 0x0801
    1410:	5605                	.insn	2, 0x5605
    1412:	0000                	.insn	2, 0x
    1414:	0100                	.insn	2, 0x0100
    1416:	0410                	.insn	2, 0x0410
    1418:	00000203          	lb	tp,0(zero) # 0 <MEM_START-0x1000>
    141c:	0101                	.insn	2, 0x0101
    141e:	7506                	.insn	2, 0x7506
    1420:	0001                	.insn	2, 0x0001
    1422:	0100                	.insn	2, 0x0100
    1424:	0801                	.insn	2, 0x0801
    1426:	00000173          	.insn	4, 0x0173
    142a:	0201                	.insn	2, 0x0201
    142c:	2005                	.insn	2, 0x2005
    142e:	0000                	.insn	2, 0x
    1430:	0100                	.insn	2, 0x0100
    1432:	0702                	.insn	2, 0x0702
    1434:	019d                	.insn	2, 0x019d
    1436:	0000                	.insn	2, 0x
    1438:	0401                	.insn	2, 0x0401
    143a:	5b05                	.insn	2, 0x5b05
    143c:	0000                	.insn	2, 0x
    143e:	0100                	.insn	2, 0x0100
    1440:	0704                	.insn	2, 0x0704
    1442:	0069                	.insn	2, 0x0069
    1444:	0000                	.insn	2, 0x
    1446:	0801                	.insn	2, 0x0801
    1448:	00006407          	.insn	4, 0x6407
    144c:	0100                	.insn	2, 0x0100
    144e:	0801                	.insn	2, 0x0801
    1450:	017c                	.insn	2, 0x017c
    1452:	0000                	.insn	2, 0x
    1454:	0101                	.insn	2, 0x0101
    1456:	d402                	.insn	2, 0xd402
    1458:	0001                	.insn	2, 0x0001
    145a:	0500                	.insn	2, 0x0500
    145c:	0195                	.insn	2, 0x0195
    145e:	0000                	.insn	2, 0x
    1460:	7e01                	.insn	2, 0x7e01
    1462:	4116                	.insn	2, 0x4116
    1464:	0000                	.insn	2, 0x
    1466:	0200                	.insn	2, 0x0200
    1468:	0079                	.insn	2, 0x0079
    146a:	0000                	.insn	2, 0x
    146c:	0201                	.insn	2, 0x0201
    146e:	9204                	.insn	2, 0x9204
    1470:	0000                	.insn	2, 0x
    1472:	0100                	.insn	2, 0x0100
    1474:	0304                	.insn	2, 0x0304
    1476:	008a                	.insn	2, 0x008a
    1478:	0000                	.insn	2, 0x
    147a:	0401                	.insn	2, 0x0401
    147c:	1104                	.insn	2, 0x1104
    147e:	0000                	.insn	2, 0x
    1480:	0100                	.insn	2, 0x0100
    1482:	0308                	.insn	2, 0x0308
    1484:	0009                	.insn	2, 0x0009
    1486:	0000                	.insn	2, 0x
    1488:	0801                	.insn	2, 0x0801
    148a:	0804                	.insn	2, 0x0804
    148c:	0002                	.insn	2, 0x0002
    148e:	0100                	.insn	2, 0x0100
    1490:	0310                	.insn	2, 0x0310
    1492:	01da                	.insn	2, 0x01da
    1494:	0000                	.insn	2, 0x
    1496:	2001                	.insn	2, 0x2001
    1498:	0001fb03          	.insn	4, 0x0001fb03
    149c:	0600                	.insn	2, 0x0600
    149e:	0085                	.insn	2, 0x0085
    14a0:	0000                	.insn	2, 0x
    14a2:	000000cb          	.insn	4, 0x00cb
    14a6:	00002507          	.insn	4, 0x2507
    14aa:	ff00                	.insn	2, 0xff00
    14ac:	0200                	.insn	2, 0x0200
    14ae:	000000bb          	.insn	4, 0x00bb
    14b2:	8008                	.insn	2, 0x8008
    14b4:	0000                	.insn	2, 0x
    14b6:	0100                	.insn	2, 0x0100
    14b8:	021a                	.insn	2, 0x021a
    14ba:	cb16                	.insn	2, 0xcb16
    14bc:	0000                	.insn	2, 0x
    14be:	0900                	.insn	2, 0x0900
    14c0:	00d0                	.insn	2, 0x00d0
    14c2:	0000                	.insn	2, 0x
    14c4:	9e02                	.insn	2, 0x9e02
    14c6:	0f02                	.insn	2, 0x0f02
    14c8:	0305                	.insn	2, 0x0305
    14ca:	01c4                	.insn	2, 0x01c4
    14cc:	0002                	.insn	2, 0x0002
	...

Disassembly of section .debug_abbrev:

00000000 <.debug_abbrev>:
   0:	3401                	.insn	2, 0x3401
   2:	3100                	.insn	2, 0x3100
   4:	00170213          	addi	tp,a4,1 # 1000001 <stack_bot+0xfdc001>
   8:	0200                	.insn	2, 0x0200
   a:	0034                	.insn	2, 0x0034
   c:	213a0e03          	lb	t3,531(s4)
  10:	3b01                	.insn	2, 0x3b01
  12:	3905                	.insn	2, 0x3905
  14:	0013490b          	.insn	4, 0x0013490b
  18:	0300                	.insn	2, 0x0300
  1a:	0034                	.insn	2, 0x0034
  1c:	213a0803          	lb	a6,531(s4)
  20:	3b01                	.insn	2, 0x3b01
  22:	3905                	.insn	2, 0x3905
  24:	0013490b          	.insn	4, 0x0013490b
  28:	0400                	.insn	2, 0x0400
  2a:	0048                	.insn	2, 0x0048
  2c:	017d                	.insn	2, 0x017d
  2e:	0000137f 0b002405 	.insn	12, 0x030b3e0b0b0024050000137f
  36:	030b3e0b 
  3a:	000e                	.insn	2, 0x000e
  3c:	0600                	.insn	2, 0x0600
  3e:	1301010b          	.insn	4, 0x1301010b
  42:	0000                	.insn	2, 0x
  44:	31003407          	.insn	4, 0x31003407
  48:	00180213          	addi	tp,a6,1
  4c:	0800                	.insn	2, 0x0800
  4e:	0016                	.insn	2, 0x0016
  50:	213a0e03          	lb	t3,531(s4)
  54:	3b02                	.insn	2, 0x3b02
  56:	490b390b          	.insn	4, 0x490b390b
  5a:	09000013          	li	zero,144
  5e:	1331010b          	.insn	4, 0x1331010b
  62:	1755                	.insn	2, 0x1755
  64:	1301                	.insn	2, 0x1301
  66:	0000                	.insn	2, 0x
  68:	0b0a                	.insn	2, 0x0b0a
  6a:	3101                	.insn	2, 0x3101
  6c:	12011113          	.insn	4, 0x12011113
  70:	0106                	.insn	2, 0x0106
  72:	0b000013          	li	zero,176
  76:	0034                	.insn	2, 0x0034
  78:	213a0803          	lb	a6,531(s4)
  7c:	3b01                	.insn	2, 0x3b01
  7e:	3905                	.insn	2, 0x3905
  80:	0213490b          	.insn	4, 0x0213490b
  84:	0c000017          	auipc	zero,0xc000
  88:	0034                	.insn	2, 0x0034
  8a:	1331                	.insn	2, 0x1331
  8c:	0000                	.insn	2, 0x
  8e:	260d                	.insn	2, 0x260d
  90:	4900                	.insn	2, 0x4900
  92:	0e000013          	li	zero,224
  96:	1331010b          	.insn	4, 0x1331010b
  9a:	1755                	.insn	2, 0x1755
  9c:	0000                	.insn	2, 0x
  9e:	0300050f          	.insn	4, 0x0300050f
  a2:	3a08                	.insn	2, 0x3a08
  a4:	0121                	.insn	2, 0x0121
  a6:	07e3213b          	.insn	4, 0x07e3213b
  aa:	0b39                	.insn	2, 0x0b39
  ac:	1349                	.insn	2, 0x1349
  ae:	0000                	.insn	2, 0x
  b0:	0b10                	.insn	2, 0x0b10
  b2:	0001                	.insn	2, 0x0001
  b4:	1100                	.insn	2, 0x1100
  b6:	002e                	.insn	2, 0x002e
  b8:	193c193f 0e030e6e 	.insn	8, 0x0e030e6e193c193f
  c0:	0000                	.insn	2, 0x
  c2:	0d12                	.insn	2, 0x0d12
  c4:	0300                	.insn	2, 0x0300
  c6:	3a08                	.insn	2, 0x3a08
  c8:	0221                	.insn	2, 0x0221
  ca:	0b39053b          	.insn	4, 0x0b39053b
  ce:	1349                	.insn	2, 0x1349
  d0:	0000                	.insn	2, 0x
  d2:	03000513          	li	a0,48
  d6:	3a08                	.insn	2, 0x3a08
  d8:	0121                	.insn	2, 0x0121
  da:	09bb213b          	.insn	4, 0x09bb213b
  de:	0b39                	.insn	2, 0x0b39
  e0:	1349                	.insn	2, 0x1349
  e2:	1702                	.insn	2, 0x1702
  e4:	0000                	.insn	2, 0x
  e6:	0514                	.insn	2, 0x0514
  e8:	3100                	.insn	2, 0x3100
  ea:	15000013          	li	zero,336
  ee:	0111                	.insn	2, 0x0111
  f0:	0e25                	.insn	2, 0x0e25
  f2:	1f030b13          	addi	s6,t1,496
  f6:	01111f1b          	.insn	4, 0x01111f1b
  fa:	0612                	.insn	2, 0x0612
  fc:	1710                	.insn	2, 0x1710
  fe:	0000                	.insn	2, 0x
 100:	2416                	.insn	2, 0x2416
 102:	0b00                	.insn	2, 0x0b00
 104:	030b3e0b          	.insn	4, 0x030b3e0b
 108:	0008                	.insn	2, 0x0008
 10a:	1700                	.insn	2, 0x1700
 10c:	0e030113          	addi	sp,t1,224
 110:	0b3a0b0b          	.insn	4, 0x0b3a0b0b
 114:	0b39053b          	.insn	4, 0x0b39053b
 118:	1301                	.insn	2, 0x1301
 11a:	0000                	.insn	2, 0x
 11c:	0d18                	.insn	2, 0x0d18
 11e:	0300                	.insn	2, 0x0300
 120:	3a08                	.insn	2, 0x3a08
 122:	39053b0b          	.insn	4, 0x39053b0b
 126:	3813490b          	.insn	4, 0x3813490b
 12a:	1900000b          	.insn	4, 0x1900000b
 12e:	000d                	.insn	2, 0x000d
 130:	0b3a0e03          	lb	t3,179(s4)
 134:	0b39053b          	.insn	4, 0x0b39053b
 138:	1349                	.insn	2, 0x1349
 13a:	0b38                	.insn	2, 0x0b38
 13c:	0000                	.insn	2, 0x
 13e:	171a                	.insn	2, 0x171a
 140:	0b01                	.insn	2, 0x0b01
 142:	3b0b3a0b          	.insn	4, 0x3b0b3a0b
 146:	3905                	.insn	2, 0x3905
 148:	0013010b          	.insn	4, 0x0013010b
 14c:	1b00                	.insn	2, 0x1b00
 14e:	0016                	.insn	2, 0x0016
 150:	0b3a0e03          	lb	t3,179(s4)
 154:	0b39053b          	.insn	4, 0x0b39053b
 158:	1349                	.insn	2, 0x1349
 15a:	0000                	.insn	2, 0x
 15c:	011c                	.insn	2, 0x011c
 15e:	4901                	.insn	2, 0x4901
 160:	00130113          	addi	sp,t1,1
 164:	1d00                	.insn	2, 0x1d00
 166:	0021                	.insn	2, 0x0021
 168:	1349                	.insn	2, 0x1349
 16a:	00000b2f          	.insn	4, 0x0b2f
 16e:	341e                	.insn	2, 0x341e
 170:	0300                	.insn	2, 0x0300
 172:	3a0e                	.insn	2, 0x3a0e
 174:	39053b0b          	.insn	4, 0x39053b0b
 178:	3f13490b          	.insn	4, 0x3f13490b
 17c:	3c19                	.insn	2, 0x3c19
 17e:	0019                	.insn	2, 0x0019
 180:	1f00                	.insn	2, 0x1f00
 182:	012e                	.insn	2, 0x012e
 184:	0e03193f 053b0b3a 	.insn	8, 0x053b0b3a0e03193f
 18c:	0b39                	.insn	2, 0x0b39
 18e:	13491927          	.insn	4, 0x13491927
 192:	0111                	.insn	2, 0x0111
 194:	0612                	.insn	2, 0x0612
 196:	1840                	.insn	2, 0x1840
 198:	197a                	.insn	2, 0x197a
 19a:	1301                	.insn	2, 0x1301
 19c:	0000                	.insn	2, 0x
 19e:	1d20                	.insn	2, 0x1d20
 1a0:	3101                	.insn	2, 0x3101
 1a2:	55015213          	.insn	4, 0x55015213
 1a6:	590b5817          	auipc	a6,0x590b5
 1aa:	5705                	.insn	2, 0x5705
 1ac:	2100000b          	.insn	4, 0x2100000b
 1b0:	0005                	.insn	2, 0x0005
 1b2:	1331                	.insn	2, 0x1331
 1b4:	1702                	.insn	2, 0x1702
 1b6:	0000                	.insn	2, 0x
 1b8:	0b22                	.insn	2, 0x0b22
 1ba:	5501                	.insn	2, 0x5501
 1bc:	23000017          	auipc	zero,0x23000
 1c0:	012e                	.insn	2, 0x012e
 1c2:	0b3a0e03          	lb	t3,179(s4)
 1c6:	0b39053b          	.insn	4, 0x0b39053b
 1ca:	13491927          	.insn	4, 0x13491927
 1ce:	0b20                	.insn	2, 0x0b20
 1d0:	1301                	.insn	2, 0x1301
 1d2:	0000                	.insn	2, 0x
 1d4:	0f24                	.insn	2, 0x0f24
 1d6:	0b00                	.insn	2, 0x0b00
 1d8:	0013490b          	.insn	4, 0x0013490b
 1dc:	0000                	.insn	2, 0x
 1de:	3401                	.insn	2, 0x3401
 1e0:	3100                	.insn	2, 0x3100
 1e2:	00170213          	addi	tp,a4,1
 1e6:	0200                	.insn	2, 0x0200
 1e8:	0034                	.insn	2, 0x0034
 1ea:	213a0e03          	lb	t3,531(s4)
 1ee:	3b01                	.insn	2, 0x3b01
 1f0:	3905                	.insn	2, 0x3905
 1f2:	0013490b          	.insn	4, 0x0013490b
 1f6:	0300                	.insn	2, 0x0300
 1f8:	0034                	.insn	2, 0x0034
 1fa:	213a0803          	lb	a6,531(s4)
 1fe:	3b01                	.insn	2, 0x3b01
 200:	3905                	.insn	2, 0x3905
 202:	0013490b          	.insn	4, 0x0013490b
 206:	0400                	.insn	2, 0x0400
 208:	0048                	.insn	2, 0x0048
 20a:	017d                	.insn	2, 0x017d
 20c:	0000137f 0b002405 	.insn	12, 0x030b3e0b0b0024050000137f
 214:	030b3e0b 
 218:	000e                	.insn	2, 0x000e
 21a:	0600                	.insn	2, 0x0600
 21c:	1301010b          	.insn	4, 0x1301010b
 220:	0000                	.insn	2, 0x
 222:	31003407          	.insn	4, 0x31003407
 226:	00180213          	addi	tp,a6,1 # 590b51a7 <stack_bot+0x590911a7>
 22a:	0800                	.insn	2, 0x0800
 22c:	1331010b          	.insn	4, 0x1331010b
 230:	1755                	.insn	2, 0x1755
 232:	1301                	.insn	2, 0x1301
 234:	0000                	.insn	2, 0x
 236:	0b09                	.insn	2, 0x0b09
 238:	3101                	.insn	2, 0x3101
 23a:	12011113          	.insn	4, 0x12011113
 23e:	0106                	.insn	2, 0x0106
 240:	0a000013          	li	zero,160
 244:	0016                	.insn	2, 0x0016
 246:	213a0e03          	lb	t3,531(s4)
 24a:	3b02                	.insn	2, 0x3b02
 24c:	490b390b          	.insn	4, 0x490b390b
 250:	0b000013          	li	zero,176
 254:	0034                	.insn	2, 0x0034
 256:	1331                	.insn	2, 0x1331
 258:	0000                	.insn	2, 0x
 25a:	340c                	.insn	2, 0x340c
 25c:	0300                	.insn	2, 0x0300
 25e:	3a08                	.insn	2, 0x3a08
 260:	0121                	.insn	2, 0x0121
 262:	0b39053b          	.insn	4, 0x0b39053b
 266:	1349                	.insn	2, 0x1349
 268:	1702                	.insn	2, 0x1702
 26a:	0000                	.insn	2, 0x
 26c:	260d                	.insn	2, 0x260d
 26e:	4900                	.insn	2, 0x4900
 270:	0e000013          	li	zero,224
 274:	1331010b          	.insn	4, 0x1331010b
 278:	0111                	.insn	2, 0x0111
 27a:	0612                	.insn	2, 0x0612
 27c:	0000                	.insn	2, 0x
 27e:	0300050f          	.insn	4, 0x0300050f
 282:	3a08                	.insn	2, 0x3a08
 284:	0121                	.insn	2, 0x0121
 286:	07e3213b          	.insn	4, 0x07e3213b
 28a:	0b39                	.insn	2, 0x0b39
 28c:	1349                	.insn	2, 0x1349
 28e:	0000                	.insn	2, 0x
 290:	0b10                	.insn	2, 0x0b10
 292:	0001                	.insn	2, 0x0001
 294:	1100                	.insn	2, 0x1100
 296:	002e                	.insn	2, 0x002e
 298:	193c193f 0e030e6e 	.insn	8, 0x0e030e6e193c193f
 2a0:	0000                	.insn	2, 0x
 2a2:	0d12                	.insn	2, 0x0d12
 2a4:	0300                	.insn	2, 0x0300
 2a6:	3a08                	.insn	2, 0x3a08
 2a8:	0221                	.insn	2, 0x0221
 2aa:	0b39053b          	.insn	4, 0x0b39053b
 2ae:	1349                	.insn	2, 0x1349
 2b0:	0000                	.insn	2, 0x
 2b2:	03000513          	li	a0,48
 2b6:	3a08                	.insn	2, 0x3a08
 2b8:	0121                	.insn	2, 0x0121
 2ba:	09d3213b          	.insn	4, 0x09d3213b
 2be:	0b39                	.insn	2, 0x0b39
 2c0:	1349                	.insn	2, 0x1349
 2c2:	1702                	.insn	2, 0x1702
 2c4:	0000                	.insn	2, 0x
 2c6:	0514                	.insn	2, 0x0514
 2c8:	3100                	.insn	2, 0x3100
 2ca:	00170213          	addi	tp,a4,1
 2ce:	1500                	.insn	2, 0x1500
 2d0:	0111                	.insn	2, 0x0111
 2d2:	0e25                	.insn	2, 0x0e25
 2d4:	1f030b13          	addi	s6,t1,496
 2d8:	01111f1b          	.insn	4, 0x01111f1b
 2dc:	0612                	.insn	2, 0x0612
 2de:	1710                	.insn	2, 0x1710
 2e0:	0000                	.insn	2, 0x
 2e2:	2416                	.insn	2, 0x2416
 2e4:	0b00                	.insn	2, 0x0b00
 2e6:	030b3e0b          	.insn	4, 0x030b3e0b
 2ea:	0008                	.insn	2, 0x0008
 2ec:	1700                	.insn	2, 0x1700
 2ee:	0e030113          	addi	sp,t1,224
 2f2:	0b3a0b0b          	.insn	4, 0x0b3a0b0b
 2f6:	0b39053b          	.insn	4, 0x0b39053b
 2fa:	1301                	.insn	2, 0x1301
 2fc:	0000                	.insn	2, 0x
 2fe:	0d18                	.insn	2, 0x0d18
 300:	0300                	.insn	2, 0x0300
 302:	3a08                	.insn	2, 0x3a08
 304:	39053b0b          	.insn	4, 0x39053b0b
 308:	3813490b          	.insn	4, 0x3813490b
 30c:	1900000b          	.insn	4, 0x1900000b
 310:	000d                	.insn	2, 0x000d
 312:	0b3a0e03          	lb	t3,179(s4)
 316:	0b39053b          	.insn	4, 0x0b39053b
 31a:	1349                	.insn	2, 0x1349
 31c:	0b38                	.insn	2, 0x0b38
 31e:	0000                	.insn	2, 0x
 320:	171a                	.insn	2, 0x171a
 322:	0b01                	.insn	2, 0x0b01
 324:	3b0b3a0b          	.insn	4, 0x3b0b3a0b
 328:	3905                	.insn	2, 0x3905
 32a:	0013010b          	.insn	4, 0x0013010b
 32e:	1b00                	.insn	2, 0x1b00
 330:	0016                	.insn	2, 0x0016
 332:	0b3a0e03          	lb	t3,179(s4)
 336:	0b39053b          	.insn	4, 0x0b39053b
 33a:	1349                	.insn	2, 0x1349
 33c:	0000                	.insn	2, 0x
 33e:	011c                	.insn	2, 0x011c
 340:	4901                	.insn	2, 0x4901
 342:	00130113          	addi	sp,t1,1
 346:	1d00                	.insn	2, 0x1d00
 348:	0021                	.insn	2, 0x0021
 34a:	1349                	.insn	2, 0x1349
 34c:	00000b2f          	.insn	4, 0x0b2f
 350:	341e                	.insn	2, 0x341e
 352:	0300                	.insn	2, 0x0300
 354:	3a0e                	.insn	2, 0x3a0e
 356:	39053b0b          	.insn	4, 0x39053b0b
 35a:	3f13490b          	.insn	4, 0x3f13490b
 35e:	3c19                	.insn	2, 0x3c19
 360:	0019                	.insn	2, 0x0019
 362:	1f00                	.insn	2, 0x1f00
 364:	012e                	.insn	2, 0x012e
 366:	0e03193f 053b0b3a 	.insn	8, 0x053b0b3a0e03193f
 36e:	0b39                	.insn	2, 0x0b39
 370:	13491927          	.insn	4, 0x13491927
 374:	0111                	.insn	2, 0x0111
 376:	0612                	.insn	2, 0x0612
 378:	1840                	.insn	2, 0x1840
 37a:	197a                	.insn	2, 0x197a
 37c:	1301                	.insn	2, 0x1301
 37e:	0000                	.insn	2, 0x
 380:	1d20                	.insn	2, 0x1d20
 382:	3101                	.insn	2, 0x3101
 384:	55015213          	.insn	4, 0x55015213
 388:	590b5817          	auipc	a6,0x590b5
 38c:	5705                	.insn	2, 0x5705
 38e:	2100000b          	.insn	4, 0x2100000b
 392:	0005                	.insn	2, 0x0005
 394:	1331                	.insn	2, 0x1331
 396:	0000                	.insn	2, 0x
 398:	0b22                	.insn	2, 0x0b22
 39a:	5501                	.insn	2, 0x5501
 39c:	23000017          	auipc	zero,0x23000
 3a0:	012e                	.insn	2, 0x012e
 3a2:	0b3a0e03          	lb	t3,179(s4)
 3a6:	0b39053b          	.insn	4, 0x0b39053b
 3aa:	13491927          	.insn	4, 0x13491927
 3ae:	0b20                	.insn	2, 0x0b20
 3b0:	1301                	.insn	2, 0x1301
 3b2:	0000                	.insn	2, 0x
 3b4:	0f24                	.insn	2, 0x0f24
 3b6:	0b00                	.insn	2, 0x0b00
 3b8:	0013490b          	.insn	4, 0x0013490b
 3bc:	0000                	.insn	2, 0x
 3be:	1101                	.insn	2, 0x1101
 3c0:	1001                	.insn	2, 0x1001
 3c2:	12011117          	auipc	sp,0x12011
 3c6:	1b0e030f          	.insn	4, 0x1b0e030f
 3ca:	250e                	.insn	2, 0x250e
 3cc:	130e                	.insn	2, 0x130e
 3ce:	0005                	.insn	2, 0x0005
 3d0:	0200                	.insn	2, 0x0200
 3d2:	002e                	.insn	2, 0x002e
 3d4:	193f0e03          	lb	t3,403(t5)
 3d8:	1549                	.insn	2, 0x1549
 3da:	0111                	.insn	2, 0x0111
 3dc:	0f12                	.insn	2, 0x0f12
 3de:	0000                	.insn	2, 0x
 3e0:	00003b03          	.insn	4, 0x3b03
 3e4:	0000                	.insn	2, 0x
 3e6:	1101                	.insn	2, 0x1101
 3e8:	1001                	.insn	2, 0x1001
 3ea:	12011117          	auipc	sp,0x12011
 3ee:	1b0e030f          	.insn	4, 0x1b0e030f
 3f2:	250e                	.insn	2, 0x250e
 3f4:	130e                	.insn	2, 0x130e
 3f6:	0005                	.insn	2, 0x0005
 3f8:	0200                	.insn	2, 0x0200
 3fa:	002e                	.insn	2, 0x002e
 3fc:	193f0e03          	lb	t3,403(t5)
 400:	1549                	.insn	2, 0x1549
 402:	0111                	.insn	2, 0x0111
 404:	0f12                	.insn	2, 0x0f12
 406:	0000                	.insn	2, 0x
 408:	00003b03          	.insn	4, 0x3b03
 40c:	0000                	.insn	2, 0x
 40e:	2401                	.insn	2, 0x2401
 410:	0b00                	.insn	2, 0x0b00
 412:	030b3e0b          	.insn	4, 0x030b3e0b
 416:	000e                	.insn	2, 0x000e
 418:	0200                	.insn	2, 0x0200
 41a:	0026                	.insn	2, 0x0026
 41c:	1349                	.insn	2, 0x1349
 41e:	0000                	.insn	2, 0x
 420:	25011103          	lh	sp,592(sp) # 1201163a <stack_bot+0x11fed63a>
 424:	130e                	.insn	2, 0x130e
 426:	1b1f030b          	.insn	4, 0x1b1f030b
 42a:	101f 0017 0400      	.insn	6, 0x04000017101f
 430:	0024                	.insn	2, 0x0024
 432:	0b3e0b0b          	.insn	4, 0x0b3e0b0b
 436:	00000803          	lb	a6,0(zero) # 0 <MEM_START-0x1000>
 43a:	1605                	.insn	2, 0x1605
 43c:	0300                	.insn	2, 0x0300
 43e:	3a0e                	.insn	2, 0x3a0e
 440:	390b3b0b          	.insn	4, 0x390b3b0b
 444:	0013490b          	.insn	4, 0x0013490b
 448:	0600                	.insn	2, 0x0600
 44a:	0101                	.insn	2, 0x0101
 44c:	1349                	.insn	2, 0x1349
 44e:	1301                	.insn	2, 0x1301
 450:	0000                	.insn	2, 0x
 452:	49002107          	.insn	4, 0x49002107
 456:	000b2f13          	slti	t5,s6,0
 45a:	0800                	.insn	2, 0x0800
 45c:	0034                	.insn	2, 0x0034
 45e:	0b3a0e03          	lb	t3,179(s4)
 462:	0b39053b          	.insn	4, 0x0b39053b
 466:	1349                	.insn	2, 0x1349
 468:	193c193f 34090000 	.insn	8, 0x34090000193c193f
 470:	4700                	.insn	2, 0x4700
 472:	3b0b3a13          	sltiu	s4,s6,944
 476:	3905                	.insn	2, 0x3905
 478:	0018020b          	.insn	4, 0x0018020b
	...

Disassembly of section .debug_loclists:

00000000 <.debug_loclists>:
   0:	0610                	.insn	2, 0x0610
   2:	0000                	.insn	2, 0x
   4:	0005                	.insn	2, 0x0005
   6:	0004                	.insn	2, 0x0004
   8:	0000                	.insn	2, 0x
   a:	0000                	.insn	2, 0x
   c:	0004                	.insn	2, 0x0004
   e:	01d8                	.insn	2, 0x01d8
  10:	5a06                	.insn	2, 0x5a06
  12:	935b0493          	addi	s1,s6,-1739
  16:	0404                	.insn	2, 0x0404
  18:	01d8                	.insn	2, 0x01d8
  1a:	039c                	.insn	2, 0x039c
  1c:	a306                	.insn	2, 0xa306
  1e:	260aa503          	lw	a0,608(s5)
  22:	049f 039c 03f0      	.insn	6, 0x03f0039c049f
  28:	5a06                	.insn	2, 0x5a06
  2a:	935b0493          	addi	s1,s6,-1739
  2e:	0404                	.insn	2, 0x0404
  30:	03f0                	.insn	2, 0x03f0
  32:	068c                	.insn	2, 0x068c
  34:	a306                	.insn	2, 0xa306
  36:	260aa503          	lw	a0,608(s5)
  3a:	049f 068c 06c4      	.insn	6, 0x06c4068c049f
  40:	5a06                	.insn	2, 0x5a06
  42:	935b0493          	addi	s1,s6,-1739
  46:	0404                	.insn	2, 0x0404
  48:	06c4                	.insn	2, 0x06c4
  4a:	088c                	.insn	2, 0x088c
  4c:	a306                	.insn	2, 0xa306
  4e:	260aa503          	lw	a0,608(s5)
  52:	049f 088c 08ac      	.insn	6, 0x08ac088c049f
  58:	5a06                	.insn	2, 0x5a06
  5a:	935b0493          	addi	s1,s6,-1739
  5e:	0404                	.insn	2, 0x0404
  60:	08ac                	.insn	2, 0x08ac
  62:	08dc                	.insn	2, 0x08dc
  64:	a306                	.insn	2, 0xa306
  66:	260aa503          	lw	a0,608(s5)
  6a:	049f 08dc 08f0      	.insn	6, 0x08f008dc049f
  70:	5a06                	.insn	2, 0x5a06
  72:	935b0493          	addi	s1,s6,-1739
  76:	0404                	.insn	2, 0x0404
  78:	08f0                	.insn	2, 0x08f0
  7a:	0c84                	.insn	2, 0x0c84
  7c:	a306                	.insn	2, 0xa306
  7e:	260aa503          	lw	a0,608(s5)
  82:	049f 0c84 0c90      	.insn	6, 0x0c900c84049f
  88:	5a06                	.insn	2, 0x5a06
  8a:	935b0493          	addi	s1,s6,-1739
  8e:	0004                	.insn	2, 0x0004
  90:	0004                	.insn	2, 0x0004
  92:	066c                	.insn	2, 0x066c
  94:	935c                	.insn	2, 0x935c
  96:	5d04                	.insn	2, 0x5d04
  98:	6c040493          	addi	s1,s0,1728
  9c:	0c90                	.insn	2, 0x0c90
  9e:	a306                	.insn	2, 0xa306
  a0:	260ca503          	lw	a0,608(s9)
  a4:	009f 3804 0240      	.insn	6, 0x02403804009f
  aa:	9f30                	.insn	2, 0x9f30
  ac:	4004                	.insn	2, 0x4004
  ae:	0354                	.insn	2, 0x0354
  b0:	ff09                	.insn	2, 0xff09
  b2:	049f e054 0105      	.insn	6, 0x0105e054049f
  b8:	0459                	.insn	2, 0x0459
  ba:	068c                	.insn	2, 0x068c
  bc:	0c90                	.insn	2, 0x0c90
  be:	5901                	.insn	2, 0x5901
  c0:	0400                	.insn	2, 0x0400
  c2:	4038                	.insn	2, 0x4038
  c4:	5a06                	.insn	2, 0x5a06
  c6:	935b0493          	addi	s1,s6,-1739
  ca:	0004                	.insn	2, 0x0004
  cc:	3804                	.insn	2, 0x3804
  ce:	0660                	.insn	2, 0x0660
  d0:	935c                	.insn	2, 0x935c
  d2:	5d04                	.insn	2, 0x5d04
  d4:	04000493          	li	s1,64
  d8:	05c0                	.insn	2, 0x05c0
  da:	05c8                	.insn	2, 0x05c8
  dc:	5f06                	.insn	2, 0x5f06
  de:	93630493          	addi	s1,t1,-1738
  e2:	0404                	.insn	2, 0x0404
  e4:	05c8                	.insn	2, 0x05c8
  e6:	05d4                	.insn	2, 0x05d4
  e8:	5a06                	.insn	2, 0x5a06
  ea:	93630493          	addi	s1,t1,-1738
  ee:	0004                	.insn	2, 0x0004
  f0:	6c04                	.insn	2, 0x6c04
  f2:	05c0                	.insn	2, 0x05c0
  f4:	3002                	.insn	2, 0x3002
  f6:	049f 068c 0c90      	.insn	6, 0x0c90068c049f
  fc:	3002                	.insn	2, 0x3002
  fe:	009f 7004 01b8      	.insn	6, 0x01b87004009f
 104:	5c01                	.insn	2, 0x5c01
 106:	b804                	.insn	2, 0xb804
 108:	c401                	.insn	2, 0xc401
 10a:	0901                	.insn	2, 0x0901
 10c:	007c                	.insn	2, 0x007c
 10e:	007e                	.insn	2, 0x007e
 110:	ff08                	.insn	2, 0xff08
 112:	241a                	.insn	2, 0x241a
 114:	049f 01c4 0394      	.insn	6, 0x039401c4049f
 11a:	6501                	.insn	2, 0x6501
 11c:	9c04                	.insn	2, 0x9c04
 11e:	0103c003          	lbu	zero,16(t2)
 122:	045c                	.insn	2, 0x045c
 124:	03f0                	.insn	2, 0x03f0
 126:	05b8                	.insn	2, 0x05b8
 128:	6501                	.insn	2, 0x6501
 12a:	8c04                	.insn	2, 0x8c04
 12c:	a006                	.insn	2, 0xa006
 12e:	0106                	.insn	2, 0x0106
 130:	045c                	.insn	2, 0x045c
 132:	06a4                	.insn	2, 0x06a4
 134:	088c                	.insn	2, 0x088c
 136:	6501                	.insn	2, 0x6501
 138:	8c04                	.insn	2, 0x8c04
 13a:	a008                	.insn	2, 0xa008
 13c:	0109                	.insn	2, 0x0109
 13e:	045c                	.insn	2, 0x045c
 140:	09a0                	.insn	2, 0x09a0
 142:	0af8                	.insn	2, 0x0af8
 144:	5801                	.insn	2, 0x5801
 146:	8404                	.insn	2, 0x8404
 148:	900c                	.insn	2, 0x900c
 14a:	010c                	.insn	2, 0x010c
 14c:	005c                	.insn	2, 0x005c
 14e:	fc04                	.insn	2, 0xfc04
 150:	8408                	.insn	2, 0x8408
 152:	010c                	.insn	2, 0x010c
 154:	0069                	.insn	2, 0x0069
 156:	7404                	.insn	2, 0x7404
 158:	017c                	.insn	2, 0x017c
 15a:	0464                	.insn	2, 0x0464
 15c:	e47c                	.insn	2, 0xe47c
 15e:	0102                	.insn	2, 0x0102
 160:	0462                	.insn	2, 0x0462
 162:	039c                	.insn	2, 0x039c
 164:	0588                	.insn	2, 0x0588
 166:	6201                	.insn	2, 0x6201
 168:	8c04                	.insn	2, 0x8c04
 16a:	8006                	.insn	2, 0x8006
 16c:	0109                	.insn	2, 0x0109
 16e:	0462                	.insn	2, 0x0462
 170:	0980                	.insn	2, 0x0980
 172:	09a0                	.insn	2, 0x09a0
 174:	6401                	.insn	2, 0x6401
 176:	a004                	.insn	2, 0xa004
 178:	f809                	.insn	2, 0xf809
 17a:	0084060b          	.insn	4, 0x0084060b
 17e:	9f240083          	lb	ra,-1550(s0)
 182:	8404                	.insn	2, 0x8404
 184:	900c                	.insn	2, 0x900c
 186:	010c                	.insn	2, 0x010c
 188:	0062                	.insn	2, 0x0062
 18a:	c804                	.insn	2, 0xc804
 18c:	9401                	.insn	2, 0x9401
 18e:	0102                	.insn	2, 0x0102
 190:	03ec0463          	beq	s8,t5,1b8 <MEM_START-0xe48>
 194:	04b8                	.insn	2, 0x04b8
 196:	6401                	.insn	2, 0x6401
 198:	b804                	.insn	2, 0xb804
 19a:	8c06                	.insn	2, 0x8c06
 19c:	0108                	.insn	2, 0x0108
 19e:	0466                	.insn	2, 0x0466
 1a0:	09a0                	.insn	2, 0x09a0
 1a2:	0af0                	.insn	2, 0x0af0
 1a4:	6501                	.insn	2, 0x6501
 1a6:	f004                	.insn	2, 0xf004
 1a8:	f00a                	.insn	2, 0xf00a
 1aa:	005e010b          	.insn	4, 0x005e010b
 1ae:	a804                	.insn	2, 0xa804
 1b0:	8006                	.insn	2, 0x8006
 1b2:	04630107          	.insn	4, 0x04630107
 1b6:	09a0                	.insn	2, 0x09a0
 1b8:	5a0109a7          	.insn	4, 0x5a0109a7
 1bc:	a704                	.insn	2, 0xa704
 1be:	d809                	.insn	2, 0xd809
 1c0:	0109                	.insn	2, 0x0109
 1c2:	0062                	.insn	2, 0x0062
 1c4:	9404                	.insn	2, 0x9404
 1c6:	01039c03          	lh	s8,16(t2)
 1ca:	045f 05b8 05c0      	.insn	6, 0x05c005b8045f
 1d0:	5f01                	.insn	2, 0x5f01
 1d2:	f004                	.insn	2, 0xf004
 1d4:	840a                	.insn	2, 0x840a
 1d6:	010c                	.insn	2, 0x010c
 1d8:	005f ec04 f003      	.insn	6, 0xf003ec04005f
 1de:	9f310203          	lb	tp,-1549(sp)
 1e2:	f004                	.insn	2, 0xf004
 1e4:	0105c003          	lbu	zero,16(a1) # 10010 <__modsi3+0xd038>
 1e8:	08880463          	beq	a6,s0,270 <MEM_START-0xd90>
 1ec:	088c                	.insn	2, 0x088c
 1ee:	6301                	.insn	2, 0x6301
 1f0:	0400                	.insn	2, 0x0400
 1f2:	06a0                	.insn	2, 0x06a0
 1f4:	06b4                	.insn	2, 0x06b4
 1f6:	5f01                	.insn	2, 0x5f01
 1f8:	f004                	.insn	2, 0xf004
 1fa:	8808                	.insn	2, 0x8808
 1fc:	0109                	.insn	2, 0x0109
 1fe:	0060                	.insn	2, 0x0060
 200:	b404                	.insn	2, 0xb404
 202:	df01                	.insn	2, 0xdf01
 204:	0101                	.insn	2, 0x0101
 206:	045e                	.insn	2, 0x045e
 208:	03e4                	.insn	2, 0x03e4
 20a:	03f0                	.insn	2, 0x03f0
 20c:	5e01                	.insn	2, 0x5e01
 20e:	a004                	.insn	2, 0xa004
 210:	cb06                	.insn	2, 0xcb06
 212:	0106                	.insn	2, 0x0106
 214:	045e                	.insn	2, 0x045e
 216:	08c4                	.insn	2, 0x08c4
 218:	08dc                	.insn	2, 0x08dc
 21a:	6301                	.insn	2, 0x6301
 21c:	f004                	.insn	2, 0xf004
 21e:	f808                	.insn	2, 0xf808
 220:	0063010b          	.insn	4, 0x0063010b
 224:	8804                	.insn	2, 0x8804
 226:	b801                	.insn	2, 0xb801
 228:	0101                	.insn	2, 0x0101
 22a:	045c                	.insn	2, 0x045c
 22c:	01b8                	.insn	2, 0x01b8
 22e:	01c4                	.insn	2, 0x01c4
 230:	7c09                	.insn	2, 0x7c09
 232:	7e00                	.insn	2, 0x7e00
 234:	0800                	.insn	2, 0x0800
 236:	9f241aff 9401c404 	.insn	12, 0x046501039401c4049f241aff
 23e:	04650103 
 242:	039c                	.insn	2, 0x039c
 244:	03b0                	.insn	2, 0x03b0
 246:	5c01                	.insn	2, 0x5c01
 248:	0400                	.insn	2, 0x0400
 24a:	019c                	.insn	2, 0x019c
 24c:	01b4                	.insn	2, 0x01b4
 24e:	5e01                	.insn	2, 0x5e01
 250:	0400                	.insn	2, 0x0400
 252:	01d0                	.insn	2, 0x01d0
 254:	0394                	.insn	2, 0x0394
 256:	6601                	.insn	2, 0x6601
 258:	0400                	.insn	2, 0x0400
 25a:	01e4                	.insn	2, 0x01e4
 25c:	02d4                	.insn	2, 0x02d4
 25e:	6701                	.insn	2, 0x6701
 260:	d404                	.insn	2, 0xd404
 262:	9402                	.insn	2, 0x9402
 264:	00850703          	lb	a4,8(a0)
 268:	2440                	.insn	2, 0x2440
 26a:	2540                	.insn	2, 0x2540
 26c:	009f ec04 f001      	.insn	6, 0xf001ec04009f
 272:	0101                	.insn	2, 0x0101
 274:	045a                	.insn	2, 0x045a
 276:	01f0                	.insn	2, 0x01f0
 278:	5b0101f3          	.insn	4, 0x5b0101f3
 27c:	f304                	.insn	2, 0xf304
 27e:	a001                	.insn	2, 0xa001
 280:	0102                	.insn	2, 0x0102
 282:	0464                	.insn	2, 0x0464
 284:	02a0                	.insn	2, 0x02a0
 286:	0394                	.insn	2, 0x0394
 288:	6301                	.insn	2, 0x6301
 28a:	0400                	.insn	2, 0x0400
 28c:	02c8                	.insn	2, 0x02c8
 28e:	02cc                	.insn	2, 0x02cc
 290:	5a01                	.insn	2, 0x5a01
 292:	cc04                	.insn	2, 0xcc04
 294:	cf02                	.insn	2, 0xcf02
 296:	0102                	.insn	2, 0x0102
 298:	02cf045b          	.insn	4, 0x02cf045b
 29c:	0380                	.insn	2, 0x0380
 29e:	6401                	.insn	2, 0x6401
 2a0:	8004                	.insn	2, 0x8004
 2a2:	01039403          	lh	s0,16(t2)
 2a6:	005e                	.insn	2, 0x005e
 2a8:	e404                	.insn	2, 0xe404
 2aa:	9001                	.insn	2, 0x9001
 2ac:	0602                	.insn	2, 0x0602
 2ae:	00860083          	lb	ra,8(a2)
 2b2:	9f1d                	.insn	2, 0x9f1d
 2b4:	9004                	.insn	2, 0x9004
 2b6:	9c02                	.insn	2, 0x9c02
 2b8:	0102                	.insn	2, 0x0102
 2ba:	045e                	.insn	2, 0x045e
 2bc:	029c                	.insn	2, 0x029c
 2be:	02a0                	.insn	2, 0x02a0
 2c0:	8208                	.insn	2, 0x8208
 2c2:	4000                	.insn	2, 0x4000
 2c4:	7a25                	.insn	2, 0x7a25
 2c6:	2100                	.insn	2, 0x2100
 2c8:	049f 02a0 02b4      	.insn	6, 0x02b402a0049f
 2ce:	5e01                	.insn	2, 0x5e01
 2d0:	b404                	.insn	2, 0xb404
 2d2:	9402                	.insn	2, 0x9402
 2d4:	00580103          	lb	sp,5(a6) # 590b538d <stack_bot+0x5909138d>
 2d8:	b404                	.insn	2, 0xb404
 2da:	f002                	.insn	2, 0xf002
 2dc:	0602                	.insn	2, 0x0602
 2de:	0078                	.insn	2, 0x0078
 2e0:	0086                	.insn	2, 0x0086
 2e2:	9f1d                	.insn	2, 0x9f1d
 2e4:	f004                	.insn	2, 0xf004
 2e6:	fc02                	.insn	2, 0xfc02
 2e8:	0102                	.insn	2, 0x0102
 2ea:	0062                	.insn	2, 0x0062
 2ec:	f804                	.insn	2, 0xf804
 2ee:	b401                	.insn	2, 0xb401
 2f0:	0102                	.insn	2, 0x0102
 2f2:	0458                	.insn	2, 0x0458
 2f4:	02d4                	.insn	2, 0x02d4
 2f6:	02dc                	.insn	2, 0x02dc
 2f8:	5a01                	.insn	2, 0x5a01
 2fa:	dc04                	.insn	2, 0xdc04
 2fc:	9402                	.insn	2, 0x9402
 2fe:	00670103          	lb	sp,6(a4)
 302:	d804                	.insn	2, 0xd804
 304:	010c800b          	.insn	4, 0x010c800b
 308:	005c                	.insn	2, 0x005c
 30a:	d804                	.insn	2, 0xd804
 30c:	100be40b          	.insn	4, 0x100be40b
 310:	0081                	.insn	2, 0x0081
 312:	ff0a                	.insn	2, 0xff0a
 314:	007d1aff 1affff0a 	.insn	12, 0x9f2224401affff0a007d1aff
 31c:	9f222440 
 320:	0400                	.insn	2, 0x0400
 322:	09a0                	.insn	2, 0x09a0
 324:	5b0109a7          	.insn	4, 0x5b0109a7
 328:	a704                	.insn	2, 0xa704
 32a:	8409                	.insn	2, 0x8409
 32c:	010c                	.insn	2, 0x010c
 32e:	a4040067          	jr	-1472(s0)
 332:	9809                	.insn	2, 0x9809
 334:	010a                	.insn	2, 0x010a
 336:	0468                	.insn	2, 0x0468
 338:	0a98                	.insn	2, 0x0a98
 33a:	0c84                	.insn	2, 0x0c84
 33c:	40008907          	.insn	4, 0x40008907
 340:	4024                	.insn	2, 0x4024
 342:	9f25                	.insn	2, 0x9f25
 344:	0400                	.insn	2, 0x0400
 346:	09b0                	.insn	2, 0x09b0
 348:	09b4                	.insn	2, 0x09b4
 34a:	5a01                	.insn	2, 0x5a01
 34c:	b404                	.insn	2, 0xb404
 34e:	b709                	.insn	2, 0xb709
 350:	0109                	.insn	2, 0x0109
 352:	09b7045b          	.insn	4, 0x09b7045b
 356:	09e4                	.insn	2, 0x09e4
 358:	6a01                	.insn	2, 0x6a01
 35a:	e404                	.insn	2, 0xe404
 35c:	8409                	.insn	2, 0x8409
 35e:	010c                	.insn	2, 0x010c
 360:	0062                	.insn	2, 0x0062
 362:	8c04                	.insn	2, 0x8c04
 364:	900a                	.insn	2, 0x900a
 366:	010a                	.insn	2, 0x010a
 368:	045a                	.insn	2, 0x045a
 36a:	0a90                	.insn	2, 0x0a90
 36c:	5b010a93          	addi	s5,sp,1456
 370:	9304                	.insn	2, 0x9304
 372:	c40a                	.insn	2, 0xc40a
 374:	010a                	.insn	2, 0x010a
 376:	046a                	.insn	2, 0x046a
 378:	0ac4                	.insn	2, 0x0ac4
 37a:	0b84                	.insn	2, 0x0b84
 37c:	5d01                	.insn	2, 0x5d01
 37e:	0400                	.insn	2, 0x0400
 380:	09a4                	.insn	2, 0x09a4
 382:	7a0609a7          	.insn	4, 0x7a0609a7
 386:	7b00                	.insn	2, 0x7b00
 388:	1d00                	.insn	2, 0x1d00
 38a:	049f 09a7 09d4      	.insn	6, 0x09d409a7049f
 390:	8206                	.insn	2, 0x8206
 392:	8700                	.insn	2, 0x8700
 394:	1d00                	.insn	2, 0x1d00
 396:	049f 09d4 09e0      	.insn	6, 0x09e009d4049f
 39c:	5d01                	.insn	2, 0x5d01
 39e:	e004                	.insn	2, 0xe004
 3a0:	e409                	.insn	2, 0xe409
 3a2:	0809                	.insn	2, 0x0809
 3a4:	0085                	.insn	2, 0x0085
 3a6:	2540                	.insn	2, 0x2540
 3a8:	007a                	.insn	2, 0x007a
 3aa:	9f21                	.insn	2, 0x9f21
 3ac:	e404                	.insn	2, 0xe404
 3ae:	f809                	.insn	2, 0xf809
 3b0:	0109                	.insn	2, 0x0109
 3b2:	045d                	.insn	2, 0x045d
 3b4:	09f8                	.insn	2, 0x09f8
 3b6:	0c84                	.insn	2, 0x0c84
 3b8:	6601                	.insn	2, 0x6601
 3ba:	0400                	.insn	2, 0x0400
 3bc:	09f8                	.insn	2, 0x09f8
 3be:	0ab4                	.insn	2, 0x0ab4
 3c0:	8606                	.insn	2, 0x8606
 3c2:	8700                	.insn	2, 0x8700
 3c4:	1d00                	.insn	2, 0x1d00
 3c6:	049f 0ab4 0ac0      	.insn	6, 0x0ac00ab4049f
 3cc:	5e01                	.insn	2, 0x5e01
 3ce:	c004                	.insn	2, 0xc004
 3d0:	c40a                	.insn	2, 0xc40a
 3d2:	0a0a                	.insn	2, 0x0a0a
 3d4:	0085                	.insn	2, 0x0085
 3d6:	2440                	.insn	2, 0x2440
 3d8:	2540                	.insn	2, 0x2540
 3da:	007a                	.insn	2, 0x007a
 3dc:	9f21                	.insn	2, 0x9f21
 3de:	c404                	.insn	2, 0xc404
 3e0:	f00a                	.insn	2, 0xf00a
 3e2:	005e010b          	.insn	4, 0x005e010b
 3e6:	bc04                	.insn	2, 0xbc04
 3e8:	c409                	.insn	2, 0xc409
 3ea:	0109                	.insn	2, 0x0109
 3ec:	045a                	.insn	2, 0x045a
 3ee:	09c4                	.insn	2, 0x09c4
 3f0:	09f8                	.insn	2, 0x09f8
 3f2:	6601                	.insn	2, 0x6601
 3f4:	9804                	.insn	2, 0x9804
 3f6:	a00a                	.insn	2, 0xa00a
 3f8:	010a                	.insn	2, 0x010a
 3fa:	045a                	.insn	2, 0x045a
 3fc:	0aa0                	.insn	2, 0x0aa0
 3fe:	0c84                	.insn	2, 0x0c84
 400:	6801                	.insn	2, 0x6801
 402:	0400                	.insn	2, 0x0400
 404:	0b88                	.insn	2, 0x0b88
 406:	0b90                	.insn	2, 0x0b90
 408:	5a01                	.insn	2, 0x5a01
 40a:	9004                	.insn	2, 0x9004
 40c:	010be40b          	.insn	4, 0x010be40b
 410:	0061                	.insn	2, 0x0061
 412:	9804                	.insn	2, 0x9804
 414:	010ba00b          	.insn	4, 0x010ba00b
 418:	045a                	.insn	2, 0x045a
 41a:	0ba0                	.insn	2, 0x0ba0
 41c:	0bbc                	.insn	2, 0x0bbc
 41e:	6001                	.insn	2, 0x6001
 420:	c404                	.insn	2, 0xc404
 422:	010be80b          	.insn	4, 0x010be80b
 426:	005d                	.insn	2, 0x005d
 428:	a804                	.insn	2, 0xa804
 42a:	010c840b          	.insn	4, 0x010c840b
 42e:	0056                	.insn	2, 0x0056
 430:	c404                	.insn	2, 0xc404
 432:	010bd00b          	.insn	4, 0x010bd00b
 436:	045a                	.insn	2, 0x045a
 438:	0bd0                	.insn	2, 0x0bd0
 43a:	0bd8                	.insn	2, 0x0bd8
 43c:	5c01                	.insn	2, 0x5c01
 43e:	0400                	.insn	2, 0x0400
 440:	0af0                	.insn	2, 0x0af0
 442:	0b98                	.insn	2, 0x0b98
 444:	6001                	.insn	2, 0x6001
 446:	0400                	.insn	2, 0x0400
 448:	0af4                	.insn	2, 0x0af4
 44a:	0ba8                	.insn	2, 0x0ba8
 44c:	5601                	.insn	2, 0x5601
 44e:	0400                	.insn	2, 0x0400
 450:	0af4                	.insn	2, 0x0af4
 452:	0c84                	.insn	2, 0x0c84
 454:	6c01                	.insn	2, 0x6c01
 456:	0400                	.insn	2, 0x0400
 458:	0af8                	.insn	2, 0x0af8
 45a:	0c84                	.insn	2, 0x0c84
 45c:	5801                	.insn	2, 0x5801
 45e:	0400                	.insn	2, 0x0400
 460:	03b8                	.insn	2, 0x03b8
 462:	03c0                	.insn	2, 0x03c0
 464:	5c01                	.insn	2, 0x5c01
 466:	8c04                	.insn	2, 0x8c04
 468:	a006                	.insn	2, 0xa006
 46a:	0106                	.insn	2, 0x0106
 46c:	005c                	.insn	2, 0x005c
 46e:	cc04                	.insn	2, 0xcc04
 470:	0103e403          	.insn	4, 0x0103e403
 474:	005e                	.insn	2, 0x005e
 476:	f404                	.insn	2, 0xf404
 478:	0105b803          	.insn	4, 0x0105b803
 47c:	0066                	.insn	2, 0x0066
 47e:	8804                	.insn	2, 0x8804
 480:	f804                	.insn	2, 0xf804
 482:	0104                	.insn	2, 0x0104
 484:	04f80467          	jalr	s0,79(a6)
 488:	05b8                	.insn	2, 0x05b8
 48a:	40008507          	.insn	4, 0x40008507
 48e:	4024                	.insn	2, 0x4024
 490:	9f25                	.insn	2, 0x9f25
 492:	0400                	.insn	2, 0x0400
 494:	0490                	.insn	2, 0x0490
 496:	0494                	.insn	2, 0x0494
 498:	5a01                	.insn	2, 0x5a01
 49a:	9404                	.insn	2, 0x9404
 49c:	9704                	.insn	2, 0x9704
 49e:	0104                	.insn	2, 0x0104
 4a0:	0497045b          	.insn	4, 0x0497045b
 4a4:	04c4                	.insn	2, 0x04c4
 4a6:	6901                	.insn	2, 0x6901
 4a8:	c404                	.insn	2, 0xc404
 4aa:	b804                	.insn	2, 0xb804
 4ac:	0105                	.insn	2, 0x0105
 4ae:	0064                	.insn	2, 0x0064
 4b0:	ec04                	.insn	2, 0xec04
 4b2:	f004                	.insn	2, 0xf004
 4b4:	0104                	.insn	2, 0x0104
 4b6:	045a                	.insn	2, 0x045a
 4b8:	04f0                	.insn	2, 0x04f0
 4ba:	5b0104f3          	.insn	4, 0x5b0104f3
 4be:	f304                	.insn	2, 0xf304
 4c0:	a404                	.insn	2, 0xa404
 4c2:	0105                	.insn	2, 0x0105
 4c4:	0468                	.insn	2, 0x0468
 4c6:	05a4                	.insn	2, 0x05a4
 4c8:	05b8                	.insn	2, 0x05b8
 4ca:	5e01                	.insn	2, 0x5e01
 4cc:	0400                	.insn	2, 0x0400
 4ce:	0488                	.insn	2, 0x0488
 4d0:	04b4                	.insn	2, 0x04b4
 4d2:	8406                	.insn	2, 0x8406
 4d4:	8600                	.insn	2, 0x8600
 4d6:	1d00                	.insn	2, 0x1d00
 4d8:	049f 04b4 04c0      	.insn	6, 0x04c004b4049f
 4de:	5e01                	.insn	2, 0x5e01
 4e0:	c004                	.insn	2, 0xc004
 4e2:	c404                	.insn	2, 0xc404
 4e4:	0804                	.insn	2, 0x0804
 4e6:	0082                	.insn	2, 0x0082
 4e8:	2540                	.insn	2, 0x2540
 4ea:	007a                	.insn	2, 0x007a
 4ec:	9f21                	.insn	2, 0x9f21
 4ee:	c404                	.insn	2, 0xc404
 4f0:	d804                	.insn	2, 0xd804
 4f2:	0104                	.insn	2, 0x0104
 4f4:	045e                	.insn	2, 0x045e
 4f6:	04d8                	.insn	2, 0x04d8
 4f8:	05b8                	.insn	2, 0x05b8
 4fa:	5801                	.insn	2, 0x5801
 4fc:	0400                	.insn	2, 0x0400
 4fe:	04d8                	.insn	2, 0x04d8
 500:	0594                	.insn	2, 0x0594
 502:	7806                	.insn	2, 0x7806
 504:	8600                	.insn	2, 0x8600
 506:	1d00                	.insn	2, 0x1d00
 508:	049f 0594 05a0      	.insn	6, 0x05a00594049f
 50e:	6201                	.insn	2, 0x6201
 510:	0400                	.insn	2, 0x0400
 512:	049c                	.insn	2, 0x049c
 514:	04a4                	.insn	2, 0x04a4
 516:	5a01                	.insn	2, 0x5a01
 518:	a404                	.insn	2, 0xa404
 51a:	ec04                	.insn	2, 0xec04
 51c:	0104                	.insn	2, 0x0104
 51e:	0468                	.insn	2, 0x0468
 520:	04f8                	.insn	2, 0x04f8
 522:	0580                	.insn	2, 0x0580
 524:	5a01                	.insn	2, 0x5a01
 526:	8004                	.insn	2, 0x8004
 528:	b805                	.insn	2, 0xb805
 52a:	0105                	.insn	2, 0x0105
 52c:	bc040067          	jr	-1088(s0)
 530:	8c06                	.insn	2, 0x8c06
 532:	0108                	.insn	2, 0x0108
 534:	d0040067          	jr	-768(s0)
 538:	c006                	.insn	2, 0xc006
 53a:	04640107          	.insn	4, 0x04640107
 53e:	07c0                	.insn	2, 0x07c0
 540:	088c                	.insn	2, 0x088c
 542:	40008507          	.insn	4, 0x40008507
 546:	4024                	.insn	2, 0x4024
 548:	9f25                	.insn	2, 0x9f25
 54a:	0400                	.insn	2, 0x0400
 54c:	06d8                	.insn	2, 0x06d8
 54e:	06dc                	.insn	2, 0x06dc
 550:	5a01                	.insn	2, 0x5a01
 552:	dc04                	.insn	2, 0xdc04
 554:	df06                	.insn	2, 0xdf06
 556:	0106                	.insn	2, 0x0106
 558:	06df045b          	.insn	4, 0x06df045b
 55c:	078c                	.insn	2, 0x078c
 55e:	6801                	.insn	2, 0x6801
 560:	8c04                	.insn	2, 0x8c04
 562:	01088007          	.insn	4, 0x01088007
 566:	b4040063          	beqz	s0,fffff8a6 <stack_bot+0xfffdb8a6>
 56a:	0107b807          	.insn	4, 0x0107b807
 56e:	045a                	.insn	2, 0x045a
 570:	07b8                	.insn	2, 0x07b8
 572:	5b0107bb          	.insn	4, 0x5b0107bb
 576:	bb04                	.insn	2, 0xbb04
 578:	0107ec07          	.insn	4, 0x0107ec07
 57c:	0468                	.insn	2, 0x0468
 57e:	07ec                	.insn	2, 0x07ec
 580:	088c                	.insn	2, 0x088c
 582:	5e01                	.insn	2, 0x5e01
 584:	0400                	.insn	2, 0x0400
 586:	06d0                	.insn	2, 0x06d0
 588:	06fc                	.insn	2, 0x06fc
 58a:	8306                	.insn	2, 0x8306
 58c:	8700                	.insn	2, 0x8700
 58e:	1d00                	.insn	2, 0x1d00
 590:	049f 06fc 0788      	.insn	6, 0x078806fc049f
 596:	5e01                	.insn	2, 0x5e01
 598:	8804                	.insn	2, 0x8804
 59a:	08078c07          	.insn	4, 0x08078c07
 59e:	0086                	.insn	2, 0x0086
 5a0:	2540                	.insn	2, 0x2540
 5a2:	007a                	.insn	2, 0x007a
 5a4:	9f21                	.insn	2, 0x9f21
 5a6:	8c04                	.insn	2, 0x8c04
 5a8:	0107a007          	.insn	4, 0x0107a007
 5ac:	045e                	.insn	2, 0x045e
 5ae:	07a0                	.insn	2, 0x07a0
 5b0:	088c                	.insn	2, 0x088c
 5b2:	5801                	.insn	2, 0x5801
 5b4:	0400                	.insn	2, 0x0400
 5b6:	07a0                	.insn	2, 0x07a0
 5b8:	07dc                	.insn	2, 0x07dc
 5ba:	7806                	.insn	2, 0x7806
 5bc:	8700                	.insn	2, 0x8700
 5be:	1d00                	.insn	2, 0x1d00
 5c0:	049f 07dc 07e8      	.insn	6, 0x07e807dc049f
 5c6:	5f01                	.insn	2, 0x5f01
 5c8:	e804                	.insn	2, 0xe804
 5ca:	0a07ec07          	.insn	4, 0x0a07ec07
 5ce:	0086                	.insn	2, 0x0086
 5d0:	2440                	.insn	2, 0x2440
 5d2:	2540                	.insn	2, 0x2540
 5d4:	007a                	.insn	2, 0x007a
 5d6:	9f21                	.insn	2, 0x9f21
 5d8:	ec04                	.insn	2, 0xec04
 5da:	01088407          	.insn	4, 0x01088407
 5de:	045f 0884 088c      	.insn	6, 0x088c0884045f
 5e4:	6401                	.insn	2, 0x6401
 5e6:	0400                	.insn	2, 0x0400
 5e8:	06e4                	.insn	2, 0x06e4
 5ea:	07a0                	.insn	2, 0x07a0
 5ec:	5801                	.insn	2, 0x5801
 5ee:	c004                	.insn	2, 0xc004
 5f0:	0107c807          	.insn	4, 0x0107c807
 5f4:	045a                	.insn	2, 0x045a
 5f6:	07c8                	.insn	2, 0x07c8
 5f8:	0884                	.insn	2, 0x0884
 5fa:	6401                	.insn	2, 0x6401
 5fc:	0400                	.insn	2, 0x0400
 5fe:	0890                	.insn	2, 0x0890
 600:	08f4                	.insn	2, 0x08f4
 602:	5d01                	.insn	2, 0x5d01
 604:	0400                	.insn	2, 0x0400
 606:	08a4                	.insn	2, 0x08a4
 608:	08dc                	.insn	2, 0x08dc
 60a:	5e01                	.insn	2, 0x5e01
 60c:	f004                	.insn	2, 0xf004
 60e:	a708                	.insn	2, 0xa708
 610:	0109                	.insn	2, 0x0109
 612:	005e                	.insn	2, 0x005e
 614:	05d2                	.insn	2, 0x05d2
 616:	0000                	.insn	2, 0x
 618:	0005                	.insn	2, 0x0005
 61a:	0004                	.insn	2, 0x0004
 61c:	0000                	.insn	2, 0x
 61e:	0000                	.insn	2, 0x
 620:	0004                	.insn	2, 0x0004
 622:	0650                	.insn	2, 0x0650
 624:	935a                	.insn	2, 0x935a
 626:	5b04                	.insn	2, 0x5b04
 628:	50040493          	addi	s1,s0,1280
 62c:	0b84                	.insn	2, 0x0b84
 62e:	a306                	.insn	2, 0xa306
 630:	2d0aa503          	lw	a0,720(s5)
 634:	009f 0004 0668      	.insn	6, 0x06680004009f
 63a:	935c                	.insn	2, 0x935c
 63c:	5d04                	.insn	2, 0x5d04
 63e:	68040493          	addi	s1,s0,1664
 642:	0b84                	.insn	2, 0x0b84
 644:	a306                	.insn	2, 0xa306
 646:	2d0ca503          	lw	a0,720(s9)
 64a:	009f 0004 0240      	.insn	6, 0x02400004009f
 650:	9f30                	.insn	2, 0x9f30
 652:	4004                	.insn	2, 0x4004
 654:	0354                	.insn	2, 0x0354
 656:	ff09                	.insn	2, 0xff09
 658:	049f 9054 0103      	.insn	6, 0x01039054049f
 65e:	0459                	.insn	2, 0x0459
 660:	03c0                	.insn	2, 0x03c0
 662:	0b84                	.insn	2, 0x0b84
 664:	5901                	.insn	2, 0x5901
 666:	0400                	.insn	2, 0x0400
 668:	4000                	.insn	2, 0x4000
 66a:	5a06                	.insn	2, 0x5a06
 66c:	935b0493          	addi	s1,s6,-1739
 670:	0004                	.insn	2, 0x0004
 672:	0004                	.insn	2, 0x0004
 674:	0660                	.insn	2, 0x0660
 676:	935c                	.insn	2, 0x935c
 678:	5d04                	.insn	2, 0x5d04
 67a:	68040493          	addi	s1,s0,1664
 67e:	0198                	.insn	2, 0x0198
 680:	5c06                	.insn	2, 0x5c06
 682:	935d0493          	addi	s1,s10,-1739
 686:	0404                	.insn	2, 0x0404
 688:	03c0                	.insn	2, 0x03c0
 68a:	03c4                	.insn	2, 0x03c4
 68c:	5c06                	.insn	2, 0x5c06
 68e:	935d0493          	addi	s1,s10,-1739
 692:	0404                	.insn	2, 0x0404
 694:	03d4                	.insn	2, 0x03d4
 696:	03f0                	.insn	2, 0x03f0
 698:	5c06                	.insn	2, 0x5c06
 69a:	935d0493          	addi	s1,s10,-1739
 69e:	0404                	.insn	2, 0x0404
 6a0:	06bc                	.insn	2, 0x06bc
 6a2:	06c0                	.insn	2, 0x06c0
 6a4:	5c06                	.insn	2, 0x5c06
 6a6:	935d0493          	addi	s1,s10,-1739
 6aa:	0404                	.insn	2, 0x0404
 6ac:	06d0                	.insn	2, 0x06d0
 6ae:	079c                	.insn	2, 0x079c
 6b0:	5c06                	.insn	2, 0x5c06
 6b2:	935d0493          	addi	s1,s10,-1739
 6b6:	0404                	.insn	2, 0x0404
 6b8:	07b4                	.insn	2, 0x07b4
 6ba:	07cc                	.insn	2, 0x07cc
 6bc:	5c06                	.insn	2, 0x5c06
 6be:	935d0493          	addi	s1,s10,-1739
 6c2:	0004                	.insn	2, 0x0004
 6c4:	f004                	.insn	2, 0xf004
 6c6:	fc02                	.insn	2, 0xfc02
 6c8:	0602                	.insn	2, 0x0602
 6ca:	935a                	.insn	2, 0x935a
 6cc:	5b04                	.insn	2, 0x5b04
 6ce:	04000493          	li	s1,64
 6d2:	9868                	.insn	2, 0x9868
 6d4:	0601                	.insn	2, 0x0601
 6d6:	935c                	.insn	2, 0x935c
 6d8:	5d04                	.insn	2, 0x5d04
 6da:	c0040493          	addi	s1,s0,-1024
 6de:	0603c403          	lbu	s0,96(t2)
 6e2:	935c                	.insn	2, 0x935c
 6e4:	5d04                	.insn	2, 0x5d04
 6e6:	d4040493          	addi	s1,s0,-704
 6ea:	0603f003          	.insn	4, 0x0603f003
 6ee:	935c                	.insn	2, 0x935c
 6f0:	5d04                	.insn	2, 0x5d04
 6f2:	bc040493          	addi	s1,s0,-1088
 6f6:	c006                	.insn	2, 0xc006
 6f8:	0606                	.insn	2, 0x0606
 6fa:	935c                	.insn	2, 0x935c
 6fc:	5d04                	.insn	2, 0x5d04
 6fe:	d0040493          	addi	s1,s0,-768
 702:	9c06                	.insn	2, 0x9c06
 704:	935c0607          	.insn	4, 0x935c0607
 708:	5d04                	.insn	2, 0x5d04
 70a:	b4040493          	addi	s1,s0,-1216
 70e:	0607cc07          	.insn	4, 0x0607cc07
 712:	935c                	.insn	2, 0x935c
 714:	5d04                	.insn	2, 0x5d04
 716:	04000493          	li	s1,64
 71a:	f068                	.insn	2, 0xf068
 71c:	0602                	.insn	2, 0x0602
 71e:	53a0                	.insn	2, 0x53a0
 720:	0000000b          	.insn	4, 0x000b
 724:	c004                	.insn	2, 0xc004
 726:	060b8403          	lb	s0,96(s7)
 72a:	53a0                	.insn	2, 0x53a0
 72c:	0000000b          	.insn	4, 0x000b
 730:	0400                	.insn	2, 0x0400
 732:	c06c                	.insn	2, 0xc06c
 734:	0101                	.insn	2, 0x0101
 736:	045c                	.insn	2, 0x045c
 738:	01c0                	.insn	2, 0x01c0
 73a:	02f0                	.insn	2, 0x02f0
 73c:	6401                	.insn	2, 0x6401
 73e:	c004                	.insn	2, 0xc004
 740:	0103e403          	.insn	4, 0x0103e403
 744:	045c                	.insn	2, 0x045c
 746:	0494                	.insn	2, 0x0494
 748:	06bc                	.insn	2, 0x06bc
 74a:	6401                	.insn	2, 0x6401
 74c:	bc04                	.insn	2, 0xbc04
 74e:	fc06                	.insn	2, 0xfc06
 750:	045c0107          	.insn	4, 0x045c0107
 754:	07fc                	.insn	2, 0x07fc
 756:	0ad0                	.insn	2, 0x0ad0
 758:	6201                	.insn	2, 0x6201
 75a:	0400                	.insn	2, 0x0400
 75c:	986c                	.insn	2, 0x986c
 75e:	0101                	.insn	2, 0x0101
 760:	045d                	.insn	2, 0x045d
 762:	03c0                	.insn	2, 0x03c0
 764:	03c4                	.insn	2, 0x03c4
 766:	5d01                	.insn	2, 0x5d01
 768:	d404                	.insn	2, 0xd404
 76a:	0103f003          	.insn	4, 0x0103f003
 76e:	045d                	.insn	2, 0x045d
 770:	06bc                	.insn	2, 0x06bc
 772:	06c0                	.insn	2, 0x06c0
 774:	5d01                	.insn	2, 0x5d01
 776:	d004                	.insn	2, 0xd004
 778:	9c06                	.insn	2, 0x9c06
 77a:	045d0107          	.insn	4, 0x045d0107
 77e:	07b4                	.insn	2, 0x07b4
 780:	07cc                	.insn	2, 0x07cc
 782:	5d01                	.insn	2, 0x5d01
 784:	d404                	.insn	2, 0xd404
 786:	010b8407          	.insn	4, 0x010b8407
 78a:	0066                	.insn	2, 0x0066
 78c:	7004                	.insn	2, 0x7004
 78e:	0178                	.insn	2, 0x0178
 790:	045a                	.insn	2, 0x045a
 792:	c878                	.insn	2, 0xc878
 794:	0101                	.insn	2, 0x0101
 796:	0458                	.insn	2, 0x0458
 798:	02e8                	.insn	2, 0x02e8
 79a:	02f0                	.insn	2, 0x02f0
 79c:	5801                	.insn	2, 0x5801
 79e:	c004                	.insn	2, 0xc004
 7a0:	0105c803          	lbu	a6,16(a1)
 7a4:	0458                	.insn	2, 0x0458
 7a6:	06bc                	.insn	2, 0x06bc
 7a8:	07a4                	.insn	2, 0x07a4
 7aa:	5801                	.insn	2, 0x5801
 7ac:	a404                	.insn	2, 0xa404
 7ae:	0107a807          	.insn	4, 0x0107a807
 7b2:	045a                	.insn	2, 0x045a
 7b4:	07b4                	.insn	2, 0x07b4
 7b6:	07dc                	.insn	2, 0x07dc
 7b8:	5801                	.insn	2, 0x5801
 7ba:	dc04                	.insn	2, 0xdc04
 7bc:	0107f407          	.insn	4, 0x0107f407
 7c0:	045a                	.insn	2, 0x045a
 7c2:	07fc                	.insn	2, 0x07fc
 7c4:	0ae8                	.insn	2, 0x0ae8
 7c6:	6301                	.insn	2, 0x6301
 7c8:	f004                	.insn	2, 0xf004
 7ca:	f80a                	.insn	2, 0xf80a
 7cc:	010a                	.insn	2, 0x010a
 7ce:	0058                	.insn	2, 0x0058
 7d0:	c404                	.insn	2, 0xc404
 7d2:	c801                	.insn	2, 0xc801
 7d4:	0101                	.insn	2, 0x0101
 7d6:	0466                	.insn	2, 0x0466
 7d8:	04a8                	.insn	2, 0x04a8
 7da:	05c8                	.insn	2, 0x05c8
 7dc:	6501                	.insn	2, 0x6501
 7de:	c804                	.insn	2, 0xc804
 7e0:	9c05                	.insn	2, 0x9c05
 7e2:	0106                	.insn	2, 0x0106
 7e4:	0462                	.insn	2, 0x0462
 7e6:	07fc                	.insn	2, 0x07fc
 7e8:	09cc                	.insn	2, 0x09cc
 7ea:	5801                	.insn	2, 0x5801
 7ec:	cc04                	.insn	2, 0xcc04
 7ee:	f009                	.insn	2, 0xf009
 7f0:	010a                	.insn	2, 0x010a
 7f2:	045e                	.insn	2, 0x045e
 7f4:	0af0                	.insn	2, 0x0af0
 7f6:	0b80                	.insn	2, 0x0b80
 7f8:	5b01                	.insn	2, 0x5b01
 7fa:	8004                	.insn	2, 0x8004
 7fc:	090b840b          	.insn	4, 0x090b840b
 800:	007e                	.insn	2, 0x007e
 802:	007f 831c 1c00 009f 	.insn	10, 0x9804009f1c00831c007f
 80a:	9804 
 80c:	c804                	.insn	2, 0xc804
 80e:	0105                	.insn	2, 0x0105
 810:	0462                	.insn	2, 0x0462
 812:	07fc                	.insn	2, 0x07fc
 814:	5a010883          	lb	a7,1440(sp)
 818:	8304                	.insn	2, 0x8304
 81a:	b408                	.insn	2, 0xb408
 81c:	0108                	.insn	2, 0x0108
 81e:	0069                	.insn	2, 0x0069
 820:	9404                	.insn	2, 0x9404
 822:	0207a807          	.insn	4, 0x0207a807
 826:	9f31                	.insn	2, 0x9f31
 828:	0400                	.insn	2, 0x0400
 82a:	07a8                	.insn	2, 0x07a8
 82c:	07b4                	.insn	2, 0x07b4
 82e:	3002                	.insn	2, 0x3002
 830:	049f 0ae0 0b84      	.insn	6, 0x0b840ae0049f
 836:	3002                	.insn	2, 0x3002
 838:	009f 9004 a004      	.insn	6, 0xa0049004009f
 83e:	0104                	.insn	2, 0x0104
 840:	045f 07c8 0af4      	.insn	6, 0x0af407c8045f
 846:	6501                	.insn	2, 0x6501
 848:	0400                	.insn	2, 0x0400
 84a:	01b0                	.insn	2, 0x01b0
 84c:	02f0                	.insn	2, 0x02f0
 84e:	6301                	.insn	2, 0x6301
 850:	8c04                	.insn	2, 0x8c04
 852:	bc04                	.insn	2, 0xbc04
 854:	0106                	.insn	2, 0x0106
 856:	07880463          	beq	a6,s8,8be <MEM_START-0x742>
 85a:	07b4                	.insn	2, 0x07b4
 85c:	6401                	.insn	2, 0x6401
 85e:	c804                	.insn	2, 0xc804
 860:	010b8407          	.insn	4, 0x010b8407
 864:	0064                	.insn	2, 0x0064
 866:	8404                	.insn	2, 0x8404
 868:	db01                	.insn	2, 0xdb01
 86a:	0101                	.insn	2, 0x0101
 86c:	045c                	.insn	2, 0x045c
 86e:	03c0                	.insn	2, 0x03c0
 870:	03d4                	.insn	2, 0x03d4
 872:	5c01                	.insn	2, 0x5c01
 874:	0400                	.insn	2, 0x0400
 876:	0198                	.insn	2, 0x0198
 878:	01ac                	.insn	2, 0x01ac
 87a:	5e01                	.insn	2, 0x5e01
 87c:	0400                	.insn	2, 0x0400
 87e:	01cc                	.insn	2, 0x01cc
 880:	02b8                	.insn	2, 0x02b8
 882:	6701                	.insn	2, 0x6701
 884:	0400                	.insn	2, 0x0400
 886:	01e0                	.insn	2, 0x01e0
 888:	02b4                	.insn	2, 0x02b4
 88a:	6501                	.insn	2, 0x6501
 88c:	b404                	.insn	2, 0xb404
 88e:	b802                	.insn	2, 0xb802
 890:	0702                	.insn	2, 0x0702
 892:	0084                	.insn	2, 0x0084
 894:	2440                	.insn	2, 0x2440
 896:	2540                	.insn	2, 0x2540
 898:	009f 9c04 b802      	.insn	6, 0xb8029c04009f
 89e:	0c02                	.insn	2, 0x0c02
 8a0:	0082                	.insn	2, 0x0082
 8a2:	26a8                	.insn	2, 0x26a8
 8a4:	26a80087          	.insn	4, 0x26a80087
 8a8:	9f00a81b          	.insn	4, 0x9f00a81b
 8ac:	0400                	.insn	2, 0x0400
 8ae:	0284                	.insn	2, 0x0284
 8b0:	029c                	.insn	2, 0x029c
 8b2:	5f01                	.insn	2, 0x5f01
 8b4:	9c04                	.insn	2, 0x9c04
 8b6:	b802                	.insn	2, 0xb802
 8b8:	0102                	.insn	2, 0x0102
 8ba:	0062                	.insn	2, 0x0062
 8bc:	9c04                	.insn	2, 0x9c04
 8be:	b802                	.insn	2, 0xb802
 8c0:	0602                	.insn	2, 0x0602
 8c2:	0082                	.insn	2, 0x0082
 8c4:	9f1d0087          	.insn	4, 0x9f1d0087
 8c8:	0400                	.insn	2, 0x0400
 8ca:	01ec                	.insn	2, 0x01ec
 8cc:	01f4                	.insn	2, 0x01f4
 8ce:	5a01                	.insn	2, 0x5a01
 8d0:	f404                	.insn	2, 0xf404
 8d2:	9c01                	.insn	2, 0x9c01
 8d4:	0102                	.insn	2, 0x0102
 8d6:	0462                	.insn	2, 0x0462
 8d8:	02b4                	.insn	2, 0x02b4
 8da:	02b8                	.insn	2, 0x02b8
 8dc:	5a01                	.insn	2, 0x5a01
 8de:	0400                	.insn	2, 0x0400
 8e0:	05cc                	.insn	2, 0x05cc
 8e2:	06bc                	.insn	2, 0x06bc
 8e4:	6601                	.insn	2, 0x6601
 8e6:	0400                	.insn	2, 0x0400
 8e8:	05e0                	.insn	2, 0x05e0
 8ea:	06bc                	.insn	2, 0x06bc
 8ec:	6701                	.insn	2, 0x6701
 8ee:	0400                	.insn	2, 0x0400
 8f0:	05e0                	.insn	2, 0x05e0
 8f2:	0688                	.insn	2, 0x0688
 8f4:	820c                	.insn	2, 0x820c
 8f6:	a800                	.insn	2, 0xa800
 8f8:	8626                	.insn	2, 0x8626
 8fa:	a800                	.insn	2, 0xa800
 8fc:	1b26                	.insn	2, 0x1b26
 8fe:	00a8                	.insn	2, 0x00a8
 900:	049f 0688 0694      	.insn	6, 0x06940688049f
 906:	820e                	.insn	2, 0x820e
 908:	a800                	.insn	2, 0xa800
 90a:	8626                	.insn	2, 0x8626
 90c:	a800                	.insn	2, 0xa800
 90e:	1b26                	.insn	2, 0x1b26
 910:	00a8                	.insn	2, 0x00a8
 912:	1c31                	.insn	2, 0x1c31
 914:	049f 0694 0698      	.insn	6, 0x06980694049f
 91a:	820e                	.insn	2, 0x820e
 91c:	a800                	.insn	2, 0xa800
 91e:	8626                	.insn	2, 0x8626
 920:	a800                	.insn	2, 0xa800
 922:	1b26                	.insn	2, 0x1b26
 924:	00a8                	.insn	2, 0x00a8
 926:	1c32                	.insn	2, 0x1c32
 928:	009f 9c04 bc06      	.insn	6, 0xbc069c04009f
 92e:	0c06                	.insn	2, 0x0c06
 930:	0082                	.insn	2, 0x0082
 932:	26a8                	.insn	2, 0x26a8
 934:	0086                	.insn	2, 0x0086
 936:	26a8                	.insn	2, 0x26a8
 938:	9f00a81b          	.insn	4, 0x9f00a81b
 93c:	0400                	.insn	2, 0x0400
 93e:	05e0                	.insn	2, 0x05e0
 940:	0684                	.insn	2, 0x0684
 942:	8206                	.insn	2, 0x8206
 944:	8600                	.insn	2, 0x8600
 946:	1d00                	.insn	2, 0x1d00
 948:	049f 0684 069c      	.insn	6, 0x069c0684049f
 94e:	5f01                	.insn	2, 0x5f01
 950:	9c04                	.insn	2, 0x9c04
 952:	bc06                	.insn	2, 0xbc06
 954:	0106                	.insn	2, 0x0106
 956:	0062                	.insn	2, 0x0062
 958:	d004                	.insn	2, 0xd004
 95a:	f002                	.insn	2, 0xf002
 95c:	0102                	.insn	2, 0x0102
 95e:	0458                	.insn	2, 0x0458
 960:	069c                	.insn	2, 0x069c
 962:	06bc                	.insn	2, 0x06bc
 964:	8206                	.insn	2, 0x8206
 966:	8600                	.insn	2, 0x8600
 968:	1d00                	.insn	2, 0x1d00
 96a:	009f ec04 f405      	.insn	6, 0xf405ec04009f
 970:	0105                	.insn	2, 0x0105
 972:	045a                	.insn	2, 0x045a
 974:	05f4                	.insn	2, 0x05f4
 976:	06b4                	.insn	2, 0x06b4
 978:	6501                	.insn	2, 0x6501
 97a:	b404                	.insn	2, 0xb404
 97c:	bc06                	.insn	2, 0xbc06
 97e:	0106                	.insn	2, 0x0106
 980:	005a                	.insn	2, 0x005a
 982:	dc04                	.insn	2, 0xdc04
 984:	0103e403          	.insn	4, 0x0103e403
 988:	045c                	.insn	2, 0x045c
 98a:	06bc                	.insn	2, 0x06bc
 98c:	06d0                	.insn	2, 0x06d0
 98e:	5c01                	.insn	2, 0x5c01
 990:	0400                	.insn	2, 0x0400
 992:	03f0                	.insn	2, 0x03f0
 994:	0488                	.insn	2, 0x0488
 996:	5e01                	.insn	2, 0x5e01
 998:	0400                	.insn	2, 0x0400
 99a:	04ac                	.insn	2, 0x04ac
 99c:	05c8                	.insn	2, 0x05c8
 99e:	6701                	.insn	2, 0x6701
 9a0:	0400                	.insn	2, 0x0400
 9a2:	04c0                	.insn	2, 0x04c0
 9a4:	0594                	.insn	2, 0x0594
 9a6:	6601                	.insn	2, 0x6601
 9a8:	9404                	.insn	2, 0x9404
 9aa:	c805                	.insn	2, 0xc805
 9ac:	0705                	.insn	2, 0x0705
 9ae:	0084                	.insn	2, 0x0084
 9b0:	2440                	.insn	2, 0x2440
 9b2:	2540                	.insn	2, 0x2540
 9b4:	009f c004 e804      	.insn	6, 0xe804c004009f
 9ba:	0c04                	.insn	2, 0x0c04
 9bc:	0082                	.insn	2, 0x0082
 9be:	26a8                	.insn	2, 0x26a8
 9c0:	26a80087          	.insn	4, 0x26a80087
 9c4:	9f00a81b          	.insn	4, 0x9f00a81b
 9c8:	e804                	.insn	2, 0xe804
 9ca:	f404                	.insn	2, 0xf404
 9cc:	0e04                	.insn	2, 0x0e04
 9ce:	0082                	.insn	2, 0x0082
 9d0:	26a8                	.insn	2, 0x26a8
 9d2:	26a80087          	.insn	4, 0x26a80087
 9d6:	3100a81b          	.insn	4, 0x3100a81b
 9da:	9f1c                	.insn	2, 0x9f1c
 9dc:	f404                	.insn	2, 0xf404
 9de:	f804                	.insn	2, 0xf804
 9e0:	0e04                	.insn	2, 0x0e04
 9e2:	0082                	.insn	2, 0x0082
 9e4:	26a8                	.insn	2, 0x26a8
 9e6:	26a80087          	.insn	4, 0x26a80087
 9ea:	3200a81b          	.insn	4, 0x3200a81b
 9ee:	9f1c                	.insn	2, 0x9f1c
 9f0:	0400                	.insn	2, 0x0400
 9f2:	04fc                	.insn	2, 0x04fc
 9f4:	05b4                	.insn	2, 0x05b4
 9f6:	880c                	.insn	2, 0x880c
 9f8:	a800                	.insn	2, 0xa800
 9fa:	8726                	.insn	2, 0x8726
 9fc:	a800                	.insn	2, 0xa800
 9fe:	1b26                	.insn	2, 0x1b26
 a00:	00a8                	.insn	2, 0x00a8
 a02:	049f 05b4 05c0      	.insn	6, 0x05c005b4049f
 a08:	880e                	.insn	2, 0x880e
 a0a:	a800                	.insn	2, 0xa800
 a0c:	8726                	.insn	2, 0x8726
 a0e:	a800                	.insn	2, 0xa800
 a10:	1b26                	.insn	2, 0x1b26
 a12:	00a8                	.insn	2, 0x00a8
 a14:	1c31                	.insn	2, 0x1c31
 a16:	049f 05c0 05c4      	.insn	6, 0x05c405c0049f
 a1c:	880e                	.insn	2, 0x880e
 a1e:	a800                	.insn	2, 0xa800
 a20:	8726                	.insn	2, 0x8726
 a22:	a800                	.insn	2, 0xa800
 a24:	1b26                	.insn	2, 0x1b26
 a26:	00a8                	.insn	2, 0x00a8
 a28:	1c32                	.insn	2, 0x1c32
 a2a:	009f c004 e404      	.insn	6, 0xe404c004009f
 a30:	0604                	.insn	2, 0x0604
 a32:	0082                	.insn	2, 0x0082
 a34:	9f1d0087          	.insn	4, 0x9f1d0087
 a38:	e404                	.insn	2, 0xe404
 a3a:	fc04                	.insn	2, 0xfc04
 a3c:	0104                	.insn	2, 0x0104
 a3e:	045e                	.insn	2, 0x045e
 a40:	04fc                	.insn	2, 0x04fc
 a42:	05c8                	.insn	2, 0x05c8
 a44:	6801                	.insn	2, 0x6801
 a46:	0400                	.insn	2, 0x0400
 a48:	04fc                	.insn	2, 0x04fc
 a4a:	05b0                	.insn	2, 0x05b0
 a4c:	8806                	.insn	2, 0x8806
 a4e:	8700                	.insn	2, 0x8700
 a50:	1d00                	.insn	2, 0x1d00
 a52:	049f 05b0 05c8      	.insn	6, 0x05c805b0049f
 a58:	5f01                	.insn	2, 0x5f01
 a5a:	0400                	.insn	2, 0x0400
 a5c:	04cc                	.insn	2, 0x04cc
 a5e:	04d4                	.insn	2, 0x04d4
 a60:	5a01                	.insn	2, 0x5a01
 a62:	d404                	.insn	2, 0xd404
 a64:	fc04                	.insn	2, 0xfc04
 a66:	0104                	.insn	2, 0x0104
 a68:	0468                	.insn	2, 0x0468
 a6a:	0594                	.insn	2, 0x0594
 a6c:	059c                	.insn	2, 0x059c
 a6e:	5a01                	.insn	2, 0x5a01
 a70:	9c04                	.insn	2, 0x9c04
 a72:	c805                	.insn	2, 0xc805
 a74:	0105                	.insn	2, 0x0105
 a76:	0066                	.insn	2, 0x0066
 a78:	d404                	.insn	2, 0xd404
 a7a:	9c06                	.insn	2, 0x9c06
 a7c:	045d0107          	.insn	4, 0x045d0107
 a80:	07b4                	.insn	2, 0x07b4
 a82:	07cc                	.insn	2, 0x07cc
 a84:	5d01                	.insn	2, 0x5d01
 a86:	0400                	.insn	2, 0x0400
 a88:	06e8                	.insn	2, 0x06e8
 a8a:	0784                	.insn	2, 0x0784
 a8c:	5f01                	.insn	2, 0x5f01
 a8e:	0400                	.insn	2, 0x0400
 a90:	07a4                	.insn	2, 0x07a4
 a92:	07a8                	.insn	2, 0x07a8
 a94:	5801                	.insn	2, 0x5801
 a96:	0400                	.insn	2, 0x0400
 a98:	0ac0                	.insn	2, 0x0ac0
 a9a:	0adc                	.insn	2, 0x0adc
 a9c:	5801                	.insn	2, 0x5801
 a9e:	e004                	.insn	2, 0xe004
 aa0:	e40a                	.insn	2, 0xe40a
 aa2:	010a                	.insn	2, 0x010a
 aa4:	0058                	.insn	2, 0x0058
 aa6:	fc04                	.insn	2, 0xfc04
 aa8:	01088307          	.insn	4, 0x01088307
 aac:	0883045b          	.insn	4, 0x0883045b
 ab0:	0b84                	.insn	2, 0x0b84
 ab2:	6701                	.insn	2, 0x6701
 ab4:	0400                	.insn	2, 0x0400
 ab6:	0880                	.insn	2, 0x0880
 ab8:	08f8                	.insn	2, 0x08f8
 aba:	6801                	.insn	2, 0x6801
 abc:	f804                	.insn	2, 0xf804
 abe:	8408                	.insn	2, 0x8408
 ac0:	0086070b          	.insn	4, 0x0086070b
 ac4:	2440                	.insn	2, 0x2440
 ac6:	2540                	.insn	2, 0x2540
 ac8:	009f 8c04 9008      	.insn	6, 0x90088c04009f
 ace:	0108                	.insn	2, 0x0108
 ad0:	045a                	.insn	2, 0x045a
 ad2:	0890                	.insn	2, 0x0890
 ad4:	5b010893          	addi	a7,sp,1456
 ad8:	9304                	.insn	2, 0x9304
 ada:	c008                	.insn	2, 0xc008
 adc:	0108                	.insn	2, 0x0108
 ade:	08c0046b          	.insn	4, 0x08c0046b
 ae2:	09b4                	.insn	2, 0x09b4
 ae4:	6901                	.insn	2, 0x6901
 ae6:	0400                	.insn	2, 0x0400
 ae8:	08e8                	.insn	2, 0x08e8
 aea:	08ec                	.insn	2, 0x08ec
 aec:	5a01                	.insn	2, 0x5a01
 aee:	ec04                	.insn	2, 0xec04
 af0:	ef08                	.insn	2, 0xef08
 af2:	0108                	.insn	2, 0x0108
 af4:	08ef045b          	.insn	4, 0x08ef045b
 af8:	09a0                	.insn	2, 0x09a0
 afa:	6b01                	.insn	2, 0x6b01
 afc:	a004                	.insn	2, 0xa004
 afe:	c009                	.insn	2, 0xc009
 b00:	0109                	.insn	2, 0x0109
 b02:	005f 8004 8308      	.insn	6, 0x83088004005f
 b08:	0608                	.insn	2, 0x0608
 b0a:	007a                	.insn	2, 0x007a
 b0c:	9f1d007b          	.insn	4, 0x9f1d007b
 b10:	8304                	.insn	2, 0x8304
 b12:	b008                	.insn	2, 0xb008
 b14:	0608                	.insn	2, 0x0608
 b16:	0089                	.insn	2, 0x0089
 b18:	9f1d0087          	.insn	4, 0x9f1d0087
 b1c:	b004                	.insn	2, 0xb004
 b1e:	bc08                	.insn	2, 0xbc08
 b20:	0108                	.insn	2, 0x0108
 b22:	045f 08bc 08c0      	.insn	6, 0x08c008bc045f
 b28:	7808                	.insn	2, 0x7808
 b2a:	4000                	.insn	2, 0x4000
 b2c:	7a25                	.insn	2, 0x7a25
 b2e:	2100                	.insn	2, 0x2100
 b30:	049f 08c0 08d4      	.insn	6, 0x08d408c0049f
 b36:	5f01                	.insn	2, 0x5f01
 b38:	d404                	.insn	2, 0xd404
 b3a:	8408                	.insn	2, 0x8408
 b3c:	006a010b          	.insn	4, 0x006a010b
 b40:	d404                	.insn	2, 0xd404
 b42:	9008                	.insn	2, 0x9008
 b44:	0609                	.insn	2, 0x0609
 b46:	008a                	.insn	2, 0x008a
 b48:	9f1d0087          	.insn	4, 0x9f1d0087
 b4c:	9004                	.insn	2, 0x9004
 b4e:	9c09                	.insn	2, 0x9c09
 b50:	0109                	.insn	2, 0x0109
 b52:	099c045b          	.insn	4, 0x099c045b
 b56:	09a0                	.insn	2, 0x09a0
 b58:	780a                	.insn	2, 0x780a
 b5a:	4000                	.insn	2, 0x4000
 b5c:	4024                	.insn	2, 0x4024
 b5e:	7a25                	.insn	2, 0x7a25
 b60:	2100                	.insn	2, 0x2100
 b62:	049f 09a0 09cc      	.insn	6, 0x09cc09a0049f
 b68:	5b01                	.insn	2, 0x5b01
 b6a:	cc04                	.insn	2, 0xcc04
 b6c:	8409                	.insn	2, 0x8409
 b6e:	005e010b          	.insn	4, 0x005e010b
 b72:	9804                	.insn	2, 0x9804
 b74:	a008                	.insn	2, 0xa008
 b76:	0108                	.insn	2, 0x0108
 b78:	045a                	.insn	2, 0x045a
 b7a:	08a0                	.insn	2, 0x08a0
 b7c:	08d4                	.insn	2, 0x08d4
 b7e:	6a01                	.insn	2, 0x6a01
 b80:	f804                	.insn	2, 0xf804
 b82:	fc08                	.insn	2, 0xfc08
 b84:	0108                	.insn	2, 0x0108
 b86:	045a                	.insn	2, 0x045a
 b88:	08fc                	.insn	2, 0x08fc
 b8a:	0b84                	.insn	2, 0x0b84
 b8c:	6801                	.insn	2, 0x6801
 b8e:	0400                	.insn	2, 0x0400
 b90:	09e4                	.insn	2, 0x09e4
 b92:	09ec                	.insn	2, 0x09ec
 b94:	5a01                	.insn	2, 0x5a01
 b96:	ec04                	.insn	2, 0xec04
 b98:	b009                	.insn	2, 0xb009
 b9a:	010a                	.insn	2, 0x010a
 b9c:	0060                	.insn	2, 0x0060
 b9e:	f404                	.insn	2, 0xf404
 ba0:	9009                	.insn	2, 0x9009
 ba2:	010a                	.insn	2, 0x010a
 ba4:	0458                	.insn	2, 0x0458
 ba6:	0a90                	.insn	2, 0x0a90
 ba8:	0a94                	.insn	2, 0x0a94
 baa:	8008                	.insn	2, 0x8008
 bac:	4000                	.insn	2, 0x4000
 bae:	7825                	.insn	2, 0x7825
 bb0:	2200                	.insn	2, 0x2200
 bb2:	049f 0a9c 0ab4      	.insn	6, 0x0ab40a9c049f
 bb8:	5801                	.insn	2, 0x5801
 bba:	0400                	.insn	2, 0x0400
 bbc:	0a84                	.insn	2, 0x0a84
 bbe:	0a8c                	.insn	2, 0x0a8c
 bc0:	5a01                	.insn	2, 0x5a01
 bc2:	8c04                	.insn	2, 0x8c04
 bc4:	a40a                	.insn	2, 0xa40a
 bc6:	010a                	.insn	2, 0x010a
 bc8:	005f 9004 fc0a      	.insn	6, 0xfc0a9004005f
 bce:	010a                	.insn	2, 0x010a
 bd0:	005a                	.insn	2, 0x005a
 bd2:	cc04                	.insn	2, 0xcc04
 bd4:	8409                	.insn	2, 0x8409
 bd6:	010a                	.insn	2, 0x010a
 bd8:	005f dc04 e00a      	.insn	6, 0xe00adc04005f
 bde:	010a                	.insn	2, 0x010a
 be0:	0058                	.insn	2, 0x0058
 be2:	e404                	.insn	2, 0xe404
 be4:	f80a                	.insn	2, 0xf80a
 be6:	010a                	.insn	2, 0x010a
 be8:	0058                	.insn	2, 0x0058

Disassembly of section .debug_aranges:

00000000 <.debug_aranges>:
   0:	001c                	.insn	2, 0x001c
   2:	0000                	.insn	2, 0x
   4:	0002                	.insn	2, 0x0002
   6:	0000                	.insn	2, 0x
   8:	0000                	.insn	2, 0x
   a:	0004                	.insn	2, 0x0004
   c:	0000                	.insn	2, 0x
   e:	0000                	.insn	2, 0x
  10:	239c                	.insn	2, 0x239c
  12:	0000                	.insn	2, 0x
  14:	0610                	.insn	2, 0x0610
	...
  1e:	0000                	.insn	2, 0x
  20:	001c                	.insn	2, 0x001c
  22:	0000                	.insn	2, 0x
  24:	0002                	.insn	2, 0x0002
  26:	00000987          	.insn	4, 0x0987
  2a:	0004                	.insn	2, 0x0004
  2c:	0000                	.insn	2, 0x
  2e:	0000                	.insn	2, 0x
  30:	29ac                	.insn	2, 0x29ac
  32:	0000                	.insn	2, 0x
  34:	0584                	.insn	2, 0x0584
	...
  3e:	0000                	.insn	2, 0x
  40:	001c                	.insn	2, 0x001c
  42:	0000                	.insn	2, 0x
  44:	0002                	.insn	2, 0x0002
  46:	1352                	.insn	2, 0x1352
  48:	0000                	.insn	2, 0x
  4a:	0004                	.insn	2, 0x0004
  4c:	0000                	.insn	2, 0x
  4e:	0000                	.insn	2, 0x
  50:	2f30                	.insn	2, 0x2f30
  52:	0000                	.insn	2, 0x
  54:	0024                	.insn	2, 0x0024
	...
  5e:	0000                	.insn	2, 0x
  60:	001c                	.insn	2, 0x001c
  62:	0000                	.insn	2, 0x
  64:	0002                	.insn	2, 0x0002
  66:	00001383          	lh	t2,0(zero) # 0 <MEM_START-0x1000>
  6a:	0004                	.insn	2, 0x0004
  6c:	0000                	.insn	2, 0x
  6e:	0000                	.insn	2, 0x
  70:	2f54                	.insn	2, 0x2f54
  72:	0000                	.insn	2, 0x
  74:	00b4                	.insn	2, 0x00b4
	...
  7e:	0000                	.insn	2, 0x
  80:	0014                	.insn	2, 0x0014
  82:	0000                	.insn	2, 0x
  84:	0002                	.insn	2, 0x0002
  86:	13e2                	.insn	2, 0x13e2
  88:	0000                	.insn	2, 0x
  8a:	0004                	.insn	2, 0x0004
	...

Disassembly of section .debug_rnglists:

00000000 <.debug_rnglists>:
   0:	009c                	.insn	2, 0x009c
   2:	0000                	.insn	2, 0x
   4:	0005                	.insn	2, 0x0005
   6:	0004                	.insn	2, 0x0004
   8:	0000                	.insn	2, 0x
   a:	0000                	.insn	2, 0x
   c:	6c04                	.insn	2, 0x6c04
   e:	05c0                	.insn	2, 0x05c0
  10:	8c04                	.insn	2, 0x8c04
  12:	9006                	.insn	2, 0x9006
  14:	000c                	.insn	2, 0x000c
  16:	6c04                	.insn	2, 0x6c04
  18:	05c0                	.insn	2, 0x05c0
  1a:	8c04                	.insn	2, 0x8c04
  1c:	8006                	.insn	2, 0x8006
  1e:	040c                	.insn	2, 0x040c
  20:	0c84                	.insn	2, 0x0c84
  22:	0c90                	.insn	2, 0x0c90
  24:	0400                	.insn	2, 0x0400
  26:	0188                	.insn	2, 0x0188
  28:	01b4                	.insn	2, 0x01b4
  2a:	9c04                	.insn	2, 0x9c04
  2c:	0003b003          	.insn	4, 0x0003b003
  30:	9404                	.insn	2, 0x9404
  32:	04039c03          	lh	s8,64(t2)
  36:	08f0                	.insn	2, 0x08f0
  38:	0c80                	.insn	2, 0x0c80
  3a:	0400                	.insn	2, 0x0400
  3c:	0980                	.insn	2, 0x0980
  3e:	0984                	.insn	2, 0x0984
  40:	9004                	.insn	2, 0x9004
  42:	9c09                	.insn	2, 0x9c09
  44:	0409                	.insn	2, 0x0409
  46:	09a0                	.insn	2, 0x09a0
  48:	0ad8                	.insn	2, 0x0ad8
  4a:	e004                	.insn	2, 0xe004
  4c:	e40a                	.insn	2, 0xe40a
  4e:	040a                	.insn	2, 0x040a
  50:	0aec                	.insn	2, 0x0aec
  52:	0af0                	.insn	2, 0x0af0
  54:	0400                	.insn	2, 0x0400
  56:	0ad8                	.insn	2, 0x0ad8
  58:	0ae0                	.insn	2, 0x0ae0
  5a:	e404                	.insn	2, 0xe404
  5c:	ec0a                	.insn	2, 0xec0a
  5e:	040a                	.insn	2, 0x040a
  60:	0af0                	.insn	2, 0x0af0
  62:	0bd8                	.insn	2, 0x0bd8
  64:	e004                	.insn	2, 0xe004
  66:	040bec0b          	.insn	4, 0x040bec0b
  6a:	0bf0                	.insn	2, 0x0bf0
  6c:	0bf4                	.insn	2, 0x0bf4
  6e:	0400                	.insn	2, 0x0400
  70:	0ba8                	.insn	2, 0x0ba8
  72:	0bb4                	.insn	2, 0x0bb4
  74:	c004                	.insn	2, 0xc004
  76:	000bc40b          	.insn	4, 0x000bc40b
  7a:	b004                	.insn	2, 0xb004
  7c:	0403b403          	.insn	4, 0x0403b403
  80:	03b8                	.insn	2, 0x03b8
  82:	03e4                	.insn	2, 0x03e4
  84:	8c04                	.insn	2, 0x8c04
  86:	a006                	.insn	2, 0xa006
  88:	0006                	.insn	2, 0x0006
  8a:	a804                	.insn	2, 0xa804
  8c:	ac06                	.insn	2, 0xac06
  8e:	0406                	.insn	2, 0x0406
  90:	06bc                	.insn	2, 0x06bc
  92:	088c                	.insn	2, 0x088c
  94:	0400                	.insn	2, 0x0400
  96:	0890                	.insn	2, 0x0890
  98:	08c4                	.insn	2, 0x08c4
  9a:	dc04                	.insn	2, 0xdc04
  9c:	f008                	.insn	2, 0xf008
  9e:	0008                	.insn	2, 0x0008
  a0:	00000073          	ecall
  a4:	0005                	.insn	2, 0x0005
  a6:	0004                	.insn	2, 0x0004
  a8:	0000                	.insn	2, 0x
  aa:	0000                	.insn	2, 0x
  ac:	6804                	.insn	2, 0x6804
  ae:	02f0                	.insn	2, 0x02f0
  b0:	c004                	.insn	2, 0xc004
  b2:	000b8403          	lb	s0,0(s7)
  b6:	8404                	.insn	2, 0x8404
  b8:	b001                	.insn	2, 0xb001
  ba:	0401                	.insn	2, 0x0401
  bc:	03c0                	.insn	2, 0x03c0
  be:	03d4                	.insn	2, 0x03d4
  c0:	0400                	.insn	2, 0x0400
  c2:	02b8                	.insn	2, 0x02b8
  c4:	02e8                	.insn	2, 0x02e8
  c6:	c804                	.insn	2, 0xc804
  c8:	bc05                	.insn	2, 0xbc05
  ca:	0006                	.insn	2, 0x0006
  cc:	d404                	.insn	2, 0xd404
  ce:	0403d803          	lhu	a6,64(t2)
  d2:	03dc                	.insn	2, 0x03dc
  d4:	03fc                	.insn	2, 0x03fc
  d6:	8004                	.insn	2, 0x8004
  d8:	8c04                	.insn	2, 0x8c04
  da:	0404                	.insn	2, 0x0404
  dc:	06bc                	.insn	2, 0x06bc
  de:	06d0                	.insn	2, 0x06d0
  e0:	0400                	.insn	2, 0x0400
  e2:	0498                	.insn	2, 0x0498
  e4:	049c                	.insn	2, 0x049c
  e6:	ac04                	.insn	2, 0xac04
  e8:	c804                	.insn	2, 0xc804
  ea:	0005                	.insn	2, 0x0005
  ec:	d404                	.insn	2, 0xd404
  ee:	8806                	.insn	2, 0x8806
  f0:	07b40407          	.insn	4, 0x07b40407
  f4:	07c8                	.insn	2, 0x07c8
  f6:	0400                	.insn	2, 0x0400
  f8:	07e0                	.insn	2, 0x07e0
  fa:	07e4                	.insn	2, 0x07e4
  fc:	ec04                	.insn	2, 0xec04
  fe:	0407f807          	.insn	4, 0x0407f807
 102:	07fc                	.insn	2, 0x07fc
 104:	09b8                	.insn	2, 0x09b8
 106:	c804                	.insn	2, 0xc804
 108:	cc09                	.insn	2, 0xcc09
 10a:	0009                	.insn	2, 0x0009
 10c:	b804                	.insn	2, 0xb804
 10e:	c809                	.insn	2, 0xc809
 110:	0409                	.insn	2, 0x0409
 112:	09cc                	.insn	2, 0x09cc
 114:	0ac0                	.insn	2, 0x0ac0
	...

Disassembly of section .debug_line:

00000000 <.debug_line>:
       0:	0a98                	.insn	2, 0x0a98
       2:	0000                	.insn	2, 0x
       4:	0005                	.insn	2, 0x0005
       6:	0004                	.insn	2, 0x0004
       8:	00000033          	add	zero,zero,zero
       c:	0101                	.insn	2, 0x0101
       e:	fb01                	.insn	2, 0xfb01
      10:	0d0e                	.insn	2, 0x0d0e
      12:	0100                	.insn	2, 0x0100
      14:	0101                	.insn	2, 0x0101
      16:	0001                	.insn	2, 0x0001
      18:	0000                	.insn	2, 0x
      1a:	0001                	.insn	2, 0x0001
      1c:	0100                	.insn	2, 0x0100
      1e:	0101                	.insn	2, 0x0101
      20:	021f 0021 0000      	.insn	6, 0x0021021f
      26:	0088                	.insn	2, 0x0088
      28:	0000                	.insn	2, 0x
      2a:	0102                	.insn	2, 0x0102
      2c:	021f 030f 0017      	.insn	6, 0x0017030f021f
      32:	0000                	.insn	2, 0x
      34:	1701                	.insn	2, 0x1701
      36:	0000                	.insn	2, 0x
      38:	0100                	.insn	2, 0x0100
      3a:	009f 0000 0501      	.insn	6, 0x05010000009f
      40:	0001                	.insn	2, 0x0001
      42:	0205                	.insn	2, 0x0205
      44:	239c                	.insn	2, 0x239c
      46:	0000                	.insn	2, 0x
      48:	0109bb03          	.insn	4, 0x0109bb03
      4c:	0306                	.insn	2, 0x0306
      4e:	0900                	.insn	2, 0x0900
      50:	0034                	.insn	2, 0x0034
      52:	0501                	.insn	2, 0x0501
      54:	01030603          	lb	a2,16(t1)
      58:	0409                	.insn	2, 0x0409
      5a:	0100                	.insn	2, 0x0100
      5c:	00090103          	lb	sp,0(s2)
      60:	0100                	.insn	2, 0x0100
      62:	00090103          	lb	sp,0(s2)
      66:	0100                	.insn	2, 0x0100
      68:	00090103          	lb	sp,0(s2)
      6c:	0100                	.insn	2, 0x0100
      6e:	00090203          	lb	tp,0(s2)
      72:	0100                	.insn	2, 0x0100
      74:	0605                	.insn	2, 0x0605
      76:	0306                	.insn	2, 0x0306
      78:	0900                	.insn	2, 0x0900
      7a:	0004                	.insn	2, 0x0004
      7c:	0501                	.insn	2, 0x0501
      7e:	0605                	.insn	2, 0x0605
      80:	04090103          	lb	sp,64(s2)
      84:	0100                	.insn	2, 0x0100
      86:	0d05                	.insn	2, 0x0d05
      88:	0306                	.insn	2, 0x0306
      8a:	0901                	.insn	2, 0x0901
      8c:	0000                	.insn	2, 0x
      8e:	0501                	.insn	2, 0x0501
      90:	097f0307          	.insn	4, 0x097f0307
      94:	0010                	.insn	2, 0x0010
      96:	0501                	.insn	2, 0x0501
      98:	02030603          	lb	a2,32(t1)
      9c:	0409                	.insn	2, 0x0409
      9e:	0100                	.insn	2, 0x0100
      a0:	0605                	.insn	2, 0x0605
      a2:	0306                	.insn	2, 0x0306
      a4:	0900                	.insn	2, 0x0900
      a6:	0000                	.insn	2, 0x
      a8:	0501                	.insn	2, 0x0501
      aa:	0605                	.insn	2, 0x0605
      ac:	04090103          	lb	sp,64(s2)
      b0:	0100                	.insn	2, 0x0100
      b2:	0d05                	.insn	2, 0x0d05
      b4:	0306                	.insn	2, 0x0306
      b6:	0901                	.insn	2, 0x0901
      b8:	0000                	.insn	2, 0x
      ba:	0501                	.insn	2, 0x0501
      bc:	097f0307          	.insn	4, 0x097f0307
      c0:	0008                	.insn	2, 0x0008
      c2:	0501                	.insn	2, 0x0501
      c4:	030d                	.insn	2, 0x030d
      c6:	0901                	.insn	2, 0x0901
      c8:	0004                	.insn	2, 0x0004
      ca:	0501                	.insn	2, 0x0501
      cc:	02030603          	lb	a2,32(t1)
      d0:	0809                	.insn	2, 0x0809
      d2:	0100                	.insn	2, 0x0100
      d4:	097e9c03          	lh	s8,151(t4)
      d8:	0000                	.insn	2, 0x
      da:	0301                	.insn	2, 0x0301
      dc:	0901                	.insn	2, 0x0901
      de:	0000                	.insn	2, 0x
      e0:	0301                	.insn	2, 0x0301
      e2:	0901                	.insn	2, 0x0901
      e4:	0000                	.insn	2, 0x
      e6:	0301                	.insn	2, 0x0301
      e8:	0901                	.insn	2, 0x0901
      ea:	0000                	.insn	2, 0x
      ec:	0301                	.insn	2, 0x0301
      ee:	0901                	.insn	2, 0x0901
      f0:	0000                	.insn	2, 0x
      f2:	0301                	.insn	2, 0x0301
      f4:	0901                	.insn	2, 0x0901
      f6:	0000                	.insn	2, 0x
      f8:	0301                	.insn	2, 0x0301
      fa:	0902                	.insn	2, 0x0902
      fc:	0000                	.insn	2, 0x
      fe:	0501                	.insn	2, 0x0501
     100:	0606                	.insn	2, 0x0606
     102:	00090003          	lb	zero,0(s2)
     106:	0100                	.insn	2, 0x0100
     108:	0305                	.insn	2, 0x0305
     10a:	0306                	.insn	2, 0x0306
     10c:	0901                	.insn	2, 0x0901
     10e:	0004                	.insn	2, 0x0004
     110:	0301                	.insn	2, 0x0301
     112:	0901                	.insn	2, 0x0901
     114:	0000                	.insn	2, 0x
     116:	0501                	.insn	2, 0x0501
     118:	0606                	.insn	2, 0x0606
     11a:	00090003          	lb	zero,0(s2)
     11e:	0100                	.insn	2, 0x0100
     120:	0305                	.insn	2, 0x0305
     122:	0306                	.insn	2, 0x0306
     124:	0901                	.insn	2, 0x0901
     126:	0004                	.insn	2, 0x0004
     128:	0501                	.insn	2, 0x0501
     12a:	0606                	.insn	2, 0x0606
     12c:	00090003          	lb	zero,0(s2)
     130:	0100                	.insn	2, 0x0100
     132:	0305                	.insn	2, 0x0305
     134:	0306                	.insn	2, 0x0306
     136:	0925                	.insn	2, 0x0925
     138:	0004                	.insn	2, 0x0004
     13a:	0501                	.insn	2, 0x0501
     13c:	0606                	.insn	2, 0x0606
     13e:	00090003          	lb	zero,0(s2)
     142:	0100                	.insn	2, 0x0100
     144:	0705                	.insn	2, 0x0705
     146:	0306                	.insn	2, 0x0306
     148:	0902                	.insn	2, 0x0902
     14a:	0004                	.insn	2, 0x0004
     14c:	0501                	.insn	2, 0x0501
     14e:	060a                	.insn	2, 0x060a
     150:	08090003          	lb	zero,128(s2)
     154:	0100                	.insn	2, 0x0100
     156:	0405                	.insn	2, 0x0405
     158:	0306                	.insn	2, 0x0306
     15a:	0904                	.insn	2, 0x0904
     15c:	0004                	.insn	2, 0x0004
     15e:	0301                	.insn	2, 0x0301
     160:	0900                	.insn	2, 0x0900
     162:	0000                	.insn	2, 0x
     164:	0301                	.insn	2, 0x0301
     166:	0900                	.insn	2, 0x0900
     168:	0000                	.insn	2, 0x
     16a:	0301                	.insn	2, 0x0301
     16c:	0900                	.insn	2, 0x0900
     16e:	0000                	.insn	2, 0x
     170:	0001                	.insn	2, 0x0001
     172:	0402                	.insn	2, 0x0402
     174:	0301                	.insn	2, 0x0301
     176:	0900                	.insn	2, 0x0900
     178:	0000                	.insn	2, 0x
     17a:	0001                	.insn	2, 0x0001
     17c:	0402                	.insn	2, 0x0402
     17e:	00030603          	lb	a2,0(t1)
     182:	0809                	.insn	2, 0x0809
     184:	0100                	.insn	2, 0x0100
     186:	0200                	.insn	2, 0x0200
     188:	1504                	.insn	2, 0x1504
     18a:	0306                	.insn	2, 0x0306
     18c:	0900                	.insn	2, 0x0900
     18e:	000c                	.insn	2, 0x000c
     190:	0301                	.insn	2, 0x0301
     192:	0900                	.insn	2, 0x0900
     194:	0018                	.insn	2, 0x0018
     196:	0301                	.insn	2, 0x0301
     198:	0902                	.insn	2, 0x0902
     19a:	0000                	.insn	2, 0x
     19c:	0501                	.insn	2, 0x0501
     19e:	00030607          	.insn	4, 0x00030607
     1a2:	0009                	.insn	2, 0x0009
     1a4:	0100                	.insn	2, 0x0100
     1a6:	0805                	.insn	2, 0x0805
     1a8:	0306                	.insn	2, 0x0306
     1aa:	0905                	.insn	2, 0x0905
     1ac:	0004                	.insn	2, 0x0004
     1ae:	0501                	.insn	2, 0x0501
     1b0:	0611                	.insn	2, 0x0611
     1b2:	00090103          	lb	sp,0(s2)
     1b6:	0100                	.insn	2, 0x0100
     1b8:	1e05                	.insn	2, 0x1e05
     1ba:	04090003          	lb	zero,64(s2)
     1be:	0100                	.insn	2, 0x0100
     1c0:	0b05                	.insn	2, 0x0b05
     1c2:	04097f03          	.insn	4, 0x04097f03
     1c6:	0100                	.insn	2, 0x0100
     1c8:	0805                	.insn	2, 0x0805
     1ca:	0306                	.insn	2, 0x0306
     1cc:	0901                	.insn	2, 0x0901
     1ce:	0004                	.insn	2, 0x0004
     1d0:	0501                	.insn	2, 0x0501
     1d2:	0003060b          	.insn	4, 0x0003060b
     1d6:	0009                	.insn	2, 0x0009
     1d8:	0100                	.insn	2, 0x0100
     1da:	0805                	.insn	2, 0x0805
     1dc:	0306                	.insn	2, 0x0306
     1de:	0901                	.insn	2, 0x0901
     1e0:	0004                	.insn	2, 0x0004
     1e2:	0501                	.insn	2, 0x0501
     1e4:	0003060b          	.insn	4, 0x0003060b
     1e8:	0009                	.insn	2, 0x0009
     1ea:	0100                	.insn	2, 0x0100
     1ec:	0405                	.insn	2, 0x0405
     1ee:	0306                	.insn	2, 0x0306
     1f0:	00040903          	lb	s2,0(s0)
     1f4:	0301                	.insn	2, 0x0301
     1f6:	0900                	.insn	2, 0x0900
     1f8:	0000                	.insn	2, 0x
     1fa:	0301                	.insn	2, 0x0301
     1fc:	0900                	.insn	2, 0x0900
     1fe:	0000                	.insn	2, 0x
     200:	0301                	.insn	2, 0x0301
     202:	0900                	.insn	2, 0x0900
     204:	0000                	.insn	2, 0x
     206:	0301                	.insn	2, 0x0301
     208:	0900                	.insn	2, 0x0900
     20a:	0004                	.insn	2, 0x0004
     20c:	0301                	.insn	2, 0x0301
     20e:	0900                	.insn	2, 0x0900
     210:	0014                	.insn	2, 0x0014
     212:	0301                	.insn	2, 0x0301
     214:	0900                	.insn	2, 0x0900
     216:	0000                	.insn	2, 0x
     218:	0301                	.insn	2, 0x0301
     21a:	0900                	.insn	2, 0x0900
     21c:	0008                	.insn	2, 0x0008
     21e:	0301                	.insn	2, 0x0301
     220:	0900                	.insn	2, 0x0900
     222:	000c                	.insn	2, 0x000c
     224:	0301                	.insn	2, 0x0301
     226:	0900                	.insn	2, 0x0900
     228:	0018                	.insn	2, 0x0018
     22a:	0001                	.insn	2, 0x0001
     22c:	0402                	.insn	2, 0x0402
     22e:	0301                	.insn	2, 0x0301
     230:	0900                	.insn	2, 0x0900
     232:	0008                	.insn	2, 0x0008
     234:	0301                	.insn	2, 0x0301
     236:	0900                	.insn	2, 0x0900
     238:	0008                	.insn	2, 0x0008
     23a:	0001                	.insn	2, 0x0001
     23c:	0402                	.insn	2, 0x0402
     23e:	0601                	.insn	2, 0x0601
     240:	00090003          	lb	zero,0(s2)
     244:	0100                	.insn	2, 0x0100
     246:	0200                	.insn	2, 0x0200
     248:	0304                	.insn	2, 0x0304
     24a:	0306                	.insn	2, 0x0306
     24c:	0900                	.insn	2, 0x0900
     24e:	0004                	.insn	2, 0x0004
     250:	0001                	.insn	2, 0x0001
     252:	0402                	.insn	2, 0x0402
     254:	0305                	.insn	2, 0x0305
     256:	0900                	.insn	2, 0x0900
     258:	0004                	.insn	2, 0x0004
     25a:	0001                	.insn	2, 0x0001
     25c:	0402                	.insn	2, 0x0402
     25e:	09000307          	.insn	4, 0x09000307
     262:	0008                	.insn	2, 0x0008
     264:	0301                	.insn	2, 0x0301
     266:	0900                	.insn	2, 0x0900
     268:	0004                	.insn	2, 0x0004
     26a:	0301                	.insn	2, 0x0301
     26c:	0900                	.insn	2, 0x0900
     26e:	0000                	.insn	2, 0x
     270:	0001                	.insn	2, 0x0001
     272:	0402                	.insn	2, 0x0402
     274:	00030607          	.insn	4, 0x00030607
     278:	0009                	.insn	2, 0x0009
     27a:	0100                	.insn	2, 0x0100
     27c:	0306                	.insn	2, 0x0306
     27e:	0900                	.insn	2, 0x0900
     280:	0014                	.insn	2, 0x0014
     282:	0001                	.insn	2, 0x0001
     284:	0402                	.insn	2, 0x0402
     286:	00030607          	.insn	4, 0x00030607
     28a:	0009                	.insn	2, 0x0009
     28c:	0100                	.insn	2, 0x0100
     28e:	0306                	.insn	2, 0x0306
     290:	0900                	.insn	2, 0x0900
     292:	000c                	.insn	2, 0x000c
     294:	0001                	.insn	2, 0x0001
     296:	0402                	.insn	2, 0x0402
     298:	00030607          	.insn	4, 0x00030607
     29c:	0009                	.insn	2, 0x0009
     29e:	0100                	.insn	2, 0x0100
     2a0:	0306                	.insn	2, 0x0306
     2a2:	0900                	.insn	2, 0x0900
     2a4:	001c                	.insn	2, 0x001c
     2a6:	0001                	.insn	2, 0x0001
     2a8:	0402                	.insn	2, 0x0402
     2aa:	00030607          	.insn	4, 0x00030607
     2ae:	0009                	.insn	2, 0x0009
     2b0:	0100                	.insn	2, 0x0100
     2b2:	0200                	.insn	2, 0x0200
     2b4:	0804                	.insn	2, 0x0804
     2b6:	0306                	.insn	2, 0x0306
     2b8:	0900                	.insn	2, 0x0900
     2ba:	0008                	.insn	2, 0x0008
     2bc:	0001                	.insn	2, 0x0001
     2be:	0402                	.insn	2, 0x0402
     2c0:	030a                	.insn	2, 0x030a
     2c2:	0900                	.insn	2, 0x0900
     2c4:	000c                	.insn	2, 0x000c
     2c6:	0001                	.insn	2, 0x0001
     2c8:	0402                	.insn	2, 0x0402
     2ca:	030c                	.insn	2, 0x030c
     2cc:	0900                	.insn	2, 0x0900
     2ce:	0004                	.insn	2, 0x0004
     2d0:	0001                	.insn	2, 0x0001
     2d2:	0402                	.insn	2, 0x0402
     2d4:	030e                	.insn	2, 0x030e
     2d6:	0900                	.insn	2, 0x0900
     2d8:	0004                	.insn	2, 0x0004
     2da:	0301                	.insn	2, 0x0301
     2dc:	0900                	.insn	2, 0x0900
     2de:	0000                	.insn	2, 0x
     2e0:	0001                	.insn	2, 0x0001
     2e2:	0402                	.insn	2, 0x0402
     2e4:	060e                	.insn	2, 0x060e
     2e6:	00090003          	lb	zero,0(s2)
     2ea:	0100                	.insn	2, 0x0100
     2ec:	0306                	.insn	2, 0x0306
     2ee:	0900                	.insn	2, 0x0900
     2f0:	0008                	.insn	2, 0x0008
     2f2:	0301                	.insn	2, 0x0301
     2f4:	0900                	.insn	2, 0x0900
     2f6:	0000                	.insn	2, 0x
     2f8:	0301                	.insn	2, 0x0301
     2fa:	0901                	.insn	2, 0x0901
     2fc:	0000                	.insn	2, 0x
     2fe:	0501                	.insn	2, 0x0501
     300:	fe03060b          	.insn	4, 0xfe03060b
     304:	0900                	.insn	2, 0x0900
     306:	0000                	.insn	2, 0x
     308:	0501                	.insn	2, 0x0501
     30a:	0004                	.insn	2, 0x0004
     30c:	0402                	.insn	2, 0x0402
     30e:	0304                	.insn	2, 0x0304
     310:	7ef5                	.insn	2, 0x7ef5
     312:	0809                	.insn	2, 0x0809
     314:	0100                	.insn	2, 0x0100
     316:	0200                	.insn	2, 0x0200
     318:	0b04                	.insn	2, 0x0b04
     31a:	04090003          	lb	zero,64(s2)
     31e:	0100                	.insn	2, 0x0100
     320:	0200                	.insn	2, 0x0200
     322:	0404                	.insn	2, 0x0404
     324:	04090003          	lb	zero,64(s2)
     328:	0100                	.insn	2, 0x0100
     32a:	0200                	.insn	2, 0x0200
     32c:	0a04                	.insn	2, 0x0a04
     32e:	04090003          	lb	zero,64(s2)
     332:	0100                	.insn	2, 0x0100
     334:	0306                	.insn	2, 0x0306
     336:	0915                	.insn	2, 0x0915
     338:	0008                	.insn	2, 0x0008
     33a:	0001                	.insn	2, 0x0001
     33c:	0402                	.insn	2, 0x0402
     33e:	0605                	.insn	2, 0x0605
     340:	00090303          	lb	t1,0(s2)
     344:	0100                	.insn	2, 0x0100
     346:	0705                	.insn	2, 0x0705
     348:	04097d03          	.insn	4, 0x04097d03
     34c:	0100                	.insn	2, 0x0100
     34e:	0405                	.insn	2, 0x0405
     350:	0306                	.insn	2, 0x0306
     352:	00040903          	lb	s2,0(s0)
     356:	0301                	.insn	2, 0x0301
     358:	0900                	.insn	2, 0x0900
     35a:	0000                	.insn	2, 0x
     35c:	0301                	.insn	2, 0x0301
     35e:	0900                	.insn	2, 0x0900
     360:	0000                	.insn	2, 0x
     362:	0301                	.insn	2, 0x0301
     364:	0900                	.insn	2, 0x0900
     366:	0000                	.insn	2, 0x
     368:	0001                	.insn	2, 0x0001
     36a:	0402                	.insn	2, 0x0402
     36c:	0301                	.insn	2, 0x0301
     36e:	0900                	.insn	2, 0x0900
     370:	0000                	.insn	2, 0x
     372:	0001                	.insn	2, 0x0001
     374:	0402                	.insn	2, 0x0402
     376:	00030603          	lb	a2,0(t1)
     37a:	0809                	.insn	2, 0x0809
     37c:	0100                	.insn	2, 0x0100
     37e:	0200                	.insn	2, 0x0200
     380:	1504                	.insn	2, 0x1504
     382:	0306                	.insn	2, 0x0306
     384:	0900                	.insn	2, 0x0900
     386:	000c                	.insn	2, 0x000c
     388:	0301                	.insn	2, 0x0301
     38a:	0900                	.insn	2, 0x0900
     38c:	0018                	.insn	2, 0x0018
     38e:	0301                	.insn	2, 0x0301
     390:	0902                	.insn	2, 0x0902
     392:	0000                	.insn	2, 0x
     394:	0501                	.insn	2, 0x0501
     396:	00030607          	.insn	4, 0x00030607
     39a:	0009                	.insn	2, 0x0009
     39c:	0100                	.insn	2, 0x0100
     39e:	0805                	.insn	2, 0x0805
     3a0:	0306                	.insn	2, 0x0306
     3a2:	0909                	.insn	2, 0x0909
     3a4:	0004                	.insn	2, 0x0004
     3a6:	0501                	.insn	2, 0x0501
     3a8:	0003060b          	.insn	4, 0x0003060b
     3ac:	0009                	.insn	2, 0x0009
     3ae:	0100                	.insn	2, 0x0100
     3b0:	0805                	.insn	2, 0x0805
     3b2:	0306                	.insn	2, 0x0306
     3b4:	0901                	.insn	2, 0x0901
     3b6:	0004                	.insn	2, 0x0004
     3b8:	0501                	.insn	2, 0x0501
     3ba:	0003060b          	.insn	4, 0x0003060b
     3be:	0009                	.insn	2, 0x0009
     3c0:	0100                	.insn	2, 0x0100
     3c2:	0805                	.insn	2, 0x0805
     3c4:	0200                	.insn	2, 0x0200
     3c6:	0f04                	.insn	2, 0x0f04
     3c8:	0306                	.insn	2, 0x0306
     3ca:	090d                	.insn	2, 0x090d
     3cc:	0004                	.insn	2, 0x0004
     3ce:	0501                	.insn	2, 0x0501
     3d0:	0304                	.insn	2, 0x0304
     3d2:	0905                	.insn	2, 0x0905
     3d4:	0000                	.insn	2, 0x
     3d6:	0301                	.insn	2, 0x0301
     3d8:	0900                	.insn	2, 0x0900
     3da:	0000                	.insn	2, 0x
     3dc:	0301                	.insn	2, 0x0301
     3de:	0900                	.insn	2, 0x0900
     3e0:	0000                	.insn	2, 0x
     3e2:	0301                	.insn	2, 0x0301
     3e4:	0900                	.insn	2, 0x0900
     3e6:	0000                	.insn	2, 0x
     3e8:	0301                	.insn	2, 0x0301
     3ea:	0900                	.insn	2, 0x0900
     3ec:	0004                	.insn	2, 0x0004
     3ee:	0301                	.insn	2, 0x0301
     3f0:	0900                	.insn	2, 0x0900
     3f2:	0014                	.insn	2, 0x0014
     3f4:	0301                	.insn	2, 0x0301
     3f6:	0900                	.insn	2, 0x0900
     3f8:	0000                	.insn	2, 0x
     3fa:	0301                	.insn	2, 0x0301
     3fc:	0900                	.insn	2, 0x0900
     3fe:	0008                	.insn	2, 0x0008
     400:	0301                	.insn	2, 0x0301
     402:	0900                	.insn	2, 0x0900
     404:	000c                	.insn	2, 0x000c
     406:	0301                	.insn	2, 0x0301
     408:	0900                	.insn	2, 0x0900
     40a:	0018                	.insn	2, 0x0018
     40c:	0001                	.insn	2, 0x0001
     40e:	0402                	.insn	2, 0x0402
     410:	0301                	.insn	2, 0x0301
     412:	0900                	.insn	2, 0x0900
     414:	0008                	.insn	2, 0x0008
     416:	0301                	.insn	2, 0x0301
     418:	0900                	.insn	2, 0x0900
     41a:	0008                	.insn	2, 0x0008
     41c:	0001                	.insn	2, 0x0001
     41e:	0402                	.insn	2, 0x0402
     420:	0601                	.insn	2, 0x0601
     422:	00090003          	lb	zero,0(s2)
     426:	0100                	.insn	2, 0x0100
     428:	0200                	.insn	2, 0x0200
     42a:	0304                	.insn	2, 0x0304
     42c:	0306                	.insn	2, 0x0306
     42e:	0900                	.insn	2, 0x0900
     430:	0004                	.insn	2, 0x0004
     432:	0001                	.insn	2, 0x0001
     434:	0402                	.insn	2, 0x0402
     436:	0305                	.insn	2, 0x0305
     438:	0900                	.insn	2, 0x0900
     43a:	0004                	.insn	2, 0x0004
     43c:	0001                	.insn	2, 0x0001
     43e:	0402                	.insn	2, 0x0402
     440:	09000307          	.insn	4, 0x09000307
     444:	0008                	.insn	2, 0x0008
     446:	0301                	.insn	2, 0x0301
     448:	0900                	.insn	2, 0x0900
     44a:	0004                	.insn	2, 0x0004
     44c:	0301                	.insn	2, 0x0301
     44e:	0900                	.insn	2, 0x0900
     450:	0000                	.insn	2, 0x
     452:	0001                	.insn	2, 0x0001
     454:	0402                	.insn	2, 0x0402
     456:	00030607          	.insn	4, 0x00030607
     45a:	0009                	.insn	2, 0x0009
     45c:	0100                	.insn	2, 0x0100
     45e:	0306                	.insn	2, 0x0306
     460:	0900                	.insn	2, 0x0900
     462:	0014                	.insn	2, 0x0014
     464:	0001                	.insn	2, 0x0001
     466:	0402                	.insn	2, 0x0402
     468:	00030607          	.insn	4, 0x00030607
     46c:	0009                	.insn	2, 0x0009
     46e:	0100                	.insn	2, 0x0100
     470:	0306                	.insn	2, 0x0306
     472:	0900                	.insn	2, 0x0900
     474:	000c                	.insn	2, 0x000c
     476:	0001                	.insn	2, 0x0001
     478:	0402                	.insn	2, 0x0402
     47a:	00030607          	.insn	4, 0x00030607
     47e:	0009                	.insn	2, 0x0009
     480:	0100                	.insn	2, 0x0100
     482:	0306                	.insn	2, 0x0306
     484:	0900                	.insn	2, 0x0900
     486:	001c                	.insn	2, 0x001c
     488:	0001                	.insn	2, 0x0001
     48a:	0402                	.insn	2, 0x0402
     48c:	00030607          	.insn	4, 0x00030607
     490:	0009                	.insn	2, 0x0009
     492:	0100                	.insn	2, 0x0100
     494:	0200                	.insn	2, 0x0200
     496:	0804                	.insn	2, 0x0804
     498:	0306                	.insn	2, 0x0306
     49a:	0900                	.insn	2, 0x0900
     49c:	0008                	.insn	2, 0x0008
     49e:	0001                	.insn	2, 0x0001
     4a0:	0402                	.insn	2, 0x0402
     4a2:	030a                	.insn	2, 0x030a
     4a4:	0900                	.insn	2, 0x0900
     4a6:	000c                	.insn	2, 0x000c
     4a8:	0001                	.insn	2, 0x0001
     4aa:	0402                	.insn	2, 0x0402
     4ac:	030c                	.insn	2, 0x030c
     4ae:	0900                	.insn	2, 0x0900
     4b0:	0004                	.insn	2, 0x0004
     4b2:	0001                	.insn	2, 0x0001
     4b4:	0402                	.insn	2, 0x0402
     4b6:	030e                	.insn	2, 0x030e
     4b8:	0900                	.insn	2, 0x0900
     4ba:	0004                	.insn	2, 0x0004
     4bc:	0301                	.insn	2, 0x0301
     4be:	0900                	.insn	2, 0x0900
     4c0:	0000                	.insn	2, 0x
     4c2:	0001                	.insn	2, 0x0001
     4c4:	0402                	.insn	2, 0x0402
     4c6:	060e                	.insn	2, 0x060e
     4c8:	00090003          	lb	zero,0(s2)
     4cc:	0100                	.insn	2, 0x0100
     4ce:	0306                	.insn	2, 0x0306
     4d0:	0900                	.insn	2, 0x0900
     4d2:	0008                	.insn	2, 0x0008
     4d4:	0501                	.insn	2, 0x0501
     4d6:	00e30303          	lb	t1,14(t1)
     4da:	0009                	.insn	2, 0x0009
     4dc:	0100                	.insn	2, 0x0100
     4de:	00090103          	lb	sp,0(s2)
     4e2:	0100                	.insn	2, 0x0100
     4e4:	0c05                	.insn	2, 0x0c05
     4e6:	0306                	.insn	2, 0x0306
     4e8:	0900                	.insn	2, 0x0900
     4ea:	0000                	.insn	2, 0x
     4ec:	0501                	.insn	2, 0x0501
     4ee:	16030603          	lb	a2,352(t1)
     4f2:	0809                	.insn	2, 0x0809
     4f4:	0100                	.insn	2, 0x0100
     4f6:	0605                	.insn	2, 0x0605
     4f8:	0306                	.insn	2, 0x0306
     4fa:	0900                	.insn	2, 0x0900
     4fc:	0000                	.insn	2, 0x
     4fe:	0501                	.insn	2, 0x0501
     500:	0605                	.insn	2, 0x0605
     502:	04090103          	lb	sp,64(s2)
     506:	0100                	.insn	2, 0x0100
     508:	0705                	.insn	2, 0x0705
     50a:	0306                	.insn	2, 0x0306
     50c:	0900                	.insn	2, 0x0900
     50e:	0000                	.insn	2, 0x
     510:	0501                	.insn	2, 0x0501
     512:	02030603          	lb	a2,32(t1)
     516:	1009                	.insn	2, 0x1009
     518:	0100                	.insn	2, 0x0100
     51a:	0105                	.insn	2, 0x0105
     51c:	0306                	.insn	2, 0x0306
     51e:	0901                	.insn	2, 0x0901
     520:	0000                	.insn	2, 0x
     522:	0501                	.insn	2, 0x0501
     524:	0004                	.insn	2, 0x0004
     526:	0402                	.insn	2, 0x0402
     528:	0304                	.insn	2, 0x0304
     52a:	7ee4                	.insn	2, 0x7ee4
     52c:	3809                	.insn	2, 0x3809
     52e:	0100                	.insn	2, 0x0100
     530:	0200                	.insn	2, 0x0200
     532:	0b04                	.insn	2, 0x0b04
     534:	04090003          	lb	zero,64(s2)
     538:	0100                	.insn	2, 0x0100
     53a:	0200                	.insn	2, 0x0200
     53c:	0404                	.insn	2, 0x0404
     53e:	04090003          	lb	zero,64(s2)
     542:	0100                	.insn	2, 0x0100
     544:	0200                	.insn	2, 0x0200
     546:	0a04                	.insn	2, 0x0a04
     548:	04090003          	lb	zero,64(s2)
     54c:	0100                	.insn	2, 0x0100
     54e:	0805                	.insn	2, 0x0805
     550:	0306                	.insn	2, 0x0306
     552:	0912                	.insn	2, 0x0912
     554:	0008                	.insn	2, 0x0008
     556:	0301                	.insn	2, 0x0301
     558:	0902                	.insn	2, 0x0902
     55a:	0000                	.insn	2, 0x
     55c:	0501                	.insn	2, 0x0501
     55e:	0003060b          	.insn	4, 0x0003060b
     562:	0009                	.insn	2, 0x0009
     564:	0100                	.insn	2, 0x0100
     566:	0805                	.insn	2, 0x0805
     568:	0306                	.insn	2, 0x0306
     56a:	0901                	.insn	2, 0x0901
     56c:	0004                	.insn	2, 0x0004
     56e:	0501                	.insn	2, 0x0501
     570:	0003060b          	.insn	4, 0x0003060b
     574:	0009                	.insn	2, 0x0009
     576:	0100                	.insn	2, 0x0100
     578:	0805                	.insn	2, 0x0805
     57a:	0306                	.insn	2, 0x0306
     57c:	0901                	.insn	2, 0x0901
     57e:	0004                	.insn	2, 0x0004
     580:	0601                	.insn	2, 0x0601
     582:	00090303          	lb	t1,0(s2)
     586:	0100                	.insn	2, 0x0100
     588:	1105                	.insn	2, 0x1105
     58a:	04097d03          	.insn	4, 0x04097d03
     58e:	0100                	.insn	2, 0x0100
     590:	1e05                	.insn	2, 0x1e05
     592:	04090003          	lb	zero,64(s2)
     596:	0100                	.insn	2, 0x0100
     598:	0b05                	.insn	2, 0x0b05
     59a:	04090003          	lb	zero,64(s2)
     59e:	0100                	.insn	2, 0x0100
     5a0:	0805                	.insn	2, 0x0805
     5a2:	0306                	.insn	2, 0x0306
     5a4:	0901                	.insn	2, 0x0901
     5a6:	0004                	.insn	2, 0x0004
     5a8:	0501                	.insn	2, 0x0501
     5aa:	0003060b          	.insn	4, 0x0003060b
     5ae:	0009                	.insn	2, 0x0009
     5b0:	0100                	.insn	2, 0x0100
     5b2:	0805                	.insn	2, 0x0805
     5b4:	0306                	.insn	2, 0x0306
     5b6:	0902                	.insn	2, 0x0902
     5b8:	0004                	.insn	2, 0x0004
     5ba:	0301                	.insn	2, 0x0301
     5bc:	0900                	.insn	2, 0x0900
     5be:	0000                	.insn	2, 0x
     5c0:	0301                	.insn	2, 0x0301
     5c2:	0900                	.insn	2, 0x0900
     5c4:	0000                	.insn	2, 0x
     5c6:	0301                	.insn	2, 0x0301
     5c8:	0900                	.insn	2, 0x0900
     5ca:	0000                	.insn	2, 0x
     5cc:	0301                	.insn	2, 0x0301
     5ce:	0900                	.insn	2, 0x0900
     5d0:	0000                	.insn	2, 0x
     5d2:	0301                	.insn	2, 0x0301
     5d4:	0900                	.insn	2, 0x0900
     5d6:	0014                	.insn	2, 0x0014
     5d8:	0301                	.insn	2, 0x0301
     5da:	0900                	.insn	2, 0x0900
     5dc:	0000                	.insn	2, 0x
     5de:	0301                	.insn	2, 0x0301
     5e0:	0900                	.insn	2, 0x0900
     5e2:	0008                	.insn	2, 0x0008
     5e4:	0301                	.insn	2, 0x0301
     5e6:	0900                	.insn	2, 0x0900
     5e8:	000c                	.insn	2, 0x000c
     5ea:	0301                	.insn	2, 0x0301
     5ec:	0900                	.insn	2, 0x0900
     5ee:	0018                	.insn	2, 0x0018
     5f0:	0001                	.insn	2, 0x0001
     5f2:	0402                	.insn	2, 0x0402
     5f4:	0301                	.insn	2, 0x0301
     5f6:	0900                	.insn	2, 0x0900
     5f8:	0008                	.insn	2, 0x0008
     5fa:	0301                	.insn	2, 0x0301
     5fc:	0900                	.insn	2, 0x0900
     5fe:	0008                	.insn	2, 0x0008
     600:	0001                	.insn	2, 0x0001
     602:	0402                	.insn	2, 0x0402
     604:	0601                	.insn	2, 0x0601
     606:	00090003          	lb	zero,0(s2)
     60a:	0100                	.insn	2, 0x0100
     60c:	0200                	.insn	2, 0x0200
     60e:	0304                	.insn	2, 0x0304
     610:	0306                	.insn	2, 0x0306
     612:	0900                	.insn	2, 0x0900
     614:	0004                	.insn	2, 0x0004
     616:	0001                	.insn	2, 0x0001
     618:	0402                	.insn	2, 0x0402
     61a:	0305                	.insn	2, 0x0305
     61c:	0900                	.insn	2, 0x0900
     61e:	0004                	.insn	2, 0x0004
     620:	0001                	.insn	2, 0x0001
     622:	0402                	.insn	2, 0x0402
     624:	09000307          	.insn	4, 0x09000307
     628:	0008                	.insn	2, 0x0008
     62a:	0301                	.insn	2, 0x0301
     62c:	0900                	.insn	2, 0x0900
     62e:	0004                	.insn	2, 0x0004
     630:	0301                	.insn	2, 0x0301
     632:	0900                	.insn	2, 0x0900
     634:	0000                	.insn	2, 0x
     636:	0001                	.insn	2, 0x0001
     638:	0402                	.insn	2, 0x0402
     63a:	00030607          	.insn	4, 0x00030607
     63e:	0009                	.insn	2, 0x0009
     640:	0100                	.insn	2, 0x0100
     642:	0306                	.insn	2, 0x0306
     644:	0900                	.insn	2, 0x0900
     646:	0014                	.insn	2, 0x0014
     648:	0001                	.insn	2, 0x0001
     64a:	0402                	.insn	2, 0x0402
     64c:	00030607          	.insn	4, 0x00030607
     650:	0009                	.insn	2, 0x0009
     652:	0100                	.insn	2, 0x0100
     654:	0306                	.insn	2, 0x0306
     656:	0900                	.insn	2, 0x0900
     658:	000c                	.insn	2, 0x000c
     65a:	0001                	.insn	2, 0x0001
     65c:	0402                	.insn	2, 0x0402
     65e:	00030607          	.insn	4, 0x00030607
     662:	0009                	.insn	2, 0x0009
     664:	0100                	.insn	2, 0x0100
     666:	0306                	.insn	2, 0x0306
     668:	0900                	.insn	2, 0x0900
     66a:	001c                	.insn	2, 0x001c
     66c:	0001                	.insn	2, 0x0001
     66e:	0402                	.insn	2, 0x0402
     670:	00030607          	.insn	4, 0x00030607
     674:	0009                	.insn	2, 0x0009
     676:	0100                	.insn	2, 0x0100
     678:	0200                	.insn	2, 0x0200
     67a:	0804                	.insn	2, 0x0804
     67c:	0306                	.insn	2, 0x0306
     67e:	0900                	.insn	2, 0x0900
     680:	0008                	.insn	2, 0x0008
     682:	0301                	.insn	2, 0x0301
     684:	0900                	.insn	2, 0x0900
     686:	0008                	.insn	2, 0x0008
     688:	0001                	.insn	2, 0x0001
     68a:	0402                	.insn	2, 0x0402
     68c:	0608                	.insn	2, 0x0608
     68e:	00090003          	lb	zero,0(s2)
     692:	0100                	.insn	2, 0x0100
     694:	0200                	.insn	2, 0x0200
     696:	0a04                	.insn	2, 0x0a04
     698:	0306                	.insn	2, 0x0306
     69a:	0900                	.insn	2, 0x0900
     69c:	0004                	.insn	2, 0x0004
     69e:	0001                	.insn	2, 0x0001
     6a0:	0402                	.insn	2, 0x0402
     6a2:	030c                	.insn	2, 0x030c
     6a4:	0900                	.insn	2, 0x0900
     6a6:	0004                	.insn	2, 0x0004
     6a8:	0001                	.insn	2, 0x0001
     6aa:	0402                	.insn	2, 0x0402
     6ac:	030e                	.insn	2, 0x030e
     6ae:	0900                	.insn	2, 0x0900
     6b0:	0008                	.insn	2, 0x0008
     6b2:	0301                	.insn	2, 0x0301
     6b4:	0900                	.insn	2, 0x0900
     6b6:	0008                	.insn	2, 0x0008
     6b8:	0001                	.insn	2, 0x0001
     6ba:	0402                	.insn	2, 0x0402
     6bc:	060e                	.insn	2, 0x060e
     6be:	00090003          	lb	zero,0(s2)
     6c2:	0100                	.insn	2, 0x0100
     6c4:	0306                	.insn	2, 0x0306
     6c6:	0900                	.insn	2, 0x0900
     6c8:	0004                	.insn	2, 0x0004
     6ca:	0501                	.insn	2, 0x0501
     6cc:	09150307          	.insn	4, 0x09150307
     6d0:	0004                	.insn	2, 0x0004
     6d2:	0501                	.insn	2, 0x0501
     6d4:	060a                	.insn	2, 0x060a
     6d6:	00090003          	lb	zero,0(s2)
     6da:	0100                	.insn	2, 0x0100
     6dc:	0405                	.insn	2, 0x0405
     6de:	0306                	.insn	2, 0x0306
     6e0:	00040913          	mv	s2,s0
     6e4:	0301                	.insn	2, 0x0301
     6e6:	0900                	.insn	2, 0x0900
     6e8:	0000                	.insn	2, 0x
     6ea:	0301                	.insn	2, 0x0301
     6ec:	0900                	.insn	2, 0x0900
     6ee:	0000                	.insn	2, 0x
     6f0:	0301                	.insn	2, 0x0301
     6f2:	0900                	.insn	2, 0x0900
     6f4:	0000                	.insn	2, 0x
     6f6:	0001                	.insn	2, 0x0001
     6f8:	0402                	.insn	2, 0x0402
     6fa:	0301                	.insn	2, 0x0301
     6fc:	0900                	.insn	2, 0x0900
     6fe:	0000                	.insn	2, 0x
     700:	0001                	.insn	2, 0x0001
     702:	0402                	.insn	2, 0x0402
     704:	00030603          	lb	a2,0(t1)
     708:	0809                	.insn	2, 0x0809
     70a:	0100                	.insn	2, 0x0100
     70c:	0200                	.insn	2, 0x0200
     70e:	1504                	.insn	2, 0x1504
     710:	0306                	.insn	2, 0x0306
     712:	0900                	.insn	2, 0x0900
     714:	000c                	.insn	2, 0x000c
     716:	0301                	.insn	2, 0x0301
     718:	0900                	.insn	2, 0x0900
     71a:	0020                	.insn	2, 0x0020
     71c:	0301                	.insn	2, 0x0301
     71e:	0901                	.insn	2, 0x0901
     720:	0000                	.insn	2, 0x
     722:	0501                	.insn	2, 0x0501
     724:	00030607          	.insn	4, 0x00030607
     728:	0009                	.insn	2, 0x0009
     72a:	0100                	.insn	2, 0x0100
     72c:	0805                	.insn	2, 0x0805
     72e:	0306                	.insn	2, 0x0306
     730:	090a                	.insn	2, 0x090a
     732:	0004                	.insn	2, 0x0004
     734:	0601                	.insn	2, 0x0601
     736:	00090203          	lb	tp,0(s2)
     73a:	0100                	.insn	2, 0x0100
     73c:	0b05                	.insn	2, 0x0b05
     73e:	04097e03          	.insn	4, 0x04097e03
     742:	0100                	.insn	2, 0x0100
     744:	1405                	.insn	2, 0x1405
     746:	0200                	.insn	2, 0x0200
     748:	0104                	.insn	2, 0x0104
     74a:	04090003          	lb	zero,64(s2)
     74e:	0100                	.insn	2, 0x0100
     750:	0405                	.insn	2, 0x0405
     752:	0200                	.insn	2, 0x0200
     754:	0404                	.insn	2, 0x0404
     756:	0c097503          	.insn	4, 0x0c097503
     75a:	0100                	.insn	2, 0x0100
     75c:	0200                	.insn	2, 0x0200
     75e:	0b04                	.insn	2, 0x0b04
     760:	04090003          	lb	zero,64(s2)
     764:	0100                	.insn	2, 0x0100
     766:	0200                	.insn	2, 0x0200
     768:	0404                	.insn	2, 0x0404
     76a:	04090003          	lb	zero,64(s2)
     76e:	0100                	.insn	2, 0x0100
     770:	0200                	.insn	2, 0x0200
     772:	0a04                	.insn	2, 0x0a04
     774:	04090003          	lb	zero,64(s2)
     778:	0100                	.insn	2, 0x0100
     77a:	0805                	.insn	2, 0x0805
     77c:	0306                	.insn	2, 0x0306
     77e:	091e                	.insn	2, 0x091e
     780:	0008                	.insn	2, 0x0008
     782:	0301                	.insn	2, 0x0301
     784:	00000903          	lb	s2,0(zero) # 0 <MEM_START-0x1000>
     788:	0301                	.insn	2, 0x0301
     78a:	0902                	.insn	2, 0x0902
     78c:	0000                	.insn	2, 0x
     78e:	0501                	.insn	2, 0x0501
     790:	0611                	.insn	2, 0x0611
     792:	00090003          	lb	zero,0(s2)
     796:	0100                	.insn	2, 0x0100
     798:	1e05                	.insn	2, 0x1e05
     79a:	04090003          	lb	zero,64(s2)
     79e:	0100                	.insn	2, 0x0100
     7a0:	0b05                	.insn	2, 0x0b05
     7a2:	04090003          	lb	zero,64(s2)
     7a6:	0100                	.insn	2, 0x0100
     7a8:	0805                	.insn	2, 0x0805
     7aa:	0306                	.insn	2, 0x0306
     7ac:	0901                	.insn	2, 0x0901
     7ae:	0004                	.insn	2, 0x0004
     7b0:	0501                	.insn	2, 0x0501
     7b2:	0103060b          	.insn	4, 0x0103060b
     7b6:	0009                	.insn	2, 0x0009
     7b8:	0100                	.insn	2, 0x0100
     7ba:	0805                	.insn	2, 0x0805
     7bc:	04090403          	lb	s0,64(s2)
     7c0:	0100                	.insn	2, 0x0100
     7c2:	1e05                	.insn	2, 0x1e05
     7c4:	04097d03          	.insn	4, 0x04097d03
     7c8:	0100                	.insn	2, 0x0100
     7ca:	1105                	.insn	2, 0x1105
     7cc:	04090003          	lb	zero,64(s2)
     7d0:	0100                	.insn	2, 0x0100
     7d2:	0b05                	.insn	2, 0x0b05
     7d4:	04090003          	lb	zero,64(s2)
     7d8:	0100                	.insn	2, 0x0100
     7da:	0805                	.insn	2, 0x0805
     7dc:	04090303          	lb	t1,64(s2)
     7e0:	0100                	.insn	2, 0x0100
     7e2:	0b05                	.insn	2, 0x0b05
     7e4:	0c097b03          	.insn	4, 0x0c097b03
     7e8:	0100                	.insn	2, 0x0100
     7ea:	0805                	.insn	2, 0x0805
     7ec:	0306                	.insn	2, 0x0306
     7ee:	0901                	.insn	2, 0x0901
     7f0:	0004                	.insn	2, 0x0004
     7f2:	0301                	.insn	2, 0x0301
     7f4:	0901                	.insn	2, 0x0901
     7f6:	0000                	.insn	2, 0x
     7f8:	0301                	.insn	2, 0x0301
     7fa:	0901                	.insn	2, 0x0901
     7fc:	0000                	.insn	2, 0x
     7fe:	0301                	.insn	2, 0x0301
     800:	0902                	.insn	2, 0x0902
     802:	0000                	.insn	2, 0x
     804:	0301                	.insn	2, 0x0301
     806:	0900                	.insn	2, 0x0900
     808:	0000                	.insn	2, 0x
     80a:	0301                	.insn	2, 0x0301
     80c:	0900                	.insn	2, 0x0900
     80e:	0000                	.insn	2, 0x
     810:	0301                	.insn	2, 0x0301
     812:	0900                	.insn	2, 0x0900
     814:	0000                	.insn	2, 0x
     816:	0301                	.insn	2, 0x0301
     818:	0900                	.insn	2, 0x0900
     81a:	0000                	.insn	2, 0x
     81c:	0301                	.insn	2, 0x0301
     81e:	0900                	.insn	2, 0x0900
     820:	0004                	.insn	2, 0x0004
     822:	0301                	.insn	2, 0x0301
     824:	0900                	.insn	2, 0x0900
     826:	0000                	.insn	2, 0x
     828:	0301                	.insn	2, 0x0301
     82a:	0900                	.insn	2, 0x0900
     82c:	000c                	.insn	2, 0x000c
     82e:	0301                	.insn	2, 0x0301
     830:	0900                	.insn	2, 0x0900
     832:	000c                	.insn	2, 0x000c
     834:	0301                	.insn	2, 0x0301
     836:	0900                	.insn	2, 0x0900
     838:	0018                	.insn	2, 0x0018
     83a:	0001                	.insn	2, 0x0001
     83c:	0402                	.insn	2, 0x0402
     83e:	0301                	.insn	2, 0x0301
     840:	0900                	.insn	2, 0x0900
     842:	0008                	.insn	2, 0x0008
     844:	0301                	.insn	2, 0x0301
     846:	0900                	.insn	2, 0x0900
     848:	0008                	.insn	2, 0x0008
     84a:	0001                	.insn	2, 0x0001
     84c:	0402                	.insn	2, 0x0402
     84e:	0601                	.insn	2, 0x0601
     850:	00090003          	lb	zero,0(s2)
     854:	0100                	.insn	2, 0x0100
     856:	0200                	.insn	2, 0x0200
     858:	0304                	.insn	2, 0x0304
     85a:	0306                	.insn	2, 0x0306
     85c:	0900                	.insn	2, 0x0900
     85e:	0004                	.insn	2, 0x0004
     860:	0001                	.insn	2, 0x0001
     862:	0402                	.insn	2, 0x0402
     864:	0305                	.insn	2, 0x0305
     866:	0900                	.insn	2, 0x0900
     868:	0004                	.insn	2, 0x0004
     86a:	0001                	.insn	2, 0x0001
     86c:	0402                	.insn	2, 0x0402
     86e:	09000307          	.insn	4, 0x09000307
     872:	0008                	.insn	2, 0x0008
     874:	0301                	.insn	2, 0x0301
     876:	0900                	.insn	2, 0x0900
     878:	0004                	.insn	2, 0x0004
     87a:	0301                	.insn	2, 0x0301
     87c:	0900                	.insn	2, 0x0900
     87e:	0000                	.insn	2, 0x
     880:	0001                	.insn	2, 0x0001
     882:	0402                	.insn	2, 0x0402
     884:	00030607          	.insn	4, 0x00030607
     888:	0009                	.insn	2, 0x0009
     88a:	0100                	.insn	2, 0x0100
     88c:	0306                	.insn	2, 0x0306
     88e:	0900                	.insn	2, 0x0900
     890:	0014                	.insn	2, 0x0014
     892:	0001                	.insn	2, 0x0001
     894:	0402                	.insn	2, 0x0402
     896:	00030607          	.insn	4, 0x00030607
     89a:	0009                	.insn	2, 0x0009
     89c:	0100                	.insn	2, 0x0100
     89e:	0306                	.insn	2, 0x0306
     8a0:	0900                	.insn	2, 0x0900
     8a2:	000c                	.insn	2, 0x000c
     8a4:	0001                	.insn	2, 0x0001
     8a6:	0402                	.insn	2, 0x0402
     8a8:	00030607          	.insn	4, 0x00030607
     8ac:	0009                	.insn	2, 0x0009
     8ae:	0100                	.insn	2, 0x0100
     8b0:	0306                	.insn	2, 0x0306
     8b2:	0900                	.insn	2, 0x0900
     8b4:	001c                	.insn	2, 0x001c
     8b6:	0001                	.insn	2, 0x0001
     8b8:	0402                	.insn	2, 0x0402
     8ba:	00030607          	.insn	4, 0x00030607
     8be:	0009                	.insn	2, 0x0009
     8c0:	0100                	.insn	2, 0x0100
     8c2:	0200                	.insn	2, 0x0200
     8c4:	0804                	.insn	2, 0x0804
     8c6:	0306                	.insn	2, 0x0306
     8c8:	0900                	.insn	2, 0x0900
     8ca:	0008                	.insn	2, 0x0008
     8cc:	0301                	.insn	2, 0x0301
     8ce:	0900                	.insn	2, 0x0900
     8d0:	0008                	.insn	2, 0x0008
     8d2:	0001                	.insn	2, 0x0001
     8d4:	0402                	.insn	2, 0x0402
     8d6:	0608                	.insn	2, 0x0608
     8d8:	00090003          	lb	zero,0(s2)
     8dc:	0100                	.insn	2, 0x0100
     8de:	0200                	.insn	2, 0x0200
     8e0:	0a04                	.insn	2, 0x0a04
     8e2:	0306                	.insn	2, 0x0306
     8e4:	0900                	.insn	2, 0x0900
     8e6:	0004                	.insn	2, 0x0004
     8e8:	0001                	.insn	2, 0x0001
     8ea:	0402                	.insn	2, 0x0402
     8ec:	030c                	.insn	2, 0x030c
     8ee:	0900                	.insn	2, 0x0900
     8f0:	0004                	.insn	2, 0x0004
     8f2:	0001                	.insn	2, 0x0001
     8f4:	0402                	.insn	2, 0x0402
     8f6:	030e                	.insn	2, 0x030e
     8f8:	0900                	.insn	2, 0x0900
     8fa:	0008                	.insn	2, 0x0008
     8fc:	0601                	.insn	2, 0x0601
     8fe:	04090103          	lb	sp,64(s2)
     902:	0100                	.insn	2, 0x0100
     904:	0200                	.insn	2, 0x0200
     906:	0e04                	.insn	2, 0x0e04
     908:	08097f03          	.insn	4, 0x08097f03
     90c:	0100                	.insn	2, 0x0100
     90e:	04090103          	lb	sp,64(s2)
     912:	0100                	.insn	2, 0x0100
     914:	0200                	.insn	2, 0x0200
     916:	0e04                	.insn	2, 0x0e04
     918:	08097f03          	.insn	4, 0x08097f03
     91c:	0100                	.insn	2, 0x0100
     91e:	0306                	.insn	2, 0x0306
     920:	0900                	.insn	2, 0x0900
     922:	0004                	.insn	2, 0x0004
     924:	0301                	.insn	2, 0x0301
     926:	0900                	.insn	2, 0x0900
     928:	0000                	.insn	2, 0x
     92a:	0301                	.insn	2, 0x0301
     92c:	0900                	.insn	2, 0x0900
     92e:	0000                	.insn	2, 0x
     930:	0301                	.insn	2, 0x0301
     932:	0901                	.insn	2, 0x0901
     934:	0000                	.insn	2, 0x
     936:	0301                	.insn	2, 0x0301
     938:	0900                	.insn	2, 0x0900
     93a:	0000                	.insn	2, 0x
     93c:	0301                	.insn	2, 0x0301
     93e:	0900                	.insn	2, 0x0900
     940:	0000                	.insn	2, 0x
     942:	0301                	.insn	2, 0x0301
     944:	0900                	.insn	2, 0x0900
     946:	0000                	.insn	2, 0x
     948:	0301                	.insn	2, 0x0301
     94a:	0900                	.insn	2, 0x0900
     94c:	0000                	.insn	2, 0x
     94e:	0301                	.insn	2, 0x0301
     950:	0900                	.insn	2, 0x0900
     952:	0004                	.insn	2, 0x0004
     954:	0301                	.insn	2, 0x0301
     956:	0900                	.insn	2, 0x0900
     958:	0000                	.insn	2, 0x
     95a:	0301                	.insn	2, 0x0301
     95c:	0900                	.insn	2, 0x0900
     95e:	0004                	.insn	2, 0x0004
     960:	0301                	.insn	2, 0x0301
     962:	0900                	.insn	2, 0x0900
     964:	0000                	.insn	2, 0x
     966:	0301                	.insn	2, 0x0301
     968:	0900                	.insn	2, 0x0900
     96a:	0004                	.insn	2, 0x0004
     96c:	0301                	.insn	2, 0x0301
     96e:	0900                	.insn	2, 0x0900
     970:	0004                	.insn	2, 0x0004
     972:	0301                	.insn	2, 0x0301
     974:	0900                	.insn	2, 0x0900
     976:	0004                	.insn	2, 0x0004
     978:	0301                	.insn	2, 0x0301
     97a:	0900                	.insn	2, 0x0900
     97c:	0004                	.insn	2, 0x0004
     97e:	0301                	.insn	2, 0x0301
     980:	0900                	.insn	2, 0x0900
     982:	0000                	.insn	2, 0x
     984:	0301                	.insn	2, 0x0301
     986:	0900                	.insn	2, 0x0900
     988:	0008                	.insn	2, 0x0008
     98a:	0301                	.insn	2, 0x0301
     98c:	0900                	.insn	2, 0x0900
     98e:	0000                	.insn	2, 0x
     990:	0301                	.insn	2, 0x0301
     992:	0900                	.insn	2, 0x0900
     994:	0004                	.insn	2, 0x0004
     996:	0301                	.insn	2, 0x0301
     998:	0900                	.insn	2, 0x0900
     99a:	0004                	.insn	2, 0x0004
     99c:	0301                	.insn	2, 0x0301
     99e:	0900                	.insn	2, 0x0900
     9a0:	0000                	.insn	2, 0x
     9a2:	0301                	.insn	2, 0x0301
     9a4:	0900                	.insn	2, 0x0900
     9a6:	0008                	.insn	2, 0x0008
     9a8:	0301                	.insn	2, 0x0301
     9aa:	0900                	.insn	2, 0x0900
     9ac:	0000                	.insn	2, 0x
     9ae:	0301                	.insn	2, 0x0301
     9b0:	0900                	.insn	2, 0x0900
     9b2:	0004                	.insn	2, 0x0004
     9b4:	0301                	.insn	2, 0x0301
     9b6:	0900                	.insn	2, 0x0900
     9b8:	0004                	.insn	2, 0x0004
     9ba:	0301                	.insn	2, 0x0301
     9bc:	0900                	.insn	2, 0x0900
     9be:	0000                	.insn	2, 0x
     9c0:	0301                	.insn	2, 0x0301
     9c2:	0900                	.insn	2, 0x0900
     9c4:	0008                	.insn	2, 0x0008
     9c6:	0301                	.insn	2, 0x0301
     9c8:	0900                	.insn	2, 0x0900
     9ca:	0000                	.insn	2, 0x
     9cc:	0301                	.insn	2, 0x0301
     9ce:	0900                	.insn	2, 0x0900
     9d0:	0004                	.insn	2, 0x0004
     9d2:	0301                	.insn	2, 0x0301
     9d4:	0900                	.insn	2, 0x0900
     9d6:	0010                	.insn	2, 0x0010
     9d8:	0301                	.insn	2, 0x0301
     9da:	0900                	.insn	2, 0x0900
     9dc:	0000                	.insn	2, 0x
     9de:	0301                	.insn	2, 0x0301
     9e0:	0900                	.insn	2, 0x0900
     9e2:	0000                	.insn	2, 0x
     9e4:	0001                	.insn	2, 0x0001
     9e6:	0402                	.insn	2, 0x0402
     9e8:	0301                	.insn	2, 0x0301
     9ea:	0900                	.insn	2, 0x0900
     9ec:	0004                	.insn	2, 0x0004
     9ee:	0001                	.insn	2, 0x0001
     9f0:	0402                	.insn	2, 0x0402
     9f2:	09000303          	lb	t1,144(zero) # 90 <MEM_START-0xf70>
     9f6:	0008                	.insn	2, 0x0008
     9f8:	0301                	.insn	2, 0x0301
     9fa:	0900                	.insn	2, 0x0900
     9fc:	0008                	.insn	2, 0x0008
     9fe:	0301                	.insn	2, 0x0301
     a00:	0900                	.insn	2, 0x0900
     a02:	0000                	.insn	2, 0x
     a04:	0301                	.insn	2, 0x0301
     a06:	0902                	.insn	2, 0x0902
     a08:	0000                	.insn	2, 0x
     a0a:	0501                	.insn	2, 0x0501
     a0c:	0003060b          	.insn	4, 0x0003060b
     a10:	0009                	.insn	2, 0x0009
     a12:	0100                	.insn	2, 0x0100
     a14:	1405                	.insn	2, 0x1405
     a16:	0200                	.insn	2, 0x0200
     a18:	0104                	.insn	2, 0x0104
     a1a:	04090003          	lb	zero,64(s2)
     a1e:	0100                	.insn	2, 0x0100
     a20:	0805                	.insn	2, 0x0805
     a22:	0200                	.insn	2, 0x0200
     a24:	0304                	.insn	2, 0x0304
     a26:	04097e03          	.insn	4, 0x04097e03
     a2a:	0100                	.insn	2, 0x0100
     a2c:	0b05                	.insn	2, 0x0b05
     a2e:	0c097d03          	.insn	4, 0x0c097d03
     a32:	0100                	.insn	2, 0x0100
     a34:	0805                	.insn	2, 0x0805
     a36:	0200                	.insn	2, 0x0200
     a38:	0304                	.insn	2, 0x0304
     a3a:	04090303          	lb	t1,64(s2)
     a3e:	0100                	.insn	2, 0x0100
     a40:	0b05                	.insn	2, 0x0b05
     a42:	04090803          	lb	a6,64(s2)
     a46:	0100                	.insn	2, 0x0100
     a48:	2105                	.insn	2, 0x2105
     a4a:	0200                	.insn	2, 0x0200
     a4c:	0204                	.insn	2, 0x0204
     a4e:	04097a03          	.insn	4, 0x04097a03
     a52:	0100                	.insn	2, 0x0100
     a54:	0505                	.insn	2, 0x0505
     a56:	0306                	.insn	2, 0x0306
     a58:	0902                	.insn	2, 0x0902
     a5a:	0004                	.insn	2, 0x0004
     a5c:	0501                	.insn	2, 0x0501
     a5e:	00030607          	.insn	4, 0x00030607
     a62:	0009                	.insn	2, 0x0009
     a64:	0100                	.insn	2, 0x0100
     a66:	0505                	.insn	2, 0x0505
     a68:	0306                	.insn	2, 0x0306
     a6a:	0901                	.insn	2, 0x0901
     a6c:	0004                	.insn	2, 0x0004
     a6e:	0301                	.insn	2, 0x0301
     a70:	0900                	.insn	2, 0x0900
     a72:	0000                	.insn	2, 0x
     a74:	0301                	.insn	2, 0x0301
     a76:	0900                	.insn	2, 0x0900
     a78:	0000                	.insn	2, 0x
     a7a:	0301                	.insn	2, 0x0301
     a7c:	0900                	.insn	2, 0x0900
     a7e:	0000                	.insn	2, 0x
     a80:	0301                	.insn	2, 0x0301
     a82:	0900                	.insn	2, 0x0900
     a84:	0000                	.insn	2, 0x
     a86:	0501                	.insn	2, 0x0501
     a88:	43030607          	.insn	4, 0x43030607
     a8c:	0409                	.insn	2, 0x0409
     a8e:	0100                	.insn	2, 0x0100
     a90:	04097f03          	.insn	4, 0x04097f03
     a94:	0100                	.insn	2, 0x0100
     a96:	0809                	.insn	2, 0x0809
     a98:	0000                	.insn	2, 0x
     a9a:	0101                	.insn	2, 0x0101
     a9c:	0a96                	.insn	2, 0x0a96
     a9e:	0000                	.insn	2, 0x
     aa0:	0005                	.insn	2, 0x0005
     aa2:	0004                	.insn	2, 0x0004
     aa4:	00000033          	add	zero,zero,zero
     aa8:	0101                	.insn	2, 0x0101
     aaa:	fb01                	.insn	2, 0xfb01
     aac:	0d0e                	.insn	2, 0x0d0e
     aae:	0100                	.insn	2, 0x0100
     ab0:	0101                	.insn	2, 0x0101
     ab2:	0001                	.insn	2, 0x0001
     ab4:	0000                	.insn	2, 0x
     ab6:	0001                	.insn	2, 0x0001
     ab8:	0100                	.insn	2, 0x0100
     aba:	0101                	.insn	2, 0x0101
     abc:	021f 0021 0000      	.insn	6, 0x0021021f
     ac2:	0088                	.insn	2, 0x0088
     ac4:	0000                	.insn	2, 0x
     ac6:	0102                	.insn	2, 0x0102
     ac8:	021f 030f 0017      	.insn	6, 0x0017030f021f
     ace:	0000                	.insn	2, 0x
     ad0:	1701                	.insn	2, 0x1701
     ad2:	0000                	.insn	2, 0x
     ad4:	0100                	.insn	2, 0x0100
     ad6:	009f 0000 0501      	.insn	6, 0x05010000009f
     adc:	0001                	.insn	2, 0x0001
     ade:	0205                	.insn	2, 0x0205
     ae0:	29ac                	.insn	2, 0x29ac
     ae2:	0000                	.insn	2, 0x
     ae4:	0109d303          	lhu	t1,16(s3)
     ae8:	0305                	.insn	2, 0x0305
     aea:	00090103          	lb	sp,0(s2)
     aee:	0100                	.insn	2, 0x0100
     af0:	00090103          	lb	sp,0(s2)
     af4:	0100                	.insn	2, 0x0100
     af6:	00090103          	lb	sp,0(s2)
     afa:	0100                	.insn	2, 0x0100
     afc:	00090103          	lb	sp,0(s2)
     b00:	0100                	.insn	2, 0x0100
     b02:	00090203          	lb	tp,0(s2)
     b06:	0100                	.insn	2, 0x0100
     b08:	0105                	.insn	2, 0x0105
     b0a:	0306                	.insn	2, 0x0306
     b0c:	097a                	.insn	2, 0x097a
     b0e:	0000                	.insn	2, 0x
     b10:	0501                	.insn	2, 0x0501
     b12:	0306                	.insn	2, 0x0306
     b14:	0906                	.insn	2, 0x0906
     b16:	003c                	.insn	2, 0x003c
     b18:	0501                	.insn	2, 0x0501
     b1a:	0605                	.insn	2, 0x0605
     b1c:	04090103          	lb	sp,64(s2)
     b20:	0100                	.insn	2, 0x0100
     b22:	0d05                	.insn	2, 0x0d05
     b24:	0306                	.insn	2, 0x0306
     b26:	0901                	.insn	2, 0x0901
     b28:	0000                	.insn	2, 0x
     b2a:	0501                	.insn	2, 0x0501
     b2c:	097f0307          	.insn	4, 0x097f0307
     b30:	0010                	.insn	2, 0x0010
     b32:	0501                	.insn	2, 0x0501
     b34:	02030603          	lb	a2,32(t1)
     b38:	0409                	.insn	2, 0x0409
     b3a:	0100                	.insn	2, 0x0100
     b3c:	0605                	.insn	2, 0x0605
     b3e:	0306                	.insn	2, 0x0306
     b40:	0900                	.insn	2, 0x0900
     b42:	0000                	.insn	2, 0x
     b44:	0501                	.insn	2, 0x0501
     b46:	0605                	.insn	2, 0x0605
     b48:	04090103          	lb	sp,64(s2)
     b4c:	0100                	.insn	2, 0x0100
     b4e:	0d05                	.insn	2, 0x0d05
     b50:	0306                	.insn	2, 0x0306
     b52:	0900                	.insn	2, 0x0900
     b54:	0000                	.insn	2, 0x
     b56:	0501                	.insn	2, 0x0501
     b58:	02030603          	lb	a2,32(t1)
     b5c:	1009                	.insn	2, 0x1009
     b5e:	0100                	.insn	2, 0x0100
     b60:	097e8503          	lb	a0,151(t4)
     b64:	0000                	.insn	2, 0x
     b66:	0301                	.insn	2, 0x0301
     b68:	0901                	.insn	2, 0x0901
     b6a:	0000                	.insn	2, 0x
     b6c:	0301                	.insn	2, 0x0301
     b6e:	0901                	.insn	2, 0x0901
     b70:	0000                	.insn	2, 0x
     b72:	0301                	.insn	2, 0x0301
     b74:	0901                	.insn	2, 0x0901
     b76:	0000                	.insn	2, 0x
     b78:	0301                	.insn	2, 0x0301
     b7a:	0901                	.insn	2, 0x0901
     b7c:	0000                	.insn	2, 0x
     b7e:	0301                	.insn	2, 0x0301
     b80:	0901                	.insn	2, 0x0901
     b82:	0000                	.insn	2, 0x
     b84:	0301                	.insn	2, 0x0301
     b86:	0902                	.insn	2, 0x0902
     b88:	0000                	.insn	2, 0x
     b8a:	0501                	.insn	2, 0x0501
     b8c:	0606                	.insn	2, 0x0606
     b8e:	00090003          	lb	zero,0(s2)
     b92:	0100                	.insn	2, 0x0100
     b94:	0305                	.insn	2, 0x0305
     b96:	0306                	.insn	2, 0x0306
     b98:	0901                	.insn	2, 0x0901
     b9a:	0004                	.insn	2, 0x0004
     b9c:	0301                	.insn	2, 0x0301
     b9e:	0901                	.insn	2, 0x0901
     ba0:	0000                	.insn	2, 0x
     ba2:	0501                	.insn	2, 0x0501
     ba4:	0606                	.insn	2, 0x0606
     ba6:	00090003          	lb	zero,0(s2)
     baa:	0100                	.insn	2, 0x0100
     bac:	0305                	.insn	2, 0x0305
     bae:	0306                	.insn	2, 0x0306
     bb0:	0901                	.insn	2, 0x0901
     bb2:	0004                	.insn	2, 0x0004
     bb4:	0501                	.insn	2, 0x0501
     bb6:	0606                	.insn	2, 0x0606
     bb8:	00090003          	lb	zero,0(s2)
     bbc:	0100                	.insn	2, 0x0100
     bbe:	0305                	.insn	2, 0x0305
     bc0:	0306                	.insn	2, 0x0306
     bc2:	0925                	.insn	2, 0x0925
     bc4:	0004                	.insn	2, 0x0004
     bc6:	0501                	.insn	2, 0x0501
     bc8:	0606                	.insn	2, 0x0606
     bca:	00090003          	lb	zero,0(s2)
     bce:	0100                	.insn	2, 0x0100
     bd0:	0705                	.insn	2, 0x0705
     bd2:	0306                	.insn	2, 0x0306
     bd4:	0902                	.insn	2, 0x0902
     bd6:	0004                	.insn	2, 0x0004
     bd8:	0501                	.insn	2, 0x0501
     bda:	060a                	.insn	2, 0x060a
     bdc:	08090003          	lb	zero,128(s2)
     be0:	0100                	.insn	2, 0x0100
     be2:	0405                	.insn	2, 0x0405
     be4:	0306                	.insn	2, 0x0306
     be6:	0904                	.insn	2, 0x0904
     be8:	0004                	.insn	2, 0x0004
     bea:	0301                	.insn	2, 0x0301
     bec:	0900                	.insn	2, 0x0900
     bee:	0000                	.insn	2, 0x
     bf0:	0301                	.insn	2, 0x0301
     bf2:	0900                	.insn	2, 0x0900
     bf4:	0000                	.insn	2, 0x
     bf6:	0301                	.insn	2, 0x0301
     bf8:	0900                	.insn	2, 0x0900
     bfa:	0000                	.insn	2, 0x
     bfc:	0001                	.insn	2, 0x0001
     bfe:	0402                	.insn	2, 0x0402
     c00:	0301                	.insn	2, 0x0301
     c02:	0900                	.insn	2, 0x0900
     c04:	0000                	.insn	2, 0x
     c06:	0001                	.insn	2, 0x0001
     c08:	0402                	.insn	2, 0x0402
     c0a:	00030603          	lb	a2,0(t1)
     c0e:	0809                	.insn	2, 0x0809
     c10:	0100                	.insn	2, 0x0100
     c12:	0200                	.insn	2, 0x0200
     c14:	1504                	.insn	2, 0x1504
     c16:	0306                	.insn	2, 0x0306
     c18:	0900                	.insn	2, 0x0900
     c1a:	000c                	.insn	2, 0x000c
     c1c:	0301                	.insn	2, 0x0301
     c1e:	0900                	.insn	2, 0x0900
     c20:	0018                	.insn	2, 0x0018
     c22:	0301                	.insn	2, 0x0301
     c24:	0902                	.insn	2, 0x0902
     c26:	0000                	.insn	2, 0x
     c28:	0501                	.insn	2, 0x0501
     c2a:	00030607          	.insn	4, 0x00030607
     c2e:	0009                	.insn	2, 0x0009
     c30:	0100                	.insn	2, 0x0100
     c32:	0805                	.insn	2, 0x0805
     c34:	0306                	.insn	2, 0x0306
     c36:	0905                	.insn	2, 0x0905
     c38:	0004                	.insn	2, 0x0004
     c3a:	0501                	.insn	2, 0x0501
     c3c:	0611                	.insn	2, 0x0611
     c3e:	00090103          	lb	sp,0(s2)
     c42:	0100                	.insn	2, 0x0100
     c44:	1e05                	.insn	2, 0x1e05
     c46:	04090003          	lb	zero,64(s2)
     c4a:	0100                	.insn	2, 0x0100
     c4c:	0b05                	.insn	2, 0x0b05
     c4e:	04097f03          	.insn	4, 0x04097f03
     c52:	0100                	.insn	2, 0x0100
     c54:	0805                	.insn	2, 0x0805
     c56:	0306                	.insn	2, 0x0306
     c58:	0901                	.insn	2, 0x0901
     c5a:	0004                	.insn	2, 0x0004
     c5c:	0501                	.insn	2, 0x0501
     c5e:	0003060b          	.insn	4, 0x0003060b
     c62:	0009                	.insn	2, 0x0009
     c64:	0100                	.insn	2, 0x0100
     c66:	0805                	.insn	2, 0x0805
     c68:	0306                	.insn	2, 0x0306
     c6a:	0901                	.insn	2, 0x0901
     c6c:	0004                	.insn	2, 0x0004
     c6e:	0501                	.insn	2, 0x0501
     c70:	0003060b          	.insn	4, 0x0003060b
     c74:	0009                	.insn	2, 0x0009
     c76:	0100                	.insn	2, 0x0100
     c78:	0405                	.insn	2, 0x0405
     c7a:	0306                	.insn	2, 0x0306
     c7c:	00040903          	lb	s2,0(s0)
     c80:	0301                	.insn	2, 0x0301
     c82:	0900                	.insn	2, 0x0900
     c84:	0000                	.insn	2, 0x
     c86:	0301                	.insn	2, 0x0301
     c88:	0900                	.insn	2, 0x0900
     c8a:	0000                	.insn	2, 0x
     c8c:	0301                	.insn	2, 0x0301
     c8e:	0900                	.insn	2, 0x0900
     c90:	0000                	.insn	2, 0x
     c92:	0301                	.insn	2, 0x0301
     c94:	0900                	.insn	2, 0x0900
     c96:	0004                	.insn	2, 0x0004
     c98:	0301                	.insn	2, 0x0301
     c9a:	0900                	.insn	2, 0x0900
     c9c:	0014                	.insn	2, 0x0014
     c9e:	0301                	.insn	2, 0x0301
     ca0:	0900                	.insn	2, 0x0900
     ca2:	0000                	.insn	2, 0x
     ca4:	0301                	.insn	2, 0x0301
     ca6:	0900                	.insn	2, 0x0900
     ca8:	0000                	.insn	2, 0x
     caa:	0301                	.insn	2, 0x0301
     cac:	0900                	.insn	2, 0x0900
     cae:	000c                	.insn	2, 0x000c
     cb0:	0301                	.insn	2, 0x0301
     cb2:	0900                	.insn	2, 0x0900
     cb4:	0018                	.insn	2, 0x0018
     cb6:	0001                	.insn	2, 0x0001
     cb8:	0402                	.insn	2, 0x0402
     cba:	0301                	.insn	2, 0x0301
     cbc:	0900                	.insn	2, 0x0900
     cbe:	0004                	.insn	2, 0x0004
     cc0:	0301                	.insn	2, 0x0301
     cc2:	0900                	.insn	2, 0x0900
     cc4:	0004                	.insn	2, 0x0004
     cc6:	0001                	.insn	2, 0x0001
     cc8:	0402                	.insn	2, 0x0402
     cca:	0601                	.insn	2, 0x0601
     ccc:	00090003          	lb	zero,0(s2)
     cd0:	0100                	.insn	2, 0x0100
     cd2:	0200                	.insn	2, 0x0200
     cd4:	0304                	.insn	2, 0x0304
     cd6:	0306                	.insn	2, 0x0306
     cd8:	0900                	.insn	2, 0x0900
     cda:	0004                	.insn	2, 0x0004
     cdc:	0001                	.insn	2, 0x0001
     cde:	0402                	.insn	2, 0x0402
     ce0:	0305                	.insn	2, 0x0305
     ce2:	0900                	.insn	2, 0x0900
     ce4:	0004                	.insn	2, 0x0004
     ce6:	0001                	.insn	2, 0x0001
     ce8:	0402                	.insn	2, 0x0402
     cea:	09000307          	.insn	4, 0x09000307
     cee:	0004                	.insn	2, 0x0004
     cf0:	0301                	.insn	2, 0x0301
     cf2:	0900                	.insn	2, 0x0900
     cf4:	0004                	.insn	2, 0x0004
     cf6:	0301                	.insn	2, 0x0301
     cf8:	0900                	.insn	2, 0x0900
     cfa:	0000                	.insn	2, 0x
     cfc:	0301                	.insn	2, 0x0301
     cfe:	0900                	.insn	2, 0x0900
     d00:	0000                	.insn	2, 0x
     d02:	0001                	.insn	2, 0x0001
     d04:	0402                	.insn	2, 0x0402
     d06:	00030607          	.insn	4, 0x00030607
     d0a:	0009                	.insn	2, 0x0009
     d0c:	0100                	.insn	2, 0x0100
     d0e:	0306                	.insn	2, 0x0306
     d10:	0900                	.insn	2, 0x0900
     d12:	0018                	.insn	2, 0x0018
     d14:	0001                	.insn	2, 0x0001
     d16:	0402                	.insn	2, 0x0402
     d18:	00030607          	.insn	4, 0x00030607
     d1c:	0009                	.insn	2, 0x0009
     d1e:	0100                	.insn	2, 0x0100
     d20:	0200                	.insn	2, 0x0200
     d22:	0704                	.insn	2, 0x0704
     d24:	04092a03          	lw	s4,64(s2)
     d28:	0100                	.insn	2, 0x0100
     d2a:	0306                	.insn	2, 0x0306
     d2c:	0900                	.insn	2, 0x0900
     d2e:	0018                	.insn	2, 0x0018
     d30:	0001                	.insn	2, 0x0001
     d32:	0402                	.insn	2, 0x0402
     d34:	00030607          	.insn	4, 0x00030607
     d38:	0009                	.insn	2, 0x0009
     d3a:	0100                	.insn	2, 0x0100
     d3c:	0200                	.insn	2, 0x0200
     d3e:	0804                	.insn	2, 0x0804
     d40:	0306                	.insn	2, 0x0306
     d42:	0900                	.insn	2, 0x0900
     d44:	0004                	.insn	2, 0x0004
     d46:	0301                	.insn	2, 0x0301
     d48:	0900                	.insn	2, 0x0900
     d4a:	0004                	.insn	2, 0x0004
     d4c:	0001                	.insn	2, 0x0001
     d4e:	0402                	.insn	2, 0x0402
     d50:	0608                	.insn	2, 0x0608
     d52:	00090003          	lb	zero,0(s2)
     d56:	0100                	.insn	2, 0x0100
     d58:	0200                	.insn	2, 0x0200
     d5a:	0a04                	.insn	2, 0x0a04
     d5c:	0306                	.insn	2, 0x0306
     d5e:	0900                	.insn	2, 0x0900
     d60:	0004                	.insn	2, 0x0004
     d62:	0001                	.insn	2, 0x0001
     d64:	0402                	.insn	2, 0x0402
     d66:	030c                	.insn	2, 0x030c
     d68:	0900                	.insn	2, 0x0900
     d6a:	0004                	.insn	2, 0x0004
     d6c:	0001                	.insn	2, 0x0001
     d6e:	0402                	.insn	2, 0x0402
     d70:	030e                	.insn	2, 0x030e
     d72:	0900                	.insn	2, 0x0900
     d74:	0004                	.insn	2, 0x0004
     d76:	0301                	.insn	2, 0x0301
     d78:	0900                	.insn	2, 0x0900
     d7a:	0004                	.insn	2, 0x0004
     d7c:	0301                	.insn	2, 0x0301
     d7e:	0900                	.insn	2, 0x0900
     d80:	0000                	.insn	2, 0x
     d82:	0001                	.insn	2, 0x0001
     d84:	0402                	.insn	2, 0x0402
     d86:	0900030f          	.insn	4, 0x0900030f
     d8a:	0000                	.insn	2, 0x
     d8c:	0501                	.insn	2, 0x0501
     d8e:	09050307          	.insn	4, 0x09050307
     d92:	0000                	.insn	2, 0x
     d94:	0501                	.insn	2, 0x0501
     d96:	0304                	.insn	2, 0x0304
     d98:	0902                	.insn	2, 0x0902
     d9a:	0000                	.insn	2, 0x
     d9c:	0501                	.insn	2, 0x0501
     d9e:	0612                	.insn	2, 0x0612
     da0:	00090003          	lb	zero,0(s2)
     da4:	0100                	.insn	2, 0x0100
     da6:	0405                	.insn	2, 0x0405
     da8:	0306                	.insn	2, 0x0306
     daa:	0901                	.insn	2, 0x0901
     dac:	0004                	.insn	2, 0x0004
     dae:	0301                	.insn	2, 0x0301
     db0:	0901                	.insn	2, 0x0901
     db2:	0000                	.insn	2, 0x
     db4:	0501                	.insn	2, 0x0501
     db6:	060c                	.insn	2, 0x060c
     db8:	00090003          	lb	zero,0(s2)
     dbc:	0100                	.insn	2, 0x0100
     dbe:	0305                	.insn	2, 0x0305
     dc0:	0306                	.insn	2, 0x0306
     dc2:	00da                	.insn	2, 0x00da
     dc4:	0409                	.insn	2, 0x0409
     dc6:	0100                	.insn	2, 0x0100
     dc8:	00090103          	lb	sp,0(s2)
     dcc:	0100                	.insn	2, 0x0100
     dce:	00092d03          	lw	s10,0(s2)
     dd2:	0100                	.insn	2, 0x0100
     dd4:	0605                	.insn	2, 0x0605
     dd6:	0306                	.insn	2, 0x0306
     dd8:	0900                	.insn	2, 0x0900
     dda:	0000                	.insn	2, 0x
     ddc:	0501                	.insn	2, 0x0501
     dde:	0605                	.insn	2, 0x0605
     de0:	04090103          	lb	sp,64(s2)
     de4:	0100                	.insn	2, 0x0100
     de6:	0905                	.insn	2, 0x0905
     de8:	0306                	.insn	2, 0x0306
     dea:	0900                	.insn	2, 0x0900
     dec:	0000                	.insn	2, 0x
     dee:	0501                	.insn	2, 0x0501
     df0:	02030603          	lb	a2,32(t1)
     df4:	1009                	.insn	2, 0x1009
     df6:	0100                	.insn	2, 0x0100
     df8:	0105                	.insn	2, 0x0105
     dfa:	0306                	.insn	2, 0x0306
     dfc:	0901                	.insn	2, 0x0901
     dfe:	0000                	.insn	2, 0x
     e00:	0501                	.insn	2, 0x0501
     e02:	0004                	.insn	2, 0x0004
     e04:	0402                	.insn	2, 0x0402
     e06:	0304                	.insn	2, 0x0304
     e08:	7eb5                	.insn	2, 0x7eb5
     e0a:	3c09                	.insn	2, 0x3c09
     e0c:	0100                	.insn	2, 0x0100
     e0e:	0200                	.insn	2, 0x0200
     e10:	0b04                	.insn	2, 0x0b04
     e12:	04090003          	lb	zero,64(s2)
     e16:	0100                	.insn	2, 0x0100
     e18:	0200                	.insn	2, 0x0200
     e1a:	0404                	.insn	2, 0x0404
     e1c:	04090003          	lb	zero,64(s2)
     e20:	0100                	.insn	2, 0x0100
     e22:	0200                	.insn	2, 0x0200
     e24:	0a04                	.insn	2, 0x0a04
     e26:	04090003          	lb	zero,64(s2)
     e2a:	0100                	.insn	2, 0x0100
     e2c:	0306                	.insn	2, 0x0306
     e2e:	0915                	.insn	2, 0x0915
     e30:	0008                	.insn	2, 0x0008
     e32:	0001                	.insn	2, 0x0001
     e34:	0402                	.insn	2, 0x0402
     e36:	0605                	.insn	2, 0x0605
     e38:	00090303          	lb	t1,0(s2)
     e3c:	0100                	.insn	2, 0x0100
     e3e:	0705                	.insn	2, 0x0705
     e40:	04097d03          	.insn	4, 0x04097d03
     e44:	0100                	.insn	2, 0x0100
     e46:	0405                	.insn	2, 0x0405
     e48:	0306                	.insn	2, 0x0306
     e4a:	00040903          	lb	s2,0(s0)
     e4e:	0301                	.insn	2, 0x0301
     e50:	0900                	.insn	2, 0x0900
     e52:	0000                	.insn	2, 0x
     e54:	0301                	.insn	2, 0x0301
     e56:	0900                	.insn	2, 0x0900
     e58:	0000                	.insn	2, 0x
     e5a:	0301                	.insn	2, 0x0301
     e5c:	0900                	.insn	2, 0x0900
     e5e:	0000                	.insn	2, 0x
     e60:	0001                	.insn	2, 0x0001
     e62:	0402                	.insn	2, 0x0402
     e64:	0301                	.insn	2, 0x0301
     e66:	0900                	.insn	2, 0x0900
     e68:	0000                	.insn	2, 0x
     e6a:	0001                	.insn	2, 0x0001
     e6c:	0402                	.insn	2, 0x0402
     e6e:	00030603          	lb	a2,0(t1)
     e72:	0809                	.insn	2, 0x0809
     e74:	0100                	.insn	2, 0x0100
     e76:	0200                	.insn	2, 0x0200
     e78:	1504                	.insn	2, 0x1504
     e7a:	0306                	.insn	2, 0x0306
     e7c:	0900                	.insn	2, 0x0900
     e7e:	000c                	.insn	2, 0x000c
     e80:	0501                	.insn	2, 0x0501
     e82:	0b03060b          	.insn	4, 0x0b03060b
     e86:	0c09                	.insn	2, 0x0c09
     e88:	0100                	.insn	2, 0x0100
     e8a:	0405                	.insn	2, 0x0405
     e8c:	0200                	.insn	2, 0x0200
     e8e:	1504                	.insn	2, 0x1504
     e90:	04097503          	.insn	4, 0x04097503
     e94:	0100                	.insn	2, 0x0100
     e96:	0306                	.insn	2, 0x0306
     e98:	0900                	.insn	2, 0x0900
     e9a:	000c                	.insn	2, 0x000c
     e9c:	0301                	.insn	2, 0x0301
     e9e:	0902                	.insn	2, 0x0902
     ea0:	0000                	.insn	2, 0x
     ea2:	0501                	.insn	2, 0x0501
     ea4:	00030607          	.insn	4, 0x00030607
     ea8:	0009                	.insn	2, 0x0009
     eaa:	0100                	.insn	2, 0x0100
     eac:	0805                	.insn	2, 0x0805
     eae:	0306                	.insn	2, 0x0306
     eb0:	0910                	.insn	2, 0x0910
     eb2:	0004                	.insn	2, 0x0004
     eb4:	0301                	.insn	2, 0x0301
     eb6:	0902                	.insn	2, 0x0902
     eb8:	0000                	.insn	2, 0x
     eba:	0501                	.insn	2, 0x0501
     ebc:	0003060b          	.insn	4, 0x0003060b
     ec0:	0009                	.insn	2, 0x0009
     ec2:	0100                	.insn	2, 0x0100
     ec4:	0805                	.insn	2, 0x0805
     ec6:	0306                	.insn	2, 0x0306
     ec8:	0901                	.insn	2, 0x0901
     eca:	0004                	.insn	2, 0x0004
     ecc:	0501                	.insn	2, 0x0501
     ece:	0003060b          	.insn	4, 0x0003060b
     ed2:	0009                	.insn	2, 0x0009
     ed4:	0100                	.insn	2, 0x0100
     ed6:	0805                	.insn	2, 0x0805
     ed8:	0306                	.insn	2, 0x0306
     eda:	0901                	.insn	2, 0x0901
     edc:	0004                	.insn	2, 0x0004
     ede:	0601                	.insn	2, 0x0601
     ee0:	00090303          	lb	t1,0(s2)
     ee4:	0100                	.insn	2, 0x0100
     ee6:	1e05                	.insn	2, 0x1e05
     ee8:	04097d03          	.insn	4, 0x04097d03
     eec:	0100                	.insn	2, 0x0100
     eee:	1105                	.insn	2, 0x1105
     ef0:	04090003          	lb	zero,64(s2)
     ef4:	0100                	.insn	2, 0x0100
     ef6:	0b05                	.insn	2, 0x0b05
     ef8:	04090003          	lb	zero,64(s2)
     efc:	0100                	.insn	2, 0x0100
     efe:	0805                	.insn	2, 0x0805
     f00:	0306                	.insn	2, 0x0306
     f02:	0901                	.insn	2, 0x0901
     f04:	0004                	.insn	2, 0x0004
     f06:	0501                	.insn	2, 0x0501
     f08:	0003060b          	.insn	4, 0x0003060b
     f0c:	0009                	.insn	2, 0x0009
     f0e:	0100                	.insn	2, 0x0100
     f10:	0805                	.insn	2, 0x0805
     f12:	0306                	.insn	2, 0x0306
     f14:	0902                	.insn	2, 0x0902
     f16:	0004                	.insn	2, 0x0004
     f18:	0301                	.insn	2, 0x0301
     f1a:	0900                	.insn	2, 0x0900
     f1c:	0000                	.insn	2, 0x
     f1e:	0301                	.insn	2, 0x0301
     f20:	0900                	.insn	2, 0x0900
     f22:	0000                	.insn	2, 0x
     f24:	0301                	.insn	2, 0x0301
     f26:	0900                	.insn	2, 0x0900
     f28:	0000                	.insn	2, 0x
     f2a:	0301                	.insn	2, 0x0301
     f2c:	0900                	.insn	2, 0x0900
     f2e:	0000                	.insn	2, 0x
     f30:	0301                	.insn	2, 0x0301
     f32:	0900                	.insn	2, 0x0900
     f34:	0014                	.insn	2, 0x0014
     f36:	0301                	.insn	2, 0x0301
     f38:	0900                	.insn	2, 0x0900
     f3a:	0000                	.insn	2, 0x
     f3c:	0301                	.insn	2, 0x0301
     f3e:	0900                	.insn	2, 0x0900
     f40:	0000                	.insn	2, 0x
     f42:	0301                	.insn	2, 0x0301
     f44:	0900                	.insn	2, 0x0900
     f46:	000c                	.insn	2, 0x000c
     f48:	0301                	.insn	2, 0x0301
     f4a:	0900                	.insn	2, 0x0900
     f4c:	0018                	.insn	2, 0x0018
     f4e:	0001                	.insn	2, 0x0001
     f50:	0402                	.insn	2, 0x0402
     f52:	0301                	.insn	2, 0x0301
     f54:	0900                	.insn	2, 0x0900
     f56:	0004                	.insn	2, 0x0004
     f58:	0301                	.insn	2, 0x0301
     f5a:	0900                	.insn	2, 0x0900
     f5c:	0004                	.insn	2, 0x0004
     f5e:	0001                	.insn	2, 0x0001
     f60:	0402                	.insn	2, 0x0402
     f62:	0601                	.insn	2, 0x0601
     f64:	00090003          	lb	zero,0(s2)
     f68:	0100                	.insn	2, 0x0100
     f6a:	0200                	.insn	2, 0x0200
     f6c:	0304                	.insn	2, 0x0304
     f6e:	0306                	.insn	2, 0x0306
     f70:	0900                	.insn	2, 0x0900
     f72:	0004                	.insn	2, 0x0004
     f74:	0001                	.insn	2, 0x0001
     f76:	0402                	.insn	2, 0x0402
     f78:	0305                	.insn	2, 0x0305
     f7a:	0900                	.insn	2, 0x0900
     f7c:	0004                	.insn	2, 0x0004
     f7e:	0001                	.insn	2, 0x0001
     f80:	0402                	.insn	2, 0x0402
     f82:	09000307          	.insn	4, 0x09000307
     f86:	0004                	.insn	2, 0x0004
     f88:	0301                	.insn	2, 0x0301
     f8a:	0900                	.insn	2, 0x0900
     f8c:	0004                	.insn	2, 0x0004
     f8e:	0301                	.insn	2, 0x0301
     f90:	0900                	.insn	2, 0x0900
     f92:	0000                	.insn	2, 0x
     f94:	0301                	.insn	2, 0x0301
     f96:	0900                	.insn	2, 0x0900
     f98:	0000                	.insn	2, 0x
     f9a:	0001                	.insn	2, 0x0001
     f9c:	0402                	.insn	2, 0x0402
     f9e:	00030607          	.insn	4, 0x00030607
     fa2:	0009                	.insn	2, 0x0009
     fa4:	0100                	.insn	2, 0x0100
     fa6:	0306                	.insn	2, 0x0306
     fa8:	0900                	.insn	2, 0x0900
     faa:	0018                	.insn	2, 0x0018
     fac:	0001                	.insn	2, 0x0001
     fae:	0402                	.insn	2, 0x0402
     fb0:	00030607          	.insn	4, 0x00030607
     fb4:	0009                	.insn	2, 0x0009
     fb6:	0100                	.insn	2, 0x0100
     fb8:	0306                	.insn	2, 0x0306
     fba:	0900                	.insn	2, 0x0900
     fbc:	001c                	.insn	2, 0x001c
     fbe:	0001                	.insn	2, 0x0001
     fc0:	0402                	.insn	2, 0x0402
     fc2:	00030607          	.insn	4, 0x00030607
     fc6:	0009                	.insn	2, 0x0009
     fc8:	0100                	.insn	2, 0x0100
     fca:	0200                	.insn	2, 0x0200
     fcc:	0804                	.insn	2, 0x0804
     fce:	0306                	.insn	2, 0x0306
     fd0:	0900                	.insn	2, 0x0900
     fd2:	0004                	.insn	2, 0x0004
     fd4:	0301                	.insn	2, 0x0301
     fd6:	0900                	.insn	2, 0x0900
     fd8:	0004                	.insn	2, 0x0004
     fda:	0001                	.insn	2, 0x0001
     fdc:	0402                	.insn	2, 0x0402
     fde:	0608                	.insn	2, 0x0608
     fe0:	00090003          	lb	zero,0(s2)
     fe4:	0100                	.insn	2, 0x0100
     fe6:	0200                	.insn	2, 0x0200
     fe8:	0a04                	.insn	2, 0x0a04
     fea:	0306                	.insn	2, 0x0306
     fec:	0900                	.insn	2, 0x0900
     fee:	0004                	.insn	2, 0x0004
     ff0:	0001                	.insn	2, 0x0001
     ff2:	0402                	.insn	2, 0x0402
     ff4:	030c                	.insn	2, 0x030c
     ff6:	0900                	.insn	2, 0x0900
     ff8:	0004                	.insn	2, 0x0004
     ffa:	0001                	.insn	2, 0x0001
     ffc:	0402                	.insn	2, 0x0402
     ffe:	030e                	.insn	2, 0x030e
    1000:	0900                	.insn	2, 0x0900
    1002:	0004                	.insn	2, 0x0004
    1004:	0301                	.insn	2, 0x0301
    1006:	0900                	.insn	2, 0x0900
    1008:	0004                	.insn	2, 0x0004
    100a:	0301                	.insn	2, 0x0301
    100c:	0900                	.insn	2, 0x0900
    100e:	0000                	.insn	2, 0x
    1010:	0001                	.insn	2, 0x0001
    1012:	0402                	.insn	2, 0x0402
    1014:	0900030f          	.insn	4, 0x0900030f
    1018:	0000                	.insn	2, 0x
    101a:	0501                	.insn	2, 0x0501
    101c:	0304                	.insn	2, 0x0304
    101e:	0905                	.insn	2, 0x0905
    1020:	0000                	.insn	2, 0x
    1022:	0301                	.insn	2, 0x0301
    1024:	0900                	.insn	2, 0x0900
    1026:	0000                	.insn	2, 0x
    1028:	0301                	.insn	2, 0x0301
    102a:	0900                	.insn	2, 0x0900
    102c:	0000                	.insn	2, 0x
    102e:	0301                	.insn	2, 0x0301
    1030:	0900                	.insn	2, 0x0900
    1032:	0000                	.insn	2, 0x
    1034:	0301                	.insn	2, 0x0301
    1036:	0900                	.insn	2, 0x0900
    1038:	0004                	.insn	2, 0x0004
    103a:	0301                	.insn	2, 0x0301
    103c:	0900                	.insn	2, 0x0900
    103e:	0014                	.insn	2, 0x0014
    1040:	0301                	.insn	2, 0x0301
    1042:	0900                	.insn	2, 0x0900
    1044:	0000                	.insn	2, 0x
    1046:	0301                	.insn	2, 0x0301
    1048:	0900                	.insn	2, 0x0900
    104a:	0000                	.insn	2, 0x
    104c:	0301                	.insn	2, 0x0301
    104e:	0900                	.insn	2, 0x0900
    1050:	000c                	.insn	2, 0x000c
    1052:	0301                	.insn	2, 0x0301
    1054:	0900                	.insn	2, 0x0900
    1056:	0018                	.insn	2, 0x0018
    1058:	0001                	.insn	2, 0x0001
    105a:	0402                	.insn	2, 0x0402
    105c:	0301                	.insn	2, 0x0301
    105e:	0900                	.insn	2, 0x0900
    1060:	0004                	.insn	2, 0x0004
    1062:	0301                	.insn	2, 0x0301
    1064:	0900                	.insn	2, 0x0900
    1066:	0004                	.insn	2, 0x0004
    1068:	0001                	.insn	2, 0x0001
    106a:	0402                	.insn	2, 0x0402
    106c:	0601                	.insn	2, 0x0601
    106e:	00090003          	lb	zero,0(s2)
    1072:	0100                	.insn	2, 0x0100
    1074:	0200                	.insn	2, 0x0200
    1076:	0304                	.insn	2, 0x0304
    1078:	0306                	.insn	2, 0x0306
    107a:	0900                	.insn	2, 0x0900
    107c:	0004                	.insn	2, 0x0004
    107e:	0001                	.insn	2, 0x0001
    1080:	0402                	.insn	2, 0x0402
    1082:	0305                	.insn	2, 0x0305
    1084:	0900                	.insn	2, 0x0900
    1086:	0004                	.insn	2, 0x0004
    1088:	0001                	.insn	2, 0x0001
    108a:	0402                	.insn	2, 0x0402
    108c:	09000307          	.insn	4, 0x09000307
    1090:	0004                	.insn	2, 0x0004
    1092:	0301                	.insn	2, 0x0301
    1094:	0900                	.insn	2, 0x0900
    1096:	0004                	.insn	2, 0x0004
    1098:	0301                	.insn	2, 0x0301
    109a:	0900                	.insn	2, 0x0900
    109c:	0000                	.insn	2, 0x
    109e:	0301                	.insn	2, 0x0301
    10a0:	0900                	.insn	2, 0x0900
    10a2:	0000                	.insn	2, 0x
    10a4:	0001                	.insn	2, 0x0001
    10a6:	0402                	.insn	2, 0x0402
    10a8:	00030607          	.insn	4, 0x00030607
    10ac:	0009                	.insn	2, 0x0009
    10ae:	0100                	.insn	2, 0x0100
    10b0:	0306                	.insn	2, 0x0306
    10b2:	0900                	.insn	2, 0x0900
    10b4:	0018                	.insn	2, 0x0018
    10b6:	0001                	.insn	2, 0x0001
    10b8:	0402                	.insn	2, 0x0402
    10ba:	00030607          	.insn	4, 0x00030607
    10be:	0009                	.insn	2, 0x0009
    10c0:	0100                	.insn	2, 0x0100
    10c2:	0200                	.insn	2, 0x0200
    10c4:	0404                	.insn	2, 0x0404
    10c6:	08096203          	.insn	4, 0x08096203
    10ca:	0100                	.insn	2, 0x0100
    10cc:	0200                	.insn	2, 0x0200
    10ce:	0b04                	.insn	2, 0x0b04
    10d0:	04090003          	lb	zero,64(s2)
    10d4:	0100                	.insn	2, 0x0100
    10d6:	0200                	.insn	2, 0x0200
    10d8:	0404                	.insn	2, 0x0404
    10da:	04090003          	lb	zero,64(s2)
    10de:	0100                	.insn	2, 0x0100
    10e0:	0200                	.insn	2, 0x0200
    10e2:	0a04                	.insn	2, 0x0a04
    10e4:	04090003          	lb	zero,64(s2)
    10e8:	0100                	.insn	2, 0x0100
    10ea:	0705                	.insn	2, 0x0705
    10ec:	0306                	.insn	2, 0x0306
    10ee:	092e                	.insn	2, 0x092e
    10f0:	0008                	.insn	2, 0x0008
    10f2:	0501                	.insn	2, 0x0501
    10f4:	060a                	.insn	2, 0x060a
    10f6:	00090003          	lb	zero,0(s2)
    10fa:	0100                	.insn	2, 0x0100
    10fc:	0405                	.insn	2, 0x0405
    10fe:	0306                	.insn	2, 0x0306
    1100:	00040913          	mv	s2,s0
    1104:	0301                	.insn	2, 0x0301
    1106:	0900                	.insn	2, 0x0900
    1108:	0000                	.insn	2, 0x
    110a:	0301                	.insn	2, 0x0301
    110c:	0900                	.insn	2, 0x0900
    110e:	0000                	.insn	2, 0x
    1110:	0301                	.insn	2, 0x0301
    1112:	0900                	.insn	2, 0x0900
    1114:	0000                	.insn	2, 0x
    1116:	0001                	.insn	2, 0x0001
    1118:	0402                	.insn	2, 0x0402
    111a:	0301                	.insn	2, 0x0301
    111c:	0900                	.insn	2, 0x0900
    111e:	0000                	.insn	2, 0x
    1120:	0001                	.insn	2, 0x0001
    1122:	0402                	.insn	2, 0x0402
    1124:	00030603          	lb	a2,0(t1)
    1128:	0809                	.insn	2, 0x0809
    112a:	0100                	.insn	2, 0x0100
    112c:	0200                	.insn	2, 0x0200
    112e:	1504                	.insn	2, 0x1504
    1130:	0306                	.insn	2, 0x0306
    1132:	0900                	.insn	2, 0x0900
    1134:	000c                	.insn	2, 0x000c
    1136:	0301                	.insn	2, 0x0301
    1138:	0900                	.insn	2, 0x0900
    113a:	0020                	.insn	2, 0x0020
    113c:	0301                	.insn	2, 0x0301
    113e:	0901                	.insn	2, 0x0901
    1140:	0000                	.insn	2, 0x
    1142:	0501                	.insn	2, 0x0501
    1144:	00030607          	.insn	4, 0x00030607
    1148:	0009                	.insn	2, 0x0009
    114a:	0100                	.insn	2, 0x0100
    114c:	0805                	.insn	2, 0x0805
    114e:	0306                	.insn	2, 0x0306
    1150:	090a                	.insn	2, 0x090a
    1152:	0004                	.insn	2, 0x0004
    1154:	0501                	.insn	2, 0x0501
    1156:	0003060b          	.insn	4, 0x0003060b
    115a:	0009                	.insn	2, 0x0009
    115c:	0100                	.insn	2, 0x0100
    115e:	1405                	.insn	2, 0x1405
    1160:	0200                	.insn	2, 0x0200
    1162:	0104                	.insn	2, 0x0104
    1164:	04090003          	lb	zero,64(s2)
    1168:	0100                	.insn	2, 0x0100
    116a:	0505                	.insn	2, 0x0505
    116c:	0306                	.insn	2, 0x0306
    116e:	0902                	.insn	2, 0x0902
    1170:	0004                	.insn	2, 0x0004
    1172:	0301                	.insn	2, 0x0301
    1174:	0901                	.insn	2, 0x0901
    1176:	0000                	.insn	2, 0x
    1178:	0301                	.insn	2, 0x0301
    117a:	0900                	.insn	2, 0x0900
    117c:	0000                	.insn	2, 0x
    117e:	0301                	.insn	2, 0x0301
    1180:	0900                	.insn	2, 0x0900
    1182:	0000                	.insn	2, 0x
    1184:	0301                	.insn	2, 0x0301
    1186:	0900                	.insn	2, 0x0900
    1188:	0010                	.insn	2, 0x0010
    118a:	0301                	.insn	2, 0x0301
    118c:	0900                	.insn	2, 0x0900
    118e:	0004                	.insn	2, 0x0004
    1190:	0301                	.insn	2, 0x0301
    1192:	0900                	.insn	2, 0x0900
    1194:	0000                	.insn	2, 0x
    1196:	0501                	.insn	2, 0x0501
    1198:	0308                	.insn	2, 0x0308
    119a:	0905                	.insn	2, 0x0905
    119c:	0000                	.insn	2, 0x
    119e:	0301                	.insn	2, 0x0301
    11a0:	0902                	.insn	2, 0x0902
    11a2:	0000                	.insn	2, 0x
    11a4:	0501                	.insn	2, 0x0501
    11a6:	0305                	.insn	2, 0x0305
    11a8:	0902                	.insn	2, 0x0902
    11aa:	0000                	.insn	2, 0x
    11ac:	0301                	.insn	2, 0x0301
    11ae:	0901                	.insn	2, 0x0901
    11b0:	0000                	.insn	2, 0x
    11b2:	0301                	.insn	2, 0x0301
    11b4:	0901                	.insn	2, 0x0901
    11b6:	0000                	.insn	2, 0x
    11b8:	0501                	.insn	2, 0x0501
    11ba:	060d                	.insn	2, 0x060d
    11bc:	00090003          	lb	zero,0(s2)
    11c0:	0100                	.insn	2, 0x0100
    11c2:	0405                	.insn	2, 0x0405
    11c4:	0200                	.insn	2, 0x0200
    11c6:	0404                	.insn	2, 0x0404
    11c8:	0c096703          	.insn	4, 0x0c096703
    11cc:	0100                	.insn	2, 0x0100
    11ce:	0200                	.insn	2, 0x0200
    11d0:	0b04                	.insn	2, 0x0b04
    11d2:	04090003          	lb	zero,64(s2)
    11d6:	0100                	.insn	2, 0x0100
    11d8:	0200                	.insn	2, 0x0200
    11da:	0404                	.insn	2, 0x0404
    11dc:	04090003          	lb	zero,64(s2)
    11e0:	0100                	.insn	2, 0x0100
    11e2:	0200                	.insn	2, 0x0200
    11e4:	0a04                	.insn	2, 0x0a04
    11e6:	04090003          	lb	zero,64(s2)
    11ea:	0100                	.insn	2, 0x0100
    11ec:	0805                	.insn	2, 0x0805
    11ee:	0306                	.insn	2, 0x0306
    11f0:	091e                	.insn	2, 0x091e
    11f2:	0008                	.insn	2, 0x0008
    11f4:	0301                	.insn	2, 0x0301
    11f6:	00000903          	lb	s2,0(zero) # 0 <MEM_START-0x1000>
    11fa:	0301                	.insn	2, 0x0301
    11fc:	0902                	.insn	2, 0x0902
    11fe:	0000                	.insn	2, 0x
    1200:	0501                	.insn	2, 0x0501
    1202:	0611                	.insn	2, 0x0611
    1204:	00090003          	lb	zero,0(s2)
    1208:	0100                	.insn	2, 0x0100
    120a:	1e05                	.insn	2, 0x1e05
    120c:	04090003          	lb	zero,64(s2)
    1210:	0100                	.insn	2, 0x0100
    1212:	0b05                	.insn	2, 0x0b05
    1214:	04090003          	lb	zero,64(s2)
    1218:	0100                	.insn	2, 0x0100
    121a:	0805                	.insn	2, 0x0805
    121c:	0306                	.insn	2, 0x0306
    121e:	0901                	.insn	2, 0x0901
    1220:	0004                	.insn	2, 0x0004
    1222:	0501                	.insn	2, 0x0501
    1224:	0103060b          	.insn	4, 0x0103060b
    1228:	0009                	.insn	2, 0x0009
    122a:	0100                	.insn	2, 0x0100
    122c:	1e05                	.insn	2, 0x1e05
    122e:	04090103          	lb	sp,64(s2)
    1232:	0100                	.insn	2, 0x0100
    1234:	1105                	.insn	2, 0x1105
    1236:	04090003          	lb	zero,64(s2)
    123a:	0100                	.insn	2, 0x0100
    123c:	0805                	.insn	2, 0x0805
    123e:	04090303          	lb	t1,64(s2)
    1242:	0100                	.insn	2, 0x0100
    1244:	0b05                	.insn	2, 0x0b05
    1246:	04097d03          	.insn	4, 0x04097d03
    124a:	0100                	.insn	2, 0x0100
    124c:	04090103          	lb	sp,64(s2)
    1250:	0100                	.insn	2, 0x0100
    1252:	0805                	.insn	2, 0x0805
    1254:	04090203          	lb	tp,64(s2)
    1258:	0100                	.insn	2, 0x0100
    125a:	0b05                	.insn	2, 0x0b05
    125c:	0c097b03          	.insn	4, 0x0c097b03
    1260:	0100                	.insn	2, 0x0100
    1262:	0805                	.insn	2, 0x0805
    1264:	0306                	.insn	2, 0x0306
    1266:	0901                	.insn	2, 0x0901
    1268:	0004                	.insn	2, 0x0004
    126a:	0301                	.insn	2, 0x0301
    126c:	0901                	.insn	2, 0x0901
    126e:	0000                	.insn	2, 0x
    1270:	0301                	.insn	2, 0x0301
    1272:	0901                	.insn	2, 0x0901
    1274:	0000                	.insn	2, 0x
    1276:	0301                	.insn	2, 0x0301
    1278:	0902                	.insn	2, 0x0902
    127a:	0000                	.insn	2, 0x
    127c:	0301                	.insn	2, 0x0301
    127e:	0900                	.insn	2, 0x0900
    1280:	0000                	.insn	2, 0x
    1282:	0301                	.insn	2, 0x0301
    1284:	0900                	.insn	2, 0x0900
    1286:	0000                	.insn	2, 0x
    1288:	0301                	.insn	2, 0x0301
    128a:	0900                	.insn	2, 0x0900
    128c:	0000                	.insn	2, 0x
    128e:	0301                	.insn	2, 0x0301
    1290:	0900                	.insn	2, 0x0900
    1292:	0000                	.insn	2, 0x
    1294:	0301                	.insn	2, 0x0301
    1296:	0900                	.insn	2, 0x0900
    1298:	0004                	.insn	2, 0x0004
    129a:	0301                	.insn	2, 0x0301
    129c:	0900                	.insn	2, 0x0900
    129e:	0000                	.insn	2, 0x
    12a0:	0301                	.insn	2, 0x0301
    12a2:	0900                	.insn	2, 0x0900
    12a4:	000c                	.insn	2, 0x000c
    12a6:	0301                	.insn	2, 0x0301
    12a8:	0900                	.insn	2, 0x0900
    12aa:	000c                	.insn	2, 0x000c
    12ac:	0301                	.insn	2, 0x0301
    12ae:	0900                	.insn	2, 0x0900
    12b0:	0018                	.insn	2, 0x0018
    12b2:	0001                	.insn	2, 0x0001
    12b4:	0402                	.insn	2, 0x0402
    12b6:	0301                	.insn	2, 0x0301
    12b8:	0900                	.insn	2, 0x0900
    12ba:	0008                	.insn	2, 0x0008
    12bc:	0301                	.insn	2, 0x0301
    12be:	0900                	.insn	2, 0x0900
    12c0:	0008                	.insn	2, 0x0008
    12c2:	0001                	.insn	2, 0x0001
    12c4:	0402                	.insn	2, 0x0402
    12c6:	0601                	.insn	2, 0x0601
    12c8:	00090003          	lb	zero,0(s2)
    12cc:	0100                	.insn	2, 0x0100
    12ce:	0200                	.insn	2, 0x0200
    12d0:	0304                	.insn	2, 0x0304
    12d2:	0306                	.insn	2, 0x0306
    12d4:	0900                	.insn	2, 0x0900
    12d6:	0004                	.insn	2, 0x0004
    12d8:	0001                	.insn	2, 0x0001
    12da:	0402                	.insn	2, 0x0402
    12dc:	0305                	.insn	2, 0x0305
    12de:	0900                	.insn	2, 0x0900
    12e0:	0004                	.insn	2, 0x0004
    12e2:	0001                	.insn	2, 0x0001
    12e4:	0402                	.insn	2, 0x0402
    12e6:	09000307          	.insn	4, 0x09000307
    12ea:	0008                	.insn	2, 0x0008
    12ec:	0301                	.insn	2, 0x0301
    12ee:	0900                	.insn	2, 0x0900
    12f0:	0004                	.insn	2, 0x0004
    12f2:	0301                	.insn	2, 0x0301
    12f4:	0900                	.insn	2, 0x0900
    12f6:	0000                	.insn	2, 0x
    12f8:	0001                	.insn	2, 0x0001
    12fa:	0402                	.insn	2, 0x0402
    12fc:	00030607          	.insn	4, 0x00030607
    1300:	0009                	.insn	2, 0x0009
    1302:	0100                	.insn	2, 0x0100
    1304:	0306                	.insn	2, 0x0306
    1306:	0900                	.insn	2, 0x0900
    1308:	0014                	.insn	2, 0x0014
    130a:	0001                	.insn	2, 0x0001
    130c:	0402                	.insn	2, 0x0402
    130e:	00030607          	.insn	4, 0x00030607
    1312:	0009                	.insn	2, 0x0009
    1314:	0100                	.insn	2, 0x0100
    1316:	0306                	.insn	2, 0x0306
    1318:	0900                	.insn	2, 0x0900
    131a:	0010                	.insn	2, 0x0010
    131c:	0001                	.insn	2, 0x0001
    131e:	0402                	.insn	2, 0x0402
    1320:	00030607          	.insn	4, 0x00030607
    1324:	0009                	.insn	2, 0x0009
    1326:	0100                	.insn	2, 0x0100
    1328:	0306                	.insn	2, 0x0306
    132a:	0900                	.insn	2, 0x0900
    132c:	0018                	.insn	2, 0x0018
    132e:	0001                	.insn	2, 0x0001
    1330:	0402                	.insn	2, 0x0402
    1332:	00030607          	.insn	4, 0x00030607
    1336:	0009                	.insn	2, 0x0009
    1338:	0100                	.insn	2, 0x0100
    133a:	0200                	.insn	2, 0x0200
    133c:	0804                	.insn	2, 0x0804
    133e:	0306                	.insn	2, 0x0306
    1340:	0900                	.insn	2, 0x0900
    1342:	0008                	.insn	2, 0x0008
    1344:	0301                	.insn	2, 0x0301
    1346:	0900                	.insn	2, 0x0900
    1348:	0008                	.insn	2, 0x0008
    134a:	0001                	.insn	2, 0x0001
    134c:	0402                	.insn	2, 0x0402
    134e:	0608                	.insn	2, 0x0608
    1350:	00090003          	lb	zero,0(s2)
    1354:	0100                	.insn	2, 0x0100
    1356:	0200                	.insn	2, 0x0200
    1358:	0a04                	.insn	2, 0x0a04
    135a:	0306                	.insn	2, 0x0306
    135c:	0900                	.insn	2, 0x0900
    135e:	0004                	.insn	2, 0x0004
    1360:	0001                	.insn	2, 0x0001
    1362:	0402                	.insn	2, 0x0402
    1364:	030c                	.insn	2, 0x030c
    1366:	0900                	.insn	2, 0x0900
    1368:	0004                	.insn	2, 0x0004
    136a:	0001                	.insn	2, 0x0001
    136c:	0402                	.insn	2, 0x0402
    136e:	030e                	.insn	2, 0x030e
    1370:	0900                	.insn	2, 0x0900
    1372:	0008                	.insn	2, 0x0008
    1374:	0601                	.insn	2, 0x0601
    1376:	08090103          	lb	sp,128(s2)
    137a:	0100                	.insn	2, 0x0100
    137c:	0200                	.insn	2, 0x0200
    137e:	0e04                	.insn	2, 0x0e04
    1380:	10097f03          	.insn	4, 0x10097f03
    1384:	0100                	.insn	2, 0x0100
    1386:	0306                	.insn	2, 0x0306
    1388:	0900                	.insn	2, 0x0900
    138a:	0004                	.insn	2, 0x0004
    138c:	0301                	.insn	2, 0x0301
    138e:	0900                	.insn	2, 0x0900
    1390:	0000                	.insn	2, 0x
    1392:	0301                	.insn	2, 0x0301
    1394:	0900                	.insn	2, 0x0900
    1396:	0000                	.insn	2, 0x
    1398:	0301                	.insn	2, 0x0301
    139a:	0901                	.insn	2, 0x0901
    139c:	0000                	.insn	2, 0x
    139e:	0301                	.insn	2, 0x0301
    13a0:	0900                	.insn	2, 0x0900
    13a2:	0000                	.insn	2, 0x
    13a4:	0301                	.insn	2, 0x0301
    13a6:	0900                	.insn	2, 0x0900
    13a8:	0000                	.insn	2, 0x
    13aa:	0301                	.insn	2, 0x0301
    13ac:	0900                	.insn	2, 0x0900
    13ae:	0000                	.insn	2, 0x
    13b0:	0301                	.insn	2, 0x0301
    13b2:	0900                	.insn	2, 0x0900
    13b4:	0000                	.insn	2, 0x
    13b6:	0301                	.insn	2, 0x0301
    13b8:	0900                	.insn	2, 0x0900
    13ba:	0004                	.insn	2, 0x0004
    13bc:	0301                	.insn	2, 0x0301
    13be:	0900                	.insn	2, 0x0900
    13c0:	0000                	.insn	2, 0x
    13c2:	0301                	.insn	2, 0x0301
    13c4:	0900                	.insn	2, 0x0900
    13c6:	0004                	.insn	2, 0x0004
    13c8:	0301                	.insn	2, 0x0301
    13ca:	0900                	.insn	2, 0x0900
    13cc:	0000                	.insn	2, 0x
    13ce:	0301                	.insn	2, 0x0301
    13d0:	0900                	.insn	2, 0x0900
    13d2:	0004                	.insn	2, 0x0004
    13d4:	0301                	.insn	2, 0x0301
    13d6:	0900                	.insn	2, 0x0900
    13d8:	0004                	.insn	2, 0x0004
    13da:	0301                	.insn	2, 0x0301
    13dc:	0900                	.insn	2, 0x0900
    13de:	0004                	.insn	2, 0x0004
    13e0:	0301                	.insn	2, 0x0301
    13e2:	0900                	.insn	2, 0x0900
    13e4:	0004                	.insn	2, 0x0004
    13e6:	0301                	.insn	2, 0x0301
    13e8:	0900                	.insn	2, 0x0900
    13ea:	0000                	.insn	2, 0x
    13ec:	0301                	.insn	2, 0x0301
    13ee:	0900                	.insn	2, 0x0900
    13f0:	0008                	.insn	2, 0x0008
    13f2:	0301                	.insn	2, 0x0301
    13f4:	0900                	.insn	2, 0x0900
    13f6:	0000                	.insn	2, 0x
    13f8:	0301                	.insn	2, 0x0301
    13fa:	0900                	.insn	2, 0x0900
    13fc:	0004                	.insn	2, 0x0004
    13fe:	0301                	.insn	2, 0x0301
    1400:	0900                	.insn	2, 0x0900
    1402:	0004                	.insn	2, 0x0004
    1404:	0301                	.insn	2, 0x0301
    1406:	0900                	.insn	2, 0x0900
    1408:	0000                	.insn	2, 0x
    140a:	0301                	.insn	2, 0x0301
    140c:	0900                	.insn	2, 0x0900
    140e:	0008                	.insn	2, 0x0008
    1410:	0301                	.insn	2, 0x0301
    1412:	0900                	.insn	2, 0x0900
    1414:	0000                	.insn	2, 0x
    1416:	0301                	.insn	2, 0x0301
    1418:	0900                	.insn	2, 0x0900
    141a:	0004                	.insn	2, 0x0004
    141c:	0301                	.insn	2, 0x0301
    141e:	0900                	.insn	2, 0x0900
    1420:	0004                	.insn	2, 0x0004
    1422:	0301                	.insn	2, 0x0301
    1424:	0900                	.insn	2, 0x0900
    1426:	0000                	.insn	2, 0x
    1428:	0301                	.insn	2, 0x0301
    142a:	0900                	.insn	2, 0x0900
    142c:	0008                	.insn	2, 0x0008
    142e:	0301                	.insn	2, 0x0301
    1430:	0900                	.insn	2, 0x0900
    1432:	0000                	.insn	2, 0x
    1434:	0301                	.insn	2, 0x0301
    1436:	0900                	.insn	2, 0x0900
    1438:	0004                	.insn	2, 0x0004
    143a:	0301                	.insn	2, 0x0301
    143c:	0900                	.insn	2, 0x0900
    143e:	0000                	.insn	2, 0x
    1440:	0301                	.insn	2, 0x0301
    1442:	0900                	.insn	2, 0x0900
    1444:	0000                	.insn	2, 0x
    1446:	0301                	.insn	2, 0x0301
    1448:	0900                	.insn	2, 0x0900
    144a:	000c                	.insn	2, 0x000c
    144c:	0001                	.insn	2, 0x0001
    144e:	0402                	.insn	2, 0x0402
    1450:	0301                	.insn	2, 0x0301
    1452:	0900                	.insn	2, 0x0900
    1454:	0004                	.insn	2, 0x0004
    1456:	0001                	.insn	2, 0x0001
    1458:	0402                	.insn	2, 0x0402
    145a:	09000303          	lb	t1,144(zero) # 90 <MEM_START-0xf70>
    145e:	0008                	.insn	2, 0x0008
    1460:	0301                	.insn	2, 0x0301
    1462:	0900                	.insn	2, 0x0900
    1464:	0014                	.insn	2, 0x0014
    1466:	0001                	.insn	2, 0x0001
    1468:	0402                	.insn	2, 0x0402
    146a:	00030603          	lb	a2,0(t1)
    146e:	0009                	.insn	2, 0x0009
    1470:	0100                	.insn	2, 0x0100
    1472:	0306                	.insn	2, 0x0306
    1474:	0900                	.insn	2, 0x0900
    1476:	0004                	.insn	2, 0x0004
    1478:	0301                	.insn	2, 0x0301
    147a:	0902                	.insn	2, 0x0902
    147c:	0000                	.insn	2, 0x
    147e:	0501                	.insn	2, 0x0501
    1480:	0003060b          	.insn	4, 0x0003060b
    1484:	0009                	.insn	2, 0x0009
    1486:	0100                	.insn	2, 0x0100
    1488:	1405                	.insn	2, 0x1405
    148a:	0200                	.insn	2, 0x0200
    148c:	0104                	.insn	2, 0x0104
    148e:	04090003          	lb	zero,64(s2)
    1492:	0100                	.insn	2, 0x0100
    1494:	2105                	.insn	2, 0x2105
    1496:	0200                	.insn	2, 0x0200
    1498:	0204                	.insn	2, 0x0204
    149a:	04090003          	lb	zero,64(s2)
    149e:	0100                	.insn	2, 0x0100
    14a0:	0505                	.insn	2, 0x0505
    14a2:	0306                	.insn	2, 0x0306
    14a4:	0902                	.insn	2, 0x0902
    14a6:	0004                	.insn	2, 0x0004
    14a8:	0301                	.insn	2, 0x0301
    14aa:	0901                	.insn	2, 0x0901
    14ac:	0000                	.insn	2, 0x
    14ae:	0301                	.insn	2, 0x0301
    14b0:	0900                	.insn	2, 0x0900
    14b2:	0000                	.insn	2, 0x
    14b4:	0301                	.insn	2, 0x0301
    14b6:	0900                	.insn	2, 0x0900
    14b8:	0000                	.insn	2, 0x
    14ba:	0301                	.insn	2, 0x0301
    14bc:	0900                	.insn	2, 0x0900
    14be:	0010                	.insn	2, 0x0010
    14c0:	0301                	.insn	2, 0x0301
    14c2:	0900                	.insn	2, 0x0900
    14c4:	0004                	.insn	2, 0x0004
    14c6:	0001                	.insn	2, 0x0001
    14c8:	0402                	.insn	2, 0x0402
    14ca:	0301                	.insn	2, 0x0301
    14cc:	0900                	.insn	2, 0x0900
    14ce:	0000                	.insn	2, 0x
    14d0:	0501                	.insn	2, 0x0501
    14d2:	0308                	.insn	2, 0x0308
    14d4:	00000903          	lb	s2,0(zero) # 0 <MEM_START-0x1000>
    14d8:	0301                	.insn	2, 0x0301
    14da:	00000903          	lb	s2,0(zero) # 0 <MEM_START-0x1000>
    14de:	0501                	.insn	2, 0x0501
    14e0:	0305                	.insn	2, 0x0305
    14e2:	0902                	.insn	2, 0x0902
    14e4:	0000                	.insn	2, 0x
    14e6:	0301                	.insn	2, 0x0301
    14e8:	0900                	.insn	2, 0x0900
    14ea:	0000                	.insn	2, 0x
    14ec:	0301                	.insn	2, 0x0301
    14ee:	0900                	.insn	2, 0x0900
    14f0:	0000                	.insn	2, 0x
    14f2:	0301                	.insn	2, 0x0301
    14f4:	0900                	.insn	2, 0x0900
    14f6:	0004                	.insn	2, 0x0004
    14f8:	0301                	.insn	2, 0x0301
    14fa:	0900                	.insn	2, 0x0900
    14fc:	000c                	.insn	2, 0x000c
    14fe:	0301                	.insn	2, 0x0301
    1500:	0900                	.insn	2, 0x0900
    1502:	0000                	.insn	2, 0x
    1504:	0301                	.insn	2, 0x0301
    1506:	0901                	.insn	2, 0x0901
    1508:	0000                	.insn	2, 0x
    150a:	0301                	.insn	2, 0x0301
    150c:	0901                	.insn	2, 0x0901
    150e:	0000                	.insn	2, 0x
    1510:	0301                	.insn	2, 0x0301
    1512:	0901                	.insn	2, 0x0901
    1514:	0000                	.insn	2, 0x
    1516:	0501                	.insn	2, 0x0501
    1518:	0614                	.insn	2, 0x0614
    151a:	00097e03          	.insn	4, 0x00097e03
    151e:	0100                	.insn	2, 0x0100
    1520:	2005                	.insn	2, 0x2005
    1522:	04090003          	lb	zero,64(s2)
    1526:	0100                	.insn	2, 0x0100
    1528:	0d05                	.insn	2, 0x0d05
    152a:	04090203          	lb	tp,64(s2)
    152e:	0100                	.insn	2, 0x0100
    1530:	0c09                	.insn	2, 0x0c09
    1532:	0000                	.insn	2, 0x
    1534:	0101                	.insn	2, 0x0101
    1536:	0076                	.insn	2, 0x0076
    1538:	0000                	.insn	2, 0x
    153a:	0005                	.insn	2, 0x0005
    153c:	0004                	.insn	2, 0x0004
    153e:	002e                	.insn	2, 0x002e
    1540:	0000                	.insn	2, 0x
    1542:	0101                	.insn	2, 0x0101
    1544:	fb01                	.insn	2, 0xfb01
    1546:	0d0e                	.insn	2, 0x0d0e
    1548:	0100                	.insn	2, 0x0100
    154a:	0101                	.insn	2, 0x0101
    154c:	0001                	.insn	2, 0x0001
    154e:	0000                	.insn	2, 0x
    1550:	0001                	.insn	2, 0x0001
    1552:	0100                	.insn	2, 0x0100
    1554:	0101                	.insn	2, 0x0101
    1556:	021f 0021 0000      	.insn	6, 0x0021021f
    155c:	00a9                	.insn	2, 0x00a9
    155e:	0000                	.insn	2, 0x
    1560:	0102                	.insn	2, 0x0102
    1562:	021f 020f 00cd      	.insn	6, 0x00cd020f021f
    1568:	0000                	.insn	2, 0x
    156a:	cd01                	.insn	2, 0xcd01
    156c:	0000                	.insn	2, 0x
    156e:	0100                	.insn	2, 0x0100
    1570:	0500                	.insn	2, 0x0500
    1572:	3002                	.insn	2, 0x3002
    1574:	0300002f          	.insn	4, 0x0300002f
    1578:	0124                	.insn	2, 0x0124
    157a:	04090103          	lb	sp,64(s2)
    157e:	0100                	.insn	2, 0x0100
    1580:	04090203          	lb	tp,64(s2)
    1584:	0100                	.insn	2, 0x0100
    1586:	04090103          	lb	sp,64(s2)
    158a:	0100                	.insn	2, 0x0100
    158c:	04090103          	lb	sp,64(s2)
    1590:	0100                	.insn	2, 0x0100
    1592:	04090203          	lb	tp,64(s2)
    1596:	0100                	.insn	2, 0x0100
    1598:	04090103          	lb	sp,64(s2)
    159c:	0100                	.insn	2, 0x0100
    159e:	04090103          	lb	sp,64(s2)
    15a2:	0100                	.insn	2, 0x0100
    15a4:	04090103          	lb	sp,64(s2)
    15a8:	0100                	.insn	2, 0x0100
    15aa:	0409                	.insn	2, 0x0409
    15ac:	0000                	.insn	2, 0x
    15ae:	0101                	.insn	2, 0x0101
    15b0:	0000014f          	.insn	4, 0x014f
    15b4:	0005                	.insn	2, 0x0005
    15b6:	0004                	.insn	2, 0x0004
    15b8:	002e                	.insn	2, 0x002e
    15ba:	0000                	.insn	2, 0x
    15bc:	0101                	.insn	2, 0x0101
    15be:	fb01                	.insn	2, 0xfb01
    15c0:	0d0e                	.insn	2, 0x0d0e
    15c2:	0100                	.insn	2, 0x0100
    15c4:	0101                	.insn	2, 0x0101
    15c6:	0001                	.insn	2, 0x0001
    15c8:	0000                	.insn	2, 0x
    15ca:	0001                	.insn	2, 0x0001
    15cc:	0100                	.insn	2, 0x0100
    15ce:	0101                	.insn	2, 0x0101
    15d0:	021f 0021 0000      	.insn	6, 0x0021021f
    15d6:	00a9                	.insn	2, 0x00a9
    15d8:	0000                	.insn	2, 0x
    15da:	0102                	.insn	2, 0x0102
    15dc:	021f 020f 00d6      	.insn	6, 0x00d6020f021f
    15e2:	0000                	.insn	2, 0x
    15e4:	d601                	.insn	2, 0xd601
    15e6:	0000                	.insn	2, 0x
    15e8:	0100                	.insn	2, 0x0100
    15ea:	0500                	.insn	2, 0x0500
    15ec:	5402                	.insn	2, 0x5402
    15ee:	0300002f          	.insn	4, 0x0300002f
    15f2:	00c4                	.insn	2, 0x00c4
    15f4:	0301                	.insn	2, 0x0301
    15f6:	0901                	.insn	2, 0x0901
    15f8:	0004                	.insn	2, 0x0004
    15fa:	0301                	.insn	2, 0x0301
    15fc:	0904                	.insn	2, 0x0904
    15fe:	0004                	.insn	2, 0x0004
    1600:	0301                	.insn	2, 0x0301
    1602:	0901                	.insn	2, 0x0901
    1604:	0004                	.insn	2, 0x0004
    1606:	0301                	.insn	2, 0x0301
    1608:	0901                	.insn	2, 0x0901
    160a:	0004                	.insn	2, 0x0004
    160c:	0301                	.insn	2, 0x0301
    160e:	0901                	.insn	2, 0x0901
    1610:	0004                	.insn	2, 0x0004
    1612:	0301                	.insn	2, 0x0301
    1614:	0901                	.insn	2, 0x0901
    1616:	0004                	.insn	2, 0x0004
    1618:	0301                	.insn	2, 0x0301
    161a:	0901                	.insn	2, 0x0901
    161c:	0004                	.insn	2, 0x0004
    161e:	0301                	.insn	2, 0x0301
    1620:	0902                	.insn	2, 0x0902
    1622:	0004                	.insn	2, 0x0004
    1624:	0301                	.insn	2, 0x0301
    1626:	0901                	.insn	2, 0x0901
    1628:	0004                	.insn	2, 0x0004
    162a:	0301                	.insn	2, 0x0301
    162c:	0901                	.insn	2, 0x0901
    162e:	0004                	.insn	2, 0x0004
    1630:	0301                	.insn	2, 0x0301
    1632:	0901                	.insn	2, 0x0901
    1634:	0004                	.insn	2, 0x0004
    1636:	0301                	.insn	2, 0x0301
    1638:	0902                	.insn	2, 0x0902
    163a:	0004                	.insn	2, 0x0004
    163c:	0301                	.insn	2, 0x0301
    163e:	0902                	.insn	2, 0x0902
    1640:	0004                	.insn	2, 0x0004
    1642:	0301                	.insn	2, 0x0301
    1644:	0901                	.insn	2, 0x0901
    1646:	0004                	.insn	2, 0x0004
    1648:	0301                	.insn	2, 0x0301
    164a:	0901                	.insn	2, 0x0901
    164c:	0004                	.insn	2, 0x0004
    164e:	0301                	.insn	2, 0x0301
    1650:	0902                	.insn	2, 0x0902
    1652:	0004                	.insn	2, 0x0004
    1654:	0301                	.insn	2, 0x0301
    1656:	0901                	.insn	2, 0x0901
    1658:	0004                	.insn	2, 0x0004
    165a:	0301                	.insn	2, 0x0301
    165c:	0901                	.insn	2, 0x0901
    165e:	0004                	.insn	2, 0x0004
    1660:	0301                	.insn	2, 0x0301
    1662:	0902                	.insn	2, 0x0902
    1664:	0004                	.insn	2, 0x0004
    1666:	0301                	.insn	2, 0x0301
    1668:	0906                	.insn	2, 0x0906
    166a:	0004                	.insn	2, 0x0004
    166c:	0301                	.insn	2, 0x0301
    166e:	0901                	.insn	2, 0x0901
    1670:	0004                	.insn	2, 0x0004
    1672:	0301                	.insn	2, 0x0301
    1674:	0901                	.insn	2, 0x0901
    1676:	0004                	.insn	2, 0x0004
    1678:	0301                	.insn	2, 0x0301
    167a:	0901                	.insn	2, 0x0901
    167c:	0004                	.insn	2, 0x0004
    167e:	0301                	.insn	2, 0x0301
    1680:	0905                	.insn	2, 0x0905
    1682:	0004                	.insn	2, 0x0004
    1684:	0301                	.insn	2, 0x0301
    1686:	0902                	.insn	2, 0x0902
    1688:	0004                	.insn	2, 0x0004
    168a:	0301                	.insn	2, 0x0301
    168c:	0902                	.insn	2, 0x0902
    168e:	0004                	.insn	2, 0x0004
    1690:	0301                	.insn	2, 0x0301
    1692:	0901                	.insn	2, 0x0901
    1694:	0004                	.insn	2, 0x0004
    1696:	0301                	.insn	2, 0x0301
    1698:	0902                	.insn	2, 0x0902
    169a:	0004                	.insn	2, 0x0004
    169c:	0301                	.insn	2, 0x0301
    169e:	0902                	.insn	2, 0x0902
    16a0:	0004                	.insn	2, 0x0004
    16a2:	0301                	.insn	2, 0x0301
    16a4:	0901                	.insn	2, 0x0901
    16a6:	0004                	.insn	2, 0x0004
    16a8:	0301                	.insn	2, 0x0301
    16aa:	0901                	.insn	2, 0x0901
    16ac:	0004                	.insn	2, 0x0004
    16ae:	0301                	.insn	2, 0x0301
    16b0:	0901                	.insn	2, 0x0901
    16b2:	0004                	.insn	2, 0x0004
    16b4:	0301                	.insn	2, 0x0301
    16b6:	0904                	.insn	2, 0x0904
    16b8:	0004                	.insn	2, 0x0004
    16ba:	0301                	.insn	2, 0x0301
    16bc:	0901                	.insn	2, 0x0901
    16be:	0004                	.insn	2, 0x0004
    16c0:	0301                	.insn	2, 0x0301
    16c2:	0901                	.insn	2, 0x0901
    16c4:	0004                	.insn	2, 0x0004
    16c6:	0301                	.insn	2, 0x0301
    16c8:	0902                	.insn	2, 0x0902
    16ca:	0004                	.insn	2, 0x0004
    16cc:	0301                	.insn	2, 0x0301
    16ce:	0901                	.insn	2, 0x0901
    16d0:	0004                	.insn	2, 0x0004
    16d2:	0301                	.insn	2, 0x0301
    16d4:	0901                	.insn	2, 0x0901
    16d6:	0004                	.insn	2, 0x0004
    16d8:	0301                	.insn	2, 0x0301
    16da:	0902                	.insn	2, 0x0902
    16dc:	0004                	.insn	2, 0x0004
    16de:	0301                	.insn	2, 0x0301
    16e0:	0901                	.insn	2, 0x0901
    16e2:	0004                	.insn	2, 0x0004
    16e4:	0301                	.insn	2, 0x0301
    16e6:	0902                	.insn	2, 0x0902
    16e8:	0004                	.insn	2, 0x0004
    16ea:	0301                	.insn	2, 0x0301
    16ec:	0901                	.insn	2, 0x0901
    16ee:	0004                	.insn	2, 0x0004
    16f0:	0301                	.insn	2, 0x0301
    16f2:	0901                	.insn	2, 0x0901
    16f4:	0004                	.insn	2, 0x0004
    16f6:	0301                	.insn	2, 0x0301
    16f8:	0901                	.insn	2, 0x0901
    16fa:	0004                	.insn	2, 0x0004
    16fc:	0901                	.insn	2, 0x0901
    16fe:	0004                	.insn	2, 0x0004
    1700:	0100                	.insn	2, 0x0100
    1702:	3b01                	.insn	2, 0x3b01
    1704:	0000                	.insn	2, 0x
    1706:	0500                	.insn	2, 0x0500
    1708:	0400                	.insn	2, 0x0400
    170a:	3300                	.insn	2, 0x3300
    170c:	0000                	.insn	2, 0x
    170e:	0100                	.insn	2, 0x0100
    1710:	0101                	.insn	2, 0x0101
    1712:	000d0efb          	.insn	4, 0x000d0efb
    1716:	0101                	.insn	2, 0x0101
    1718:	0101                	.insn	2, 0x0101
    171a:	0000                	.insn	2, 0x
    171c:	0100                	.insn	2, 0x0100
    171e:	0000                	.insn	2, 0x
    1720:	0101                	.insn	2, 0x0101
    1722:	1f01                	.insn	2, 0x1f01
    1724:	2102                	.insn	2, 0x2102
    1726:	0000                	.insn	2, 0x
    1728:	8800                	.insn	2, 0x8800
    172a:	0000                	.insn	2, 0x
    172c:	0200                	.insn	2, 0x0200
    172e:	1f01                	.insn	2, 0x1f01
    1730:	0f02                	.insn	2, 0x0f02
    1732:	00001703          	lh	a4,0(zero) # 0 <MEM_START-0x1000>
    1736:	0100                	.insn	2, 0x0100
    1738:	009f 0000 1701      	.insn	6, 0x17010000009f
    173e:	0000                	.insn	2, 0x
    1740:	0100                	.insn	2, 0x0100

Disassembly of section .debug_str:

00000000 <.debug_str>:
   0:	5744                	.insn	2, 0x5744
   2:	75727473          	csrrci	s0,0x757,4
   6:	63007463          	bgeu	zero,a6,62e <MEM_START-0x9d2>
   a:	6c706d6f          	jal	s10,6ed0 <__modsi3+0x3ef8>
   e:	7865                	.insn	2, 0x7865
  10:	6620                	.insn	2, 0x6620
  12:	6f6c                	.insn	2, 0x6f6c
  14:	7461                	.insn	2, 0x7461
  16:	5f00                	.insn	2, 0x5f00
  18:	6d5f 6c75 6973      	.insn	6, 0x69736c756d5f
  1e:	68730033          	.insn	4, 0x68730033
  22:	2074726f          	jal	tp,47a28 <stack_bot+0x23a28>
  26:	6e69                	.insn	2, 0x6e69
  28:	0074                	.insn	2, 0x0074
  2a:	5744                	.insn	2, 0x5744
  2c:	6e75                	.insn	2, 0x6e75
  2e:	6f69                	.insn	2, 0x6f69
  30:	006e                	.insn	2, 0x006e
  32:	5f5f 3064 5f00      	.insn	6, 0x5f0030645f5f
  38:	645f 0031 5f5f      	.insn	6, 0x5f5f0031645f
  3e:	6876                	.insn	2, 0x6876
  40:	5f00                	.insn	2, 0x5f00
  42:	6f5f 3070 5f00      	.insn	6, 0x5f0030706f5f
  48:	6f5f 3170 5f00      	.insn	6, 0x5f0031706f5f
  4e:	645f 7669 6964      	.insn	6, 0x69647669645f
  54:	6f6c0033          	.insn	4, 0x6f6c0033
  58:	676e                	.insn	2, 0x676e
  5a:	6c20                	.insn	2, 0x6c20
  5c:	20676e6f          	jal	t3,76262 <stack_bot+0x52262>
  60:	6e69                	.insn	2, 0x6e69
  62:	0074                	.insn	2, 0x0074
  64:	6f6c                	.insn	2, 0x6f6c
  66:	676e                	.insn	2, 0x676e
  68:	6c20                	.insn	2, 0x6c20
  6a:	20676e6f          	jal	t3,76270 <stack_bot+0x52270>
  6e:	6e75                	.insn	2, 0x6e75
  70:	6e676973          	csrrsi	s2,0x6e6,14
  74:	6465                	.insn	2, 0x6465
  76:	6920                	.insn	2, 0x6920
  78:	746e                	.insn	2, 0x746e
  7a:	6800                	.insn	2, 0x6800
  7c:	6769                	.insn	2, 0x6769
  7e:	0068                	.insn	2, 0x0068
  80:	5f5f 6c63 5f7a      	.insn	6, 0x5f7a6c635f5f
  86:	6174                	.insn	2, 0x6174
  88:	0062                	.insn	2, 0x0062
  8a:	706d6f63          	bltu	s10,t1,7a8 <MEM_START-0x858>
  8e:	656c                	.insn	2, 0x656c
  90:	2078                	.insn	2, 0x2078
  92:	465f 6f6c 7461      	.insn	6, 0x74616f6c465f
  98:	3631                	.insn	2, 0x3631
  9a:	4700                	.insn	2, 0x4700
  9c:	554e                	.insn	2, 0x554e
  9e:	4320                	.insn	2, 0x4320
  a0:	3731                	.insn	2, 0x3731
  a2:	3120                	.insn	2, 0x3120
  a4:	2e34                	.insn	2, 0x2e34
  a6:	2e32                	.insn	2, 0x2e32
  a8:	2030                	.insn	2, 0x2030
  aa:	6d2d                	.insn	2, 0x6d2d
  ac:	646f6d63          	bltu	t5,t1,706 <MEM_START-0x8fa>
  b0:	6c65                	.insn	2, 0x6c65
  b2:	6d3d                	.insn	2, 0x6d3d
  b4:	6465                	.insn	2, 0x6465
  b6:	6f6c                	.insn	2, 0x6f6c
  b8:	6d2d2077          	.insn	4, 0x6d2d2077
  bc:	646f6d63          	bltu	t5,t1,716 <MEM_START-0x8ea>
  c0:	6c65                	.insn	2, 0x6c65
  c2:	6d3d                	.insn	2, 0x6d3d
  c4:	6465                	.insn	2, 0x6465
  c6:	6f6c                	.insn	2, 0x6f6c
  c8:	6d2d2077          	.insn	4, 0x6d2d2077
  cc:	7574                	.insn	2, 0x7574
  ce:	656e                	.insn	2, 0x656e
  d0:	723d                	.insn	2, 0x723d
  d2:	656b636f          	jal	t1,b6728 <stack_bot+0x92728>
  d6:	2074                	.insn	2, 0x2074
  d8:	6d2d                	.insn	2, 0x6d2d
  da:	6261                	.insn	2, 0x6261
  dc:	3d69                	.insn	2, 0x3d69
  de:	6c69                	.insn	2, 0x6c69
  e0:	3370                	.insn	2, 0x3370
  e2:	2032                	.insn	2, 0x2032
  e4:	6d2d                	.insn	2, 0x6d2d
  e6:	7369                	.insn	2, 0x7369
  e8:	2d61                	.insn	2, 0x2d61
  ea:	63657073          	csrci	0x636,10
  ee:	323d                	.insn	2, 0x323d
  f0:	3130                	.insn	2, 0x3130
  f2:	3139                	.insn	2, 0x3139
  f4:	3132                	.insn	2, 0x3132
  f6:	6d2d2033          	.insn	4, 0x6d2d2033
  fa:	7261                	.insn	2, 0x7261
  fc:	723d6863          	bltu	s10,gp,82c <MEM_START-0x7d4>
 100:	3376                	.insn	2, 0x3376
 102:	6932                	.insn	2, 0x6932
 104:	5f61                	.insn	2, 0x5f61
 106:	697a                	.insn	2, 0x697a
 108:	20727363          	bgeu	tp,t2,30e <MEM_START-0xcf2>
 10c:	672d                	.insn	2, 0x672d
 10e:	2d20                	.insn	2, 0x2d20
 110:	2d20734f          	.insn	4, 0x2d20734f
 114:	2d20324f          	.insn	4, 0x2d20324f
 118:	2d20734f          	.insn	4, 0x2d20734f
 11c:	6266                	.insn	2, 0x6266
 11e:	6975                	.insn	2, 0x6975
 120:	646c                	.insn	2, 0x646c
 122:	6e69                	.insn	2, 0x6e69
 124:	696c2d67          	.insn	4, 0x696c2d67
 128:	6762                	.insn	2, 0x6762
 12a:	2d206363          	bltu	zero,s2,3f0 <MEM_START-0xc10>
 12e:	6e66                	.insn	2, 0x6e66
 130:	74732d6f          	jal	s10,33076 <stack_bot+0xf076>
 134:	6361                	.insn	2, 0x6361
 136:	72702d6b          	.insn	4, 0x72702d6b
 13a:	6365746f          	jal	s0,57770 <stack_bot+0x33770>
 13e:	6f74                	.insn	2, 0x6f74
 140:	2072                	.insn	2, 0x2072
 142:	662d                	.insn	2, 0x662d
 144:	7361                	.insn	2, 0x7361
 146:	6e79                	.insn	2, 0x6e79
 148:	6f726863          	bltu	tp,s7,838 <MEM_START-0x7c8>
 14c:	6f6e                	.insn	2, 0x6f6e
 14e:	7375                	.insn	2, 0x7375
 150:	752d                	.insn	2, 0x752d
 152:	776e                	.insn	2, 0x776e
 154:	6e69                	.insn	2, 0x6e69
 156:	2d64                	.insn	2, 0x2d64
 158:	6174                	.insn	2, 0x6174
 15a:	6c62                	.insn	2, 0x6c62
 15c:	7365                	.insn	2, 0x7365
 15e:	2d20                	.insn	2, 0x2d20
 160:	7666                	.insn	2, 0x7666
 162:	7369                	.insn	2, 0x7369
 164:	6269                	.insn	2, 0x6269
 166:	6c69                	.insn	2, 0x6c69
 168:	7469                	.insn	2, 0x7469
 16a:	3d79                	.insn	2, 0x3d79
 16c:	6968                	.insn	2, 0x6968
 16e:	6464                	.insn	2, 0x6464
 170:	6e65                	.insn	2, 0x6e65
 172:	7500                	.insn	2, 0x7500
 174:	736e                	.insn	2, 0x736e
 176:	6769                	.insn	2, 0x6769
 178:	656e                	.insn	2, 0x656e
 17a:	2064                	.insn	2, 0x2064
 17c:	72616863          	bltu	sp,t1,8ac <MEM_START-0x754>
 180:	5f00                	.insn	2, 0x5f00
 182:	785f 0030 5f5f      	.insn	6, 0x5f5f0030785f
 188:	3178                	.insn	2, 0x3178
 18a:	5f00                	.insn	2, 0x5f00
 18c:	785f 0032 5f5f      	.insn	6, 0x5f5f0032785f
 192:	3378                	.insn	2, 0x3378
 194:	5500                	.insn	2, 0x5500
 196:	4951                	.insn	2, 0x4951
 198:	7974                	.insn	2, 0x7974
 19a:	6570                	.insn	2, 0x6570
 19c:	7300                	.insn	2, 0x7300
 19e:	6f68                	.insn	2, 0x6f68
 1a0:	7472                	.insn	2, 0x7472
 1a2:	7520                	.insn	2, 0x7520
 1a4:	736e                	.insn	2, 0x736e
 1a6:	6769                	.insn	2, 0x6769
 1a8:	656e                	.insn	2, 0x656e
 1aa:	2064                	.insn	2, 0x2064
 1ac:	6e69                	.insn	2, 0x6e69
 1ae:	0074                	.insn	2, 0x0074
 1b0:	4455                	.insn	2, 0x4455
 1b2:	7449                	.insn	2, 0x7449
 1b4:	7079                	.insn	2, 0x7079
 1b6:	0065                	.insn	2, 0x0065
 1b8:	5355                	.insn	2, 0x5355
 1ba:	7449                	.insn	2, 0x7449
 1bc:	7079                	.insn	2, 0x7079
 1be:	0065                	.insn	2, 0x0065
 1c0:	5f5f 3071 5f00      	.insn	6, 0x5f0030715f5f
 1c6:	715f 0031 5f5f      	.insn	6, 0x5f5f0031715f
 1cc:	6d75                	.insn	2, 0x6d75
 1ce:	6973646f          	jal	s0,37064 <stack_bot+0x13064>
 1d2:	425f0033          	.insn	4, 0x425f0033
 1d6:	006c6f6f          	jal	t5,c61dc <stack_bot+0xa21dc>
 1da:	706d6f63          	bltu	s10,t1,8f8 <MEM_START-0x708>
 1de:	656c                	.insn	2, 0x656c
 1e0:	2078                	.insn	2, 0x2078
 1e2:	6f64                	.insn	2, 0x6f64
 1e4:	6275                	.insn	2, 0x6275
 1e6:	656c                	.insn	2, 0x656c
 1e8:	5f00                	.insn	2, 0x5f00
 1ea:	765f 006c 5f5f      	.insn	6, 0x5f5f006c765f
 1f0:	6475                	.insn	2, 0x6475
 1f2:	7669                	.insn	2, 0x7669
 1f4:	6f6d                	.insn	2, 0x6f6d
 1f6:	6464                	.insn	2, 0x6464
 1f8:	3469                	.insn	2, 0x3469
 1fa:	6300                	.insn	2, 0x6300
 1fc:	6c706d6f          	jal	s10,70c2 <__modsi3+0x40ea>
 200:	7865                	.insn	2, 0x7865
 202:	6c20                	.insn	2, 0x6c20
 204:	20676e6f          	jal	t3,7640a <stack_bot+0x5240a>
 208:	6f64                	.insn	2, 0x6f64
 20a:	6275                	.insn	2, 0x6275
 20c:	656c                	.insn	2, 0x656c
 20e:	5f00                	.insn	2, 0x5f00
 210:	785f 0072 5f5f      	.insn	6, 0x5f5f0072785f
 216:	3072                	.insn	2, 0x3072
 218:	5f00                	.insn	2, 0x5f00
 21a:	725f 0031 5f5f      	.insn	6, 0x5f5f0031725f
 220:	6875                	.insn	2, 0x6875
 222:	5f00                	.insn	2, 0x5f00
 224:	755f 006c 5f5f      	.insn	6, 0x5f5f006c755f
 22a:	6f6d                	.insn	2, 0x6f6d
 22c:	6464                	.insn	2, 0x6464
 22e:	3369                	.insn	2, 0x3369
 230:	2e00                	.insn	2, 0x2e00
 232:	2f2e                	.insn	2, 0x2f2e
 234:	2e2e                	.insn	2, 0x2e2e
 236:	2f2e2e2f          	.insn	4, 0x2f2e2e2f
 23a:	2e2e                	.insn	2, 0x2e2e
 23c:	6363672f          	.insn	4, 0x6363672f
 240:	62696c2f          	.insn	4, 0x62696c2f
 244:	2f636367          	.insn	4, 0x2f636367
 248:	666e6f63          	bltu	t3,t1,8c6 <MEM_START-0x73a>
 24c:	6769                	.insn	2, 0x6769
 24e:	7369722f          	.insn	4, 0x7369722f
 252:	6d2f7663          	bgeu	t5,s2,91e <MEM_START-0x6e2>
 256:	6c75                	.insn	2, 0x6c75
 258:	6964                	.insn	2, 0x6964
 25a:	00532e33          	slt	t3,t1,t0
 25e:	6d6f682f          	.insn	4, 0x6d6f682f
 262:	2f65                	.insn	2, 0x2f65
 264:	7369                	.insn	2, 0x7369
 266:	6b696873          	csrrsi	a6,0x6b6,18
 26a:	2f69                	.insn	2, 0x2f69
 26c:	6f74                	.insn	2, 0x6f74
 26e:	735f6c6f          	jal	s8,f71a2 <stack_bot+0xd31a2>
 272:	6372                	.insn	2, 0x6372
 274:	7369722f          	.insn	4, 0x7369722f
 278:	672d7663          	bgeu	s10,s2,8e4 <MEM_START-0x71c>
 27c:	756e                	.insn	2, 0x756e
 27e:	742d                	.insn	2, 0x742d
 280:	636c6f6f          	jal	t5,c68b6 <stack_bot+0xa28b6>
 284:	6168                	.insn	2, 0x6168
 286:	6e69                	.insn	2, 0x6e69
 288:	6975622f          	.insn	4, 0x6975622f
 28c:	646c                	.insn	2, 0x646c
 28e:	692e                	.insn	2, 0x692e
 290:	2f61                	.insn	2, 0x2f61
 292:	7562                	.insn	2, 0x7562
 294:	6c69                	.insn	2, 0x6c69
 296:	2d64                	.insn	2, 0x2d64
 298:	2d636367          	.insn	4, 0x2d636367
 29c:	656e                	.insn	2, 0x656e
 29e:	62696c77          	.insn	4, 0x62696c77
 2a2:	732d                	.insn	2, 0x732d
 2a4:	6174                	.insn	2, 0x6174
 2a6:	2f326567          	.insn	4, 0x2f326567
 2aa:	6972                	.insn	2, 0x6972
 2ac:	33766373          	csrrsi	t1,mhpmevent23,12
 2b0:	2d32                	.insn	2, 0x2d32
 2b2:	6e75                	.insn	2, 0x6e75
 2b4:	776f6e6b          	.insn	4, 0x776f6e6b
 2b8:	2d6e                	.insn	2, 0x2d6e
 2ba:	6c65                	.insn	2, 0x6c65
 2bc:	2f66                	.insn	2, 0x2f66
 2be:	696c                	.insn	2, 0x696c
 2c0:	6762                	.insn	2, 0x6762
 2c2:	47006363          	bltu	zero,a6,728 <MEM_START-0x8d8>
 2c6:	554e                	.insn	2, 0x554e
 2c8:	4120                	.insn	2, 0x4120
 2ca:	2e322053          	.insn	4, 0x2e322053
 2ce:	3334                	.insn	2, 0x3334
 2d0:	312e                	.insn	2, 0x312e
 2d2:	2e00                	.insn	2, 0x2e00
 2d4:	2f2e                	.insn	2, 0x2f2e
 2d6:	2e2e                	.insn	2, 0x2e2e
 2d8:	2f2e2e2f          	.insn	4, 0x2f2e2e2f
 2dc:	2e2e                	.insn	2, 0x2e2e
 2de:	6363672f          	.insn	4, 0x6363672f
 2e2:	62696c2f          	.insn	4, 0x62696c2f
 2e6:	2f636367          	.insn	4, 0x2f636367
 2ea:	666e6f63          	bltu	t3,t1,968 <MEM_START-0x698>
 2ee:	6769                	.insn	2, 0x6769
 2f0:	7369722f          	.insn	4, 0x7369722f
 2f4:	642f7663          	bgeu	t5,sp,940 <MEM_START-0x6c0>
 2f8:	7669                	.insn	2, 0x7669
 2fa:	532e                	.insn	2, 0x532e
 2fc:	5f00                	.insn	2, 0x5f00
 2fe:	645f 7669 6973      	.insn	6, 0x69737669645f
 304:	5f5f0033          	.insn	4, 0x5f5f0033
 308:	6968                	.insn	2, 0x6968
 30a:	6464                	.insn	2, 0x6464
 30c:	6e65                	.insn	2, 0x6e65
 30e:	5f5f 755f 6964      	.insn	6, 0x6964755f5f5f
 314:	7376                	.insn	2, 0x7376
 316:	3369                	.insn	2, 0x3369
 318:	5f00                	.insn	2, 0x5f00
 31a:	6d5f 646f 6973      	.insn	6, 0x6973646f6d5f
 320:	4e470033          	.insn	4, 0x4e470033
 324:	2055                	.insn	2, 0x2055
 326:	20373143          	.insn	4, 0x20373143
 32a:	3431                	.insn	2, 0x3431
 32c:	322e                	.insn	2, 0x322e
 32e:	302e                	.insn	2, 0x302e
 330:	2d20                	.insn	2, 0x2d20
 332:	636d                	.insn	2, 0x636d
 334:	6f6d                	.insn	2, 0x6f6d
 336:	6564                	.insn	2, 0x6564
 338:	3d6c                	.insn	2, 0x3d6c
 33a:	656d                	.insn	2, 0x656d
 33c:	6c64                	.insn	2, 0x6c64
 33e:	2d20776f          	jal	a4,7610 <__modsi3+0x4638>
 342:	636d                	.insn	2, 0x636d
 344:	6f6d                	.insn	2, 0x6f6d
 346:	6564                	.insn	2, 0x6564
 348:	3d6c                	.insn	2, 0x3d6c
 34a:	656d                	.insn	2, 0x656d
 34c:	6c64                	.insn	2, 0x6c64
 34e:	2d20776f          	jal	a4,7620 <__modsi3+0x4648>
 352:	746d                	.insn	2, 0x746d
 354:	6e75                	.insn	2, 0x6e75
 356:	3d65                	.insn	2, 0x3d65
 358:	6f72                	.insn	2, 0x6f72
 35a:	74656b63          	bltu	a0,t1,ab0 <MEM_START-0x550>
 35e:	2d20                	.insn	2, 0x2d20
 360:	616d                	.insn	2, 0x616d
 362:	6962                	.insn	2, 0x6962
 364:	693d                	.insn	2, 0x693d
 366:	706c                	.insn	2, 0x706c
 368:	2d203233          	.insn	4, 0x2d203233
 36c:	696d                	.insn	2, 0x696d
 36e:	732d6173          	csrrsi	sp,mhpmevent18h,26
 372:	6570                	.insn	2, 0x6570
 374:	30323d63          	.insn	4, 0x30323d63
 378:	3931                	.insn	2, 0x3931
 37a:	3231                	.insn	2, 0x3231
 37c:	3331                	.insn	2, 0x3331
 37e:	2d20                	.insn	2, 0x2d20
 380:	616d                	.insn	2, 0x616d
 382:	6372                	.insn	2, 0x6372
 384:	3d68                	.insn	2, 0x3d68
 386:	7672                	.insn	2, 0x7672
 388:	61693233          	.insn	4, 0x61693233
 38c:	7a5f 6369 7273      	.insn	6, 0x727363697a5f
 392:	2d20                	.insn	2, 0x2d20
 394:	4f2d2067          	.insn	4, 0x4f2d2067
 398:	4f2d2073          	csrs	0x4f2,s10
 39c:	2032                	.insn	2, 0x2032
 39e:	4f2d                	.insn	2, 0x4f2d
 3a0:	662d2073          	csrs	0x662,s10
 3a4:	7562                	.insn	2, 0x7562
 3a6:	6c69                	.insn	2, 0x6c69
 3a8:	6964                	.insn	2, 0x6964
 3aa:	676e                	.insn	2, 0x676e
 3ac:	6c2d                	.insn	2, 0x6c2d
 3ae:	6269                	.insn	2, 0x6269
 3b0:	20636367          	.insn	4, 0x20636367
 3b4:	662d                	.insn	2, 0x662d
 3b6:	6f6e                	.insn	2, 0x6f6e
 3b8:	732d                	.insn	2, 0x732d
 3ba:	6174                	.insn	2, 0x6174
 3bc:	702d6b63          	bltu	s10,sp,ad2 <MEM_START-0x52e>
 3c0:	6f72                	.insn	2, 0x6f72
 3c2:	6574                	.insn	2, 0x6574
 3c4:	726f7463          	bgeu	t5,t1,aec <MEM_START-0x514>
 3c8:	2d20                	.insn	2, 0x2d20
 3ca:	7666                	.insn	2, 0x7666
 3cc:	7369                	.insn	2, 0x7369
 3ce:	6269                	.insn	2, 0x6269
 3d0:	6c69                	.insn	2, 0x6c69
 3d2:	7469                	.insn	2, 0x7469
 3d4:	3d79                	.insn	2, 0x3d79
 3d6:	6968                	.insn	2, 0x6968
 3d8:	6464                	.insn	2, 0x6464
 3da:	6e65                	.insn	2, 0x6e65
	...

Disassembly of section .debug_line_str:

00000000 <.debug_line_str>:
   0:	2e2e                	.insn	2, 0x2e2e
   2:	2f2e2e2f          	.insn	4, 0x2f2e2e2f
   6:	2e2e                	.insn	2, 0x2e2e
   8:	2f2e2e2f          	.insn	4, 0x2f2e2e2f
   c:	2f636367          	.insn	4, 0x2f636367
  10:	696c                	.insn	2, 0x696c
  12:	6762                	.insn	2, 0x6762
  14:	6c2f6363          	bltu	t5,sp,6da <MEM_START-0x926>
  18:	6269                	.insn	2, 0x6269
  1a:	32636367          	.insn	4, 0x32636367
  1e:	632e                	.insn	2, 0x632e
  20:	2f00                	.insn	2, 0x2f00
  22:	6f68                	.insn	2, 0x6f68
  24:	656d                	.insn	2, 0x656d
  26:	7373692f          	.insn	4, 0x7373692f
  2a:	6968                	.insn	2, 0x6968
  2c:	742f696b          	.insn	4, 0x742f696b
  30:	5f6c6f6f          	jal	t5,c6626 <stack_bot+0xa2626>
  34:	2f637273          	csrrci	tp,0x2f6,6
  38:	6972                	.insn	2, 0x6972
  3a:	2d766373          	csrrsi	t1,0x2d7,12
  3e:	2d756e67          	.insn	4, 0x2d756e67
  42:	6f74                	.insn	2, 0x6f74
  44:	68636c6f          	jal	s8,366ca <stack_bot+0x126ca>
  48:	6961                	.insn	2, 0x6961
  4a:	2f6e                	.insn	2, 0x2f6e
  4c:	7562                	.insn	2, 0x7562
  4e:	6c69                	.insn	2, 0x6c69
  50:	2e64                	.insn	2, 0x2e64
  52:	6169                	.insn	2, 0x6169
  54:	6975622f          	.insn	4, 0x6975622f
  58:	646c                	.insn	2, 0x646c
  5a:	672d                	.insn	2, 0x672d
  5c:	6e2d6363          	bltu	s10,sp,742 <MEM_START-0x8be>
  60:	7765                	.insn	2, 0x7765
  62:	696c                	.insn	2, 0x696c
  64:	2d62                	.insn	2, 0x2d62
  66:	67617473          	csrrci	s0,0x676,2
  6a:	3265                	.insn	2, 0x3265
  6c:	7369722f          	.insn	4, 0x7369722f
  70:	32337663          	bgeu	t1,gp,39c <MEM_START-0xc64>
  74:	752d                	.insn	2, 0x752d
  76:	6b6e                	.insn	2, 0x6b6e
  78:	6f6e                	.insn	2, 0x6f6e
  7a:	652d6e77          	.insn	4, 0x652d6e77
  7e:	666c                	.insn	2, 0x666c
  80:	62696c2f          	.insn	4, 0x62696c2f
  84:	00636367          	.insn	4, 0x00636367
  88:	2e2e                	.insn	2, 0x2e2e
  8a:	2f2e2e2f          	.insn	4, 0x2f2e2e2f
  8e:	2e2e                	.insn	2, 0x2e2e
  90:	2f2e2e2f          	.insn	4, 0x2f2e2e2f
  94:	2f636367          	.insn	4, 0x2f636367
  98:	696c                	.insn	2, 0x696c
  9a:	6762                	.insn	2, 0x6762
  9c:	6c006363          	bltu	zero,zero,762 <MEM_START-0x89e>
  a0:	6269                	.insn	2, 0x6269
  a2:	32636367          	.insn	4, 0x32636367
  a6:	682e                	.insn	2, 0x682e
  a8:	2e00                	.insn	2, 0x2e00
  aa:	2f2e                	.insn	2, 0x2f2e
  ac:	2e2e                	.insn	2, 0x2e2e
  ae:	2f2e2e2f          	.insn	4, 0x2f2e2e2f
  b2:	2e2e                	.insn	2, 0x2e2e
  b4:	6363672f          	.insn	4, 0x6363672f
  b8:	62696c2f          	.insn	4, 0x62696c2f
  bc:	2f636367          	.insn	4, 0x2f636367
  c0:	666e6f63          	bltu	t3,t1,73e <MEM_START-0x8c2>
  c4:	6769                	.insn	2, 0x6769
  c6:	7369722f          	.insn	4, 0x7369722f
  ca:	6d007663          	bgeu	zero,a6,796 <MEM_START-0x86a>
  ce:	6c75                	.insn	2, 0x6c75
  d0:	6964                	.insn	2, 0x6964
  d2:	00532e33          	slt	t3,t1,t0
  d6:	6964                	.insn	2, 0x6964
  d8:	2e76                	.insn	2, 0x2e76
  da:	Address 0xda is out of bounds.

