
temp.out:     file format elf32-littleriscv


Disassembly of section .text:

00001000 <_start>:
    1000:	00023117          	auipc	sp,0x23
    1004:	00010113          	mv	sp,sp
    1008:	00020297          	auipc	t0,0x20
    100c:	04828293          	addi	t0,t0,72 # 21050 <UART_BUF_TX>
    1010:	00021317          	auipc	t1,0x21
    1014:	ff030313          	addi	t1,t1,-16 # 22000 <_end>
    1018:	00628863          	beq	t0,t1,1028 <_start+0x28>
    101c:	0002a023          	sw	zero,0(t0)
    1020:	00428293          	addi	t0,t0,4
    1024:	fe629ce3          	bne	t0,t1,101c <_start+0x1c>
    1028:	28d000ef          	jal	1ab4 <disable_UART_interrupt>
    102c:	00d000ef          	jal	1838 <_io_init>
    1030:	1e9000ef          	jal	1a18 <enable_BUTTON_interrupt>
    1034:	140000ef          	jal	1174 <main>
    1038:	185000ef          	jal	19bc <_io_fini>
    103c:	10500073          	wfi
    1040:	fc1ff06f          	j	1000 <_start>

Disassembly of section .text:

00001044 <timer_handler>:
    1044:	fe010113          	addi	sp,sp,-32 # 23fe0 <_end+0x1fe0>
    1048:	00112e23          	sw	ra,28(sp)
    104c:	00812c23          	sw	s0,24(sp)
    1050:	00912a23          	sw	s1,20(sp)
    1054:	01212823          	sw	s2,16(sp)
    1058:	01312623          	sw	s3,12(sp)
    105c:	01412423          	sw	s4,8(sp)
    1060:	01512223          	sw	s5,4(sp)
    1064:	01612023          	sw	s6,0(sp)
    1068:	00021437          	lui	s0,0x21
    106c:	14c42783          	lw	a5,332(s0) # 2114c <counter>
    1070:	00178793          	addi	a5,a5,1
    1074:	14f42623          	sw	a5,332(s0)
    1078:	00020537          	lui	a0,0x20
    107c:	2c450513          	addi	a0,a0,708 # 202c4 <__clz_tab+0x100>
    1080:	3a0000ef          	jal	1420 <puts>
    1084:	000217b7          	lui	a5,0x21
    1088:	02c7a583          	lw	a1,44(a5) # 2102c <size>
    108c:	14c42503          	lw	a0,332(s0)
    1090:	715010ef          	jal	2fa4 <__umodsi3>
    1094:	00251513          	slli	a0,a0,0x2
    1098:	000217b7          	lui	a5,0x21
    109c:	00078793          	mv	a5,a5
    10a0:	00a787b3          	add	a5,a5,a0
    10a4:	0007a483          	lw	s1,0(a5) # 21000 <fruits>
    10a8:	0004c503          	lbu	a0,0(s1)
    10ac:	49d000ef          	jal	1d48 <convert_char_seg7>
    10b0:	00050913          	mv	s2,a0
    10b4:	0014c503          	lbu	a0,1(s1)
    10b8:	491000ef          	jal	1d48 <convert_char_seg7>
    10bc:	01891913          	slli	s2,s2,0x18
    10c0:	01051513          	slli	a0,a0,0x10
    10c4:	00a96933          	or	s2,s2,a0
    10c8:	0024c503          	lbu	a0,2(s1)
    10cc:	47d000ef          	jal	1d48 <convert_char_seg7>
    10d0:	00050413          	mv	s0,a0
    10d4:	0034c503          	lbu	a0,3(s1)
    10d8:	471000ef          	jal	1d48 <convert_char_seg7>
    10dc:	00050b13          	mv	s6,a0
    10e0:	0044c503          	lbu	a0,4(s1)
    10e4:	465000ef          	jal	1d48 <convert_char_seg7>
    10e8:	00050a93          	mv	s5,a0
    10ec:	0054c503          	lbu	a0,5(s1)
    10f0:	459000ef          	jal	1d48 <convert_char_seg7>
    10f4:	00050a13          	mv	s4,a0
    10f8:	0064c503          	lbu	a0,6(s1)
    10fc:	44d000ef          	jal	1d48 <convert_char_seg7>
    1100:	00050993          	mv	s3,a0
    1104:	0074c503          	lbu	a0,7(s1)
    1108:	441000ef          	jal	1d48 <convert_char_seg7>
    110c:	00841793          	slli	a5,s0,0x8
    1110:	0127e7b3          	or	a5,a5,s2
    1114:	0167e7b3          	or	a5,a5,s6
    1118:	008ad693          	srli	a3,s5,0x8
    111c:	018a9a93          	slli	s5,s5,0x18
    1120:	01556733          	or	a4,a0,s5
    1124:	00d7e7b3          	or	a5,a5,a3
    1128:	010a5693          	srli	a3,s4,0x10
    112c:	010a1a13          	slli	s4,s4,0x10
    1130:	01476733          	or	a4,a4,s4
    1134:	00d7e7b3          	or	a5,a5,a3
    1138:	0189d593          	srli	a1,s3,0x18
    113c:	00899513          	slli	a0,s3,0x8
    1140:	00a76533          	or	a0,a4,a0
    1144:	00b7e5b3          	or	a1,a5,a1
    1148:	3ed000ef          	jal	1d34 <set_gpio_string>
    114c:	01c12083          	lw	ra,28(sp)
    1150:	01812403          	lw	s0,24(sp)
    1154:	01412483          	lw	s1,20(sp)
    1158:	01012903          	lw	s2,16(sp)
    115c:	00c12983          	lw	s3,12(sp)
    1160:	00812a03          	lw	s4,8(sp)
    1164:	00412a83          	lw	s5,4(sp)
    1168:	00012b03          	lw	s6,0(sp)
    116c:	02010113          	addi	sp,sp,32
    1170:	00008067          	ret

00001174 <main>:
    1174:	fe010113          	addi	sp,sp,-32
    1178:	00112e23          	sw	ra,28(sp)
    117c:	00812c23          	sw	s0,24(sp)
    1180:	00912a23          	sw	s1,20(sp)
    1184:	01212823          	sw	s2,16(sp)
    1188:	01312623          	sw	s3,12(sp)
    118c:	01412423          	sw	s4,8(sp)
    1190:	01512223          	sw	s5,4(sp)
    1194:	3e800513          	li	a0,1000
    1198:	074010ef          	jal	220c <set_mtimer_interval>
    119c:	00021737          	lui	a4,0x21
    11a0:	000017b7          	lui	a5,0x1
    11a4:	04478793          	addi	a5,a5,68 # 1044 <timer_handler>
    11a8:	14f72823          	sw	a5,336(a4) # 21150 <timer_interrupt_hook>
    11ac:	0ac010ef          	jal	2258 <enable_timer_interrupt>
    11b0:	00020537          	lui	a0,0x20
    11b4:	2d050513          	addi	a0,a0,720 # 202d0 <__clz_tab+0x10c>
    11b8:	268000ef          	jal	1420 <puts>
    11bc:	00100493          	li	s1,1
    11c0:	00021437          	lui	s0,0x21
    11c4:	08000913          	li	s2,128
    11c8:	00020ab7          	lui	s5,0x20
    11cc:	00020a37          	lui	s4,0x20
    11d0:	00048993          	mv	s3,s1
    11d4:	0140006f          	j	11e8 <main+0x74>
    11d8:	30493073          	csrc	mie,s2
    11dc:	2dca8513          	addi	a0,s5,732 # 202dc <__clz_tab+0x118>
    11e0:	240000ef          	jal	1420 <puts>
    11e4:	00000493          	li	s1,0
    11e8:	03042783          	lw	a5,48(s0) # 21030 <io_getch>
    11ec:	000780e7          	jalr	a5
    11f0:	fe050ce3          	beqz	a0,11e8 <main+0x74>
    11f4:	fe0492e3          	bnez	s1,11d8 <main+0x64>
    11f8:	30492073          	csrs	mie,s2
    11fc:	2d0a0513          	addi	a0,s4,720 # 202d0 <__clz_tab+0x10c>
    1200:	220000ef          	jal	1420 <puts>
    1204:	00098493          	mv	s1,s3
    1208:	fe1ff06f          	j	11e8 <main+0x74>

0000120c <puthex>:
    120c:	fe010113          	addi	sp,sp,-32
    1210:	00112e23          	sw	ra,28(sp)
    1214:	00912a23          	sw	s1,20(sp)
    1218:	01312623          	sw	s3,12(sp)
    121c:	00050993          	mv	s3,a0
    1220:	00060493          	mv	s1,a2
    1224:	06059863          	bnez	a1,1294 <puthex+0x88>
    1228:	06058263          	beqz	a1,128c <puthex+0x80>
    122c:	00812c23          	sw	s0,24(sp)
    1230:	01212823          	sw	s2,16(sp)
    1234:	fff68413          	addi	s0,a3,-1
    1238:	00021937          	lui	s2,0x21
    123c:	06805c63          	blez	s0,12b4 <puthex+0xa8>
    1240:	03492783          	lw	a5,52(s2) # 21034 <io_putch>
    1244:	00048513          	mv	a0,s1
    1248:	000780e7          	jalr	a5
    124c:	fff40413          	addi	s0,s0,-1
    1250:	fe0418e3          	bnez	s0,1240 <puthex+0x34>
    1254:	01812403          	lw	s0,24(sp)
    1258:	01012903          	lw	s2,16(sp)
    125c:	00f9f513          	andi	a0,s3,15
    1260:	00900793          	li	a5,9
    1264:	04a7ee63          	bltu	a5,a0,12c0 <puthex+0xb4>
    1268:	000217b7          	lui	a5,0x21
    126c:	0347a783          	lw	a5,52(a5) # 21034 <io_putch>
    1270:	03050513          	addi	a0,a0,48
    1274:	000780e7          	jalr	a5
    1278:	01c12083          	lw	ra,28(sp)
    127c:	01412483          	lw	s1,20(sp)
    1280:	00c12983          	lw	s3,12(sp)
    1284:	02010113          	addi	sp,sp,32
    1288:	00008067          	ret
    128c:	00f00793          	li	a5,15
    1290:	f8a7fee3          	bgeu	a5,a0,122c <puthex+0x20>
    1294:	01c59793          	slli	a5,a1,0x1c
    1298:	0049d513          	srli	a0,s3,0x4
    129c:	fff68693          	addi	a3,a3,-1
    12a0:	00048613          	mv	a2,s1
    12a4:	00a7e533          	or	a0,a5,a0
    12a8:	0045d593          	srli	a1,a1,0x4
    12ac:	f61ff0ef          	jal	120c <puthex>
    12b0:	fadff06f          	j	125c <puthex+0x50>
    12b4:	01812403          	lw	s0,24(sp)
    12b8:	01012903          	lw	s2,16(sp)
    12bc:	fa1ff06f          	j	125c <puthex+0x50>
    12c0:	000217b7          	lui	a5,0x21
    12c4:	0347a783          	lw	a5,52(a5) # 21034 <io_putch>
    12c8:	05750513          	addi	a0,a0,87
    12cc:	000780e7          	jalr	a5
    12d0:	fa9ff06f          	j	1278 <puthex+0x6c>

000012d4 <putdec>:
    12d4:	fe010113          	addi	sp,sp,-32
    12d8:	00112e23          	sw	ra,28(sp)
    12dc:	00812c23          	sw	s0,24(sp)
    12e0:	00912a23          	sw	s1,20(sp)
    12e4:	01312623          	sw	s3,12(sp)
    12e8:	01412423          	sw	s4,8(sp)
    12ec:	01512223          	sw	s5,4(sp)
    12f0:	00050a13          	mv	s4,a0
    12f4:	00058993          	mv	s3,a1
    12f8:	00060a93          	mv	s5,a2
    12fc:	00068493          	mv	s1,a3
    1300:	04b04463          	bgtz	a1,1348 <putdec+0x74>
    1304:	02058e63          	beqz	a1,1340 <putdec+0x6c>
    1308:	01212823          	sw	s2,16(sp)
    130c:	fff70413          	addi	s0,a4,-1
    1310:	00021937          	lui	s2,0x21
    1314:	00805c63          	blez	s0,132c <putdec+0x58>
    1318:	03492783          	lw	a5,52(s2) # 21034 <io_putch>
    131c:	00048513          	mv	a0,s1
    1320:	000780e7          	jalr	a5
    1324:	fff40413          	addi	s0,s0,-1
    1328:	fe0418e3          	bnez	s0,1318 <putdec+0x44>
    132c:	060a8063          	beqz	s5,138c <putdec+0xb8>
    1330:	02000793          	li	a5,32
    1334:	04f48063          	beq	s1,a5,1374 <putdec+0xa0>
    1338:	01012903          	lw	s2,16(sp)
    133c:	0540006f          	j	1390 <putdec+0xbc>
    1340:	00900793          	li	a5,9
    1344:	fca7f2e3          	bgeu	a5,a0,1308 <putdec+0x34>
    1348:	fff70413          	addi	s0,a4,-1
    134c:	00a00613          	li	a2,10
    1350:	00000693          	li	a3,0
    1354:	000a0513          	mv	a0,s4
    1358:	00098593          	mv	a1,s3
    135c:	040010ef          	jal	239c <__divdi3>
    1360:	00040713          	mv	a4,s0
    1364:	00048693          	mv	a3,s1
    1368:	000a8613          	mv	a2,s5
    136c:	f69ff0ef          	jal	12d4 <putdec>
    1370:	0200006f          	j	1390 <putdec+0xbc>
    1374:	000217b7          	lui	a5,0x21
    1378:	0347a783          	lw	a5,52(a5) # 21034 <io_putch>
    137c:	02d00513          	li	a0,45
    1380:	000780e7          	jalr	a5
    1384:	01012903          	lw	s2,16(sp)
    1388:	0080006f          	j	1390 <putdec+0xbc>
    138c:	01012903          	lw	s2,16(sp)
    1390:	00a00613          	li	a2,10
    1394:	00000693          	li	a3,0
    1398:	000a0513          	mv	a0,s4
    139c:	00098593          	mv	a1,s3
    13a0:	60c010ef          	jal	29ac <__moddi3>
    13a4:	03050513          	addi	a0,a0,48
    13a8:	000217b7          	lui	a5,0x21
    13ac:	0347a783          	lw	a5,52(a5) # 21034 <io_putch>
    13b0:	0ff57513          	zext.b	a0,a0
    13b4:	000780e7          	jalr	a5
    13b8:	01c12083          	lw	ra,28(sp)
    13bc:	01812403          	lw	s0,24(sp)
    13c0:	01412483          	lw	s1,20(sp)
    13c4:	00c12983          	lw	s3,12(sp)
    13c8:	00812a03          	lw	s4,8(sp)
    13cc:	00412a83          	lw	s5,4(sp)
    13d0:	02010113          	addi	sp,sp,32
    13d4:	00008067          	ret

000013d8 <putline>:
    13d8:	ff010113          	addi	sp,sp,-16
    13dc:	00112623          	sw	ra,12(sp)
    13e0:	00812423          	sw	s0,8(sp)
    13e4:	00150413          	addi	s0,a0,1
    13e8:	00054503          	lbu	a0,0(a0)
    13ec:	02050263          	beqz	a0,1410 <putline+0x38>
    13f0:	00912223          	sw	s1,4(sp)
    13f4:	000214b7          	lui	s1,0x21
    13f8:	0344a783          	lw	a5,52(s1) # 21034 <io_putch>
    13fc:	000780e7          	jalr	a5
    1400:	00140413          	addi	s0,s0,1
    1404:	fff44503          	lbu	a0,-1(s0)
    1408:	fe0518e3          	bnez	a0,13f8 <putline+0x20>
    140c:	00412483          	lw	s1,4(sp)
    1410:	00c12083          	lw	ra,12(sp)
    1414:	00812403          	lw	s0,8(sp)
    1418:	01010113          	addi	sp,sp,16
    141c:	00008067          	ret

00001420 <puts>:
    1420:	ff010113          	addi	sp,sp,-16
    1424:	00112623          	sw	ra,12(sp)
    1428:	fb1ff0ef          	jal	13d8 <putline>
    142c:	000217b7          	lui	a5,0x21
    1430:	0347a783          	lw	a5,52(a5) # 21034 <io_putch>
    1434:	00a00513          	li	a0,10
    1438:	000780e7          	jalr	a5
    143c:	00100513          	li	a0,1
    1440:	00c12083          	lw	ra,12(sp)
    1444:	01010113          	addi	sp,sp,16
    1448:	00008067          	ret

0000144c <putchar>:
    144c:	ff010113          	addi	sp,sp,-16
    1450:	00112623          	sw	ra,12(sp)
    1454:	00812423          	sw	s0,8(sp)
    1458:	00050413          	mv	s0,a0
    145c:	000217b7          	lui	a5,0x21
    1460:	0347a783          	lw	a5,52(a5) # 21034 <io_putch>
    1464:	0ff57513          	zext.b	a0,a0
    1468:	000780e7          	jalr	a5
    146c:	00040513          	mv	a0,s0
    1470:	00c12083          	lw	ra,12(sp)
    1474:	00812403          	lw	s0,8(sp)
    1478:	01010113          	addi	sp,sp,16
    147c:	00008067          	ret

00001480 <printf>:
    1480:	f8010113          	addi	sp,sp,-128
    1484:	04112e23          	sw	ra,92(sp)
    1488:	04812c23          	sw	s0,88(sp)
    148c:	00050413          	mv	s0,a0
    1490:	06b12223          	sw	a1,100(sp)
    1494:	06c12423          	sw	a2,104(sp)
    1498:	06d12623          	sw	a3,108(sp)
    149c:	06e12823          	sw	a4,112(sp)
    14a0:	06f12a23          	sw	a5,116(sp)
    14a4:	07012c23          	sw	a6,120(sp)
    14a8:	07112e23          	sw	a7,124(sp)
    14ac:	06410793          	addi	a5,sp,100
    14b0:	00f12e23          	sw	a5,28(sp)
    14b4:	00054503          	lbu	a0,0(a0)
    14b8:	30050663          	beqz	a0,17c4 <printf+0x344>
    14bc:	04912a23          	sw	s1,84(sp)
    14c0:	05212823          	sw	s2,80(sp)
    14c4:	05312623          	sw	s3,76(sp)
    14c8:	05412423          	sw	s4,72(sp)
    14cc:	05512223          	sw	s5,68(sp)
    14d0:	05612023          	sw	s6,64(sp)
    14d4:	03712e23          	sw	s7,60(sp)
    14d8:	03812c23          	sw	s8,56(sp)
    14dc:	03a12823          	sw	s10,48(sp)
    14e0:	00000a13          	li	s4,0
    14e4:	02000993          	li	s3,32
    14e8:	00012623          	sw	zero,12(sp)
    14ec:	00000b93          	li	s7,0
    14f0:	00000493          	li	s1,0
    14f4:	02500b13          	li	s6,37
    14f8:	00021c37          	lui	s8,0x21
    14fc:	03000d13          	li	s10,48
    1500:	03900a93          	li	s5,57
    1504:	01500913          	li	s2,21
    1508:	2140006f          	j	171c <printf+0x29c>
    150c:	02f00793          	li	a5,47
    1510:	02a7f063          	bgeu	a5,a0,1530 <printf+0xb0>
    1514:	002a1793          	slli	a5,s4,0x2
    1518:	014787b3          	add	a5,a5,s4
    151c:	00179793          	slli	a5,a5,0x1
    1520:	00a787b3          	add	a5,a5,a0
    1524:	fd078a13          	addi	s4,a5,-48
    1528:	00040793          	mv	a5,s0
    152c:	1e40006f          	j	1710 <printf+0x290>
    1530:	00040793          	mv	a5,s0
    1534:	1dc0006f          	j	1710 <printf+0x290>
    1538:	00144703          	lbu	a4,1(s0)
    153c:	06c00793          	li	a5,108
    1540:	00f70863          	beq	a4,a5,1550 <printf+0xd0>
    1544:	00048b93          	mv	s7,s1
    1548:	00040793          	mv	a5,s0
    154c:	1c40006f          	j	1710 <printf+0x290>
    1550:	00140793          	addi	a5,s0,1
    1554:	00912623          	sw	s1,12(sp)
    1558:	1b80006f          	j	1710 <printf+0x290>
    155c:	00021bb7          	lui	s7,0x21
    1560:	034ba783          	lw	a5,52(s7) # 21034 <io_putch>
    1564:	03000513          	li	a0,48
    1568:	000780e7          	jalr	a5
    156c:	034ba783          	lw	a5,52(s7)
    1570:	07800513          	li	a0,120
    1574:	000780e7          	jalr	a5
    1578:	01c12783          	lw	a5,28(sp)
    157c:	00478713          	addi	a4,a5,4
    1580:	00e12e23          	sw	a4,28(sp)
    1584:	0007a503          	lw	a0,0(a5)
    1588:	00000593          	li	a1,0
    158c:	00048b93          	mv	s7,s1
    1590:	000a0693          	mv	a3,s4
    1594:	00098613          	mv	a2,s3
    1598:	c75ff0ef          	jal	120c <puthex>
    159c:	00040793          	mv	a5,s0
    15a0:	00000493          	li	s1,0
    15a4:	16c0006f          	j	1710 <printf+0x290>
    15a8:	fc0b98e3          	bnez	s7,1578 <printf+0xf8>
    15ac:	00c12783          	lw	a5,12(sp)
    15b0:	02078263          	beqz	a5,15d4 <printf+0x154>
    15b4:	01c12783          	lw	a5,28(sp)
    15b8:	00778793          	addi	a5,a5,7
    15bc:	ff87f793          	andi	a5,a5,-8
    15c0:	00878713          	addi	a4,a5,8
    15c4:	00e12e23          	sw	a4,28(sp)
    15c8:	0007a503          	lw	a0,0(a5)
    15cc:	0047a583          	lw	a1,4(a5)
    15d0:	fc1ff06f          	j	1590 <printf+0x110>
    15d4:	01c12783          	lw	a5,28(sp)
    15d8:	00478713          	addi	a4,a5,4
    15dc:	00e12e23          	sw	a4,28(sp)
    15e0:	0007a503          	lw	a0,0(a5)
    15e4:	00000593          	li	a1,0
    15e8:	00c12b83          	lw	s7,12(sp)
    15ec:	fa5ff06f          	j	1590 <printf+0x110>
    15f0:	03912a23          	sw	s9,52(sp)
    15f4:	03b12623          	sw	s11,44(sp)
    15f8:	040b8663          	beqz	s7,1644 <printf+0x1c4>
    15fc:	01c12783          	lw	a5,28(sp)
    1600:	00478713          	addi	a4,a5,4
    1604:	00e12e23          	sw	a4,28(sp)
    1608:	0007ad83          	lw	s11,0(a5)
    160c:	41fddc93          	srai	s9,s11,0x1f
    1610:	060cca63          	bltz	s9,1684 <printf+0x204>
    1614:	00000493          	li	s1,0
    1618:	000a0713          	mv	a4,s4
    161c:	00098693          	mv	a3,s3
    1620:	00048613          	mv	a2,s1
    1624:	000d8513          	mv	a0,s11
    1628:	000c8593          	mv	a1,s9
    162c:	ca9ff0ef          	jal	12d4 <putdec>
    1630:	00040793          	mv	a5,s0
    1634:	00000493          	li	s1,0
    1638:	03412c83          	lw	s9,52(sp)
    163c:	02c12d83          	lw	s11,44(sp)
    1640:	0d00006f          	j	1710 <printf+0x290>
    1644:	00c12783          	lw	a5,12(sp)
    1648:	02078263          	beqz	a5,166c <printf+0x1ec>
    164c:	01c12783          	lw	a5,28(sp)
    1650:	00778793          	addi	a5,a5,7
    1654:	ff87f793          	andi	a5,a5,-8
    1658:	00878713          	addi	a4,a5,8
    165c:	00e12e23          	sw	a4,28(sp)
    1660:	0007ad83          	lw	s11,0(a5)
    1664:	0047ac83          	lw	s9,4(a5)
    1668:	fa9ff06f          	j	1610 <printf+0x190>
    166c:	01c12783          	lw	a5,28(sp)
    1670:	00478713          	addi	a4,a5,4
    1674:	00e12e23          	sw	a4,28(sp)
    1678:	0007ad83          	lw	s11,0(a5)
    167c:	41fddc93          	srai	s9,s11,0x1f
    1680:	f91ff06f          	j	1610 <printf+0x190>
    1684:	03000793          	li	a5,48
    1688:	00f98e63          	beq	s3,a5,16a4 <printf+0x224>
    168c:	01b037b3          	snez	a5,s11
    1690:	41900cb3          	neg	s9,s9
    1694:	40fc8cb3          	sub	s9,s9,a5
    1698:	41b00db3          	neg	s11,s11
    169c:	fffa0a13          	addi	s4,s4,-1
    16a0:	f79ff06f          	j	1618 <printf+0x198>
    16a4:	000217b7          	lui	a5,0x21
    16a8:	0347a783          	lw	a5,52(a5) # 21034 <io_putch>
    16ac:	02d00513          	li	a0,45
    16b0:	000780e7          	jalr	a5
    16b4:	fd9ff06f          	j	168c <printf+0x20c>
    16b8:	01c12783          	lw	a5,28(sp)
    16bc:	00478713          	addi	a4,a5,4
    16c0:	00e12e23          	sw	a4,28(sp)
    16c4:	0007a503          	lw	a0,0(a5)
    16c8:	d11ff0ef          	jal	13d8 <putline>
    16cc:	00040793          	mv	a5,s0
    16d0:	00000493          	li	s1,0
    16d4:	03c0006f          	j	1710 <printf+0x290>
    16d8:	000217b7          	lui	a5,0x21
    16dc:	0347a703          	lw	a4,52(a5) # 21034 <io_putch>
    16e0:	01c12783          	lw	a5,28(sp)
    16e4:	00478693          	addi	a3,a5,4
    16e8:	00d12e23          	sw	a3,28(sp)
    16ec:	0007c503          	lbu	a0,0(a5)
    16f0:	000700e7          	jalr	a4
    16f4:	00040793          	mv	a5,s0
    16f8:	00000493          	li	s1,0
    16fc:	0140006f          	j	1710 <printf+0x290>
    1700:	05650a63          	beq	a0,s6,1754 <printf+0x2d4>
    1704:	034c2783          	lw	a5,52(s8) # 21034 <io_putch>
    1708:	000780e7          	jalr	a5
    170c:	00040793          	mv	a5,s0
    1710:	00178413          	addi	s0,a5,1
    1714:	0017c503          	lbu	a0,1(a5)
    1718:	08050463          	beqz	a0,17a0 <printf+0x320>
    171c:	fe0482e3          	beqz	s1,1700 <printf+0x280>
    1720:	deaaf6e3          	bgeu	s5,a0,150c <printf+0x8c>
    1724:	f9d50793          	addi	a5,a0,-99
    1728:	0ff7f793          	zext.b	a5,a5
    172c:	06f96663          	bltu	s2,a5,1798 <printf+0x318>
    1730:	f9d50513          	addi	a0,a0,-99
    1734:	0ff57793          	zext.b	a5,a0
    1738:	04f96c63          	bltu	s2,a5,1790 <printf+0x310>
    173c:	00279513          	slli	a0,a5,0x2
    1740:	000207b7          	lui	a5,0x20
    1744:	00078793          	mv	a5,a5
    1748:	00f50533          	add	a0,a0,a5
    174c:	00052783          	lw	a5,0(a0)
    1750:	00078067          	jr	a5 # 20000 <DATA_START>
    1754:	00144983          	lbu	s3,1(s0)
    1758:	03a98063          	beq	s3,s10,1778 <printf+0x2f8>
    175c:	00048a13          	mv	s4,s1
    1760:	00912623          	sw	s1,12(sp)
    1764:	00048b93          	mv	s7,s1
    1768:	00040793          	mv	a5,s0
    176c:	02000993          	li	s3,32
    1770:	00100493          	li	s1,1
    1774:	f9dff06f          	j	1710 <printf+0x290>
    1778:	00140793          	addi	a5,s0,1
    177c:	00048a13          	mv	s4,s1
    1780:	00912623          	sw	s1,12(sp)
    1784:	00048b93          	mv	s7,s1
    1788:	00100493          	li	s1,1
    178c:	f85ff06f          	j	1710 <printf+0x290>
    1790:	00040793          	mv	a5,s0
    1794:	f7dff06f          	j	1710 <printf+0x290>
    1798:	00040793          	mv	a5,s0
    179c:	f75ff06f          	j	1710 <printf+0x290>
    17a0:	05412483          	lw	s1,84(sp)
    17a4:	05012903          	lw	s2,80(sp)
    17a8:	04c12983          	lw	s3,76(sp)
    17ac:	04812a03          	lw	s4,72(sp)
    17b0:	04412a83          	lw	s5,68(sp)
    17b4:	04012b03          	lw	s6,64(sp)
    17b8:	03c12b83          	lw	s7,60(sp)
    17bc:	03812c03          	lw	s8,56(sp)
    17c0:	03012d03          	lw	s10,48(sp)
    17c4:	00000513          	li	a0,0
    17c8:	05c12083          	lw	ra,92(sp)
    17cc:	05812403          	lw	s0,88(sp)
    17d0:	08010113          	addi	sp,sp,128
    17d4:	00008067          	ret

000017d8 <_io_putch>:
    17d8:	000217b7          	lui	a5,0x21
    17dc:	00021737          	lui	a4,0x21
    17e0:	16072703          	lw	a4,352(a4) # 21160 <UART_CHAN_ID>
    17e4:	00271713          	slli	a4,a4,0x2
    17e8:	03878793          	addi	a5,a5,56 # 21038 <_uart>
    17ec:	00e787b3          	add	a5,a5,a4
    17f0:	0007a703          	lw	a4,0(a5)
    17f4:	00472783          	lw	a5,4(a4)
    17f8:	0017f793          	andi	a5,a5,1
    17fc:	fe079ce3          	bnez	a5,17f4 <_io_putch+0x1c>
    1800:	00a70023          	sb	a0,0(a4)
    1804:	00008067          	ret

00001808 <_io_getch>:
    1808:	000217b7          	lui	a5,0x21
    180c:	00021737          	lui	a4,0x21
    1810:	16072703          	lw	a4,352(a4) # 21160 <UART_CHAN_ID>
    1814:	00271713          	slli	a4,a4,0x2
    1818:	03878793          	addi	a5,a5,56 # 21038 <_uart>
    181c:	00e787b3          	add	a5,a5,a4
    1820:	0007a703          	lw	a4,0(a5)
    1824:	00472783          	lw	a5,4(a4)
    1828:	0087f793          	andi	a5,a5,8
    182c:	fe079ce3          	bnez	a5,1824 <_io_getch+0x1c>
    1830:	00074503          	lbu	a0,0(a4)
    1834:	00008067          	ret

00001838 <_io_init>:
    1838:	000217b7          	lui	a5,0x21
    183c:	03878793          	addi	a5,a5,56 # 21038 <_uart>
    1840:	0007a683          	lw	a3,0(a5)
    1844:	06f00713          	li	a4,111
    1848:	00e6a223          	sw	a4,4(a3)
    184c:	0047a783          	lw	a5,4(a5)
    1850:	00e7a223          	sw	a4,4(a5)
    1854:	00008067          	ret

00001858 <set_uart_ID>:
    1858:	00a03533          	snez	a0,a0
    185c:	000217b7          	lui	a5,0x21
    1860:	16a7a023          	sw	a0,352(a5) # 21160 <UART_CHAN_ID>
    1864:	00008067          	ret

00001868 <UARTBuf_reset>:
    1868:	00052223          	sw	zero,4(a0)
    186c:	00052423          	sw	zero,8(a0)
    1870:	000500a3          	sb	zero,1(a0)
    1874:	00050023          	sb	zero,0(a0)
    1878:	00052623          	sw	zero,12(a0)
    187c:	00052823          	sw	zero,16(a0)
    1880:	00008067          	ret

00001884 <UARTBuf_buffered_size>:
    1884:	00852783          	lw	a5,8(a0)
    1888:	00452703          	lw	a4,4(a0)
    188c:	40e78533          	sub	a0,a5,a4
    1890:	00054463          	bltz	a0,1898 <UARTBuf_buffered_size+0x14>
    1894:	00008067          	ret
    1898:	02850513          	addi	a0,a0,40
    189c:	00008067          	ret

000018a0 <UARTBuf_write>:
    18a0:	00154783          	lbu	a5,1(a0)
    18a4:	00078463          	beqz	a5,18ac <UARTBuf_write+0xc>
    18a8:	00008067          	ret
    18ac:	00852783          	lw	a5,8(a0)
    18b0:	00f507b3          	add	a5,a0,a5
    18b4:	00b78a23          	sb	a1,20(a5)
    18b8:	00452683          	lw	a3,4(a0)
    18bc:	00852783          	lw	a5,8(a0)
    18c0:	02700613          	li	a2,39
    18c4:	00000713          	li	a4,0
    18c8:	00c78463          	beq	a5,a2,18d0 <UARTBuf_write+0x30>
    18cc:	00178713          	addi	a4,a5,1
    18d0:	00100793          	li	a5,1
    18d4:	00f50023          	sb	a5,0(a0)
    18d8:	40e687b3          	sub	a5,a3,a4
    18dc:	0017b793          	seqz	a5,a5
    18e0:	00f500a3          	sb	a5,1(a0)
    18e4:	00d52223          	sw	a3,4(a0)
    18e8:	00e52423          	sw	a4,8(a0)
    18ec:	00008067          	ret

000018f0 <UARTBuf_read>:
    18f0:	00050793          	mv	a5,a0
    18f4:	00054703          	lbu	a4,0(a0)
    18f8:	0ff77513          	zext.b	a0,a4
    18fc:	00071463          	bnez	a4,1904 <UARTBuf_read+0x14>
    1900:	00008067          	ret
    1904:	0047a703          	lw	a4,4(a5)
    1908:	00e78733          	add	a4,a5,a4
    190c:	01474503          	lbu	a0,20(a4)
    1910:	0ff57513          	zext.b	a0,a0
    1914:	0047a703          	lw	a4,4(a5)
    1918:	0087a603          	lw	a2,8(a5)
    191c:	02700593          	li	a1,39
    1920:	00000693          	li	a3,0
    1924:	00b70463          	beq	a4,a1,192c <UARTBuf_read+0x3c>
    1928:	00170693          	addi	a3,a4,1
    192c:	40d60733          	sub	a4,a2,a3
    1930:	00e03733          	snez	a4,a4
    1934:	00e78023          	sb	a4,0(a5)
    1938:	000780a3          	sb	zero,1(a5)
    193c:	00d7a223          	sw	a3,4(a5)
    1940:	00c7a423          	sw	a2,8(a5)
    1944:	00008067          	ret

00001948 <UARTBuf_read_last>:
    1948:	00852783          	lw	a5,8(a0)
    194c:	00079a63          	bnez	a5,1960 <UARTBuf_read_last+0x18>
    1950:	00054703          	lbu	a4,0(a0)
    1954:	00070863          	beqz	a4,1964 <UARTBuf_read_last+0x1c>
    1958:	02700793          	li	a5,39
    195c:	0080006f          	j	1964 <UARTBuf_read_last+0x1c>
    1960:	fff78793          	addi	a5,a5,-1
    1964:	00f50533          	add	a0,a0,a5
    1968:	01454503          	lbu	a0,20(a0)
    196c:	00008067          	ret

00001970 <flush_UART>:
    1970:	000217b7          	lui	a5,0x21
    1974:	0387a683          	lw	a3,56(a5) # 21038 <_uart>
    1978:	00021737          	lui	a4,0x21
    197c:	05070793          	addi	a5,a4,80 # 21050 <UART_BUF_TX>
    1980:	0007c783          	lbu	a5,0(a5)
    1984:	fe079ce3          	bnez	a5,197c <flush_UART+0xc>
    1988:	0046a783          	lw	a5,4(a3)
    198c:	0027f793          	andi	a5,a5,2
    1990:	fe0786e3          	beqz	a5,197c <flush_UART+0xc>
    1994:	000217b7          	lui	a5,0x21
    1998:	03c7a683          	lw	a3,60(a5) # 2103c <_uart+0x4>
    199c:	00021737          	lui	a4,0x21
    19a0:	05070793          	addi	a5,a4,80 # 21050 <UART_BUF_TX>
    19a4:	03c7c783          	lbu	a5,60(a5)
    19a8:	fe079ce3          	bnez	a5,19a0 <flush_UART+0x30>
    19ac:	0046a783          	lw	a5,4(a3)
    19b0:	0027f793          	andi	a5,a5,2
    19b4:	fe0786e3          	beqz	a5,19a0 <flush_UART+0x30>
    19b8:	00008067          	ret

000019bc <_io_fini>:
    19bc:	ff010113          	addi	sp,sp,-16
    19c0:	00112623          	sw	ra,12(sp)
    19c4:	fadff0ef          	jal	1970 <flush_UART>
    19c8:	00c12083          	lw	ra,12(sp)
    19cc:	01010113          	addi	sp,sp,16
    19d0:	00008067          	ret

000019d4 <UARTBuf_reset_all>:
    19d4:	ff010113          	addi	sp,sp,-16
    19d8:	00112623          	sw	ra,12(sp)
    19dc:	00812423          	sw	s0,8(sp)
    19e0:	00021537          	lui	a0,0x21
    19e4:	05050413          	addi	s0,a0,80 # 21050 <UART_BUF_TX>
    19e8:	05050513          	addi	a0,a0,80
    19ec:	e7dff0ef          	jal	1868 <UARTBuf_reset>
    19f0:	03c40513          	addi	a0,s0,60
    19f4:	e75ff0ef          	jal	1868 <UARTBuf_reset>
    19f8:	07840513          	addi	a0,s0,120
    19fc:	e6dff0ef          	jal	1868 <UARTBuf_reset>
    1a00:	0b440513          	addi	a0,s0,180
    1a04:	e65ff0ef          	jal	1868 <UARTBuf_reset>
    1a08:	00c12083          	lw	ra,12(sp)
    1a0c:	00812403          	lw	s0,8(sp)
    1a10:	01010113          	addi	sp,sp,16
    1a14:	00008067          	ret

00001a18 <enable_BUTTON_interrupt>:
    1a18:	000027b7          	lui	a5,0x2
    1a1c:	30c78793          	addi	a5,a5,780 # 230c <_mhandler>
    1a20:	30579073          	csrw	mtvec,a5
    1a24:	000217b7          	lui	a5,0x21
    1a28:	0447a703          	lw	a4,68(a5) # 21044 <sysctrl>
    1a2c:	00872783          	lw	a5,8(a4)
    1a30:	07c7e793          	ori	a5,a5,124
    1a34:	00f72423          	sw	a5,8(a4)
    1a38:	000017b7          	lui	a5,0x1
    1a3c:	80078793          	addi	a5,a5,-2048 # 800 <_start-0x800>
    1a40:	3047a073          	csrs	mie,a5
    1a44:	30046073          	csrsi	mstatus,8
    1a48:	00008067          	ret

00001a4c <enable_UART_interrupt>:
    1a4c:	ff010113          	addi	sp,sp,-16
    1a50:	00112623          	sw	ra,12(sp)
    1a54:	f81ff0ef          	jal	19d4 <UARTBuf_reset_all>
    1a58:	00021737          	lui	a4,0x21
    1a5c:	000027b7          	lui	a5,0x2
    1a60:	0c478793          	addi	a5,a5,196 # 20c4 <_UARTBuf_putch>
    1a64:	02f72a23          	sw	a5,52(a4) # 21034 <io_putch>
    1a68:	00021737          	lui	a4,0x21
    1a6c:	000027b7          	lui	a5,0x2
    1a70:	16478793          	addi	a5,a5,356 # 2164 <_UARTBuf_getch>
    1a74:	02f72823          	sw	a5,48(a4) # 21030 <io_getch>
    1a78:	000217b7          	lui	a5,0x21
    1a7c:	0447a703          	lw	a4,68(a5) # 21044 <sysctrl>
    1a80:	00872783          	lw	a5,8(a4)
    1a84:	0037e793          	ori	a5,a5,3
    1a88:	00f72423          	sw	a5,8(a4)
    1a8c:	000017b7          	lui	a5,0x1
    1a90:	80078793          	addi	a5,a5,-2048 # 800 <_start-0x800>
    1a94:	3047a073          	csrs	mie,a5
    1a98:	30046073          	csrsi	mstatus,8
    1a9c:	000027b7          	lui	a5,0x2
    1aa0:	30c78793          	addi	a5,a5,780 # 230c <_mhandler>
    1aa4:	30579073          	csrw	mtvec,a5
    1aa8:	00c12083          	lw	ra,12(sp)
    1aac:	01010113          	addi	sp,sp,16
    1ab0:	00008067          	ret

00001ab4 <disable_UART_interrupt>:
    1ab4:	ff010113          	addi	sp,sp,-16
    1ab8:	00112623          	sw	ra,12(sp)
    1abc:	000217b7          	lui	a5,0x21
    1ac0:	0387a703          	lw	a4,56(a5) # 21038 <_uart>
    1ac4:	00472783          	lw	a5,4(a4)
    1ac8:	0107f793          	andi	a5,a5,16
    1acc:	fe079ce3          	bnez	a5,1ac4 <disable_UART_interrupt+0x10>
    1ad0:	000217b7          	lui	a5,0x21
    1ad4:	03c7a703          	lw	a4,60(a5) # 2103c <_uart+0x4>
    1ad8:	00472783          	lw	a5,4(a4)
    1adc:	0107f793          	andi	a5,a5,16
    1ae0:	fe079ce3          	bnez	a5,1ad8 <disable_UART_interrupt+0x24>
    1ae4:	00021737          	lui	a4,0x21
    1ae8:	000017b7          	lui	a5,0x1
    1aec:	7d878793          	addi	a5,a5,2008 # 17d8 <_io_putch>
    1af0:	02f72a23          	sw	a5,52(a4) # 21034 <io_putch>
    1af4:	00021737          	lui	a4,0x21
    1af8:	000027b7          	lui	a5,0x2
    1afc:	80878793          	addi	a5,a5,-2040 # 1808 <_io_getch>
    1b00:	02f72823          	sw	a5,48(a4) # 21030 <io_getch>
    1b04:	000217b7          	lui	a5,0x21
    1b08:	0447a703          	lw	a4,68(a5) # 21044 <sysctrl>
    1b0c:	00872783          	lw	a5,8(a4)
    1b10:	ffc7f793          	andi	a5,a5,-4
    1b14:	00f72423          	sw	a5,8(a4)
    1b18:	30047073          	csrci	mstatus,8
    1b1c:	eb9ff0ef          	jal	19d4 <UARTBuf_reset_all>
    1b20:	00c12083          	lw	ra,12(sp)
    1b24:	01010113          	addi	sp,sp,16
    1b28:	00008067          	ret

00001b2c <UARTintr_handler>:
    1b2c:	fe010113          	addi	sp,sp,-32
    1b30:	00112e23          	sw	ra,28(sp)
    1b34:	00812c23          	sw	s0,24(sp)
    1b38:	00912a23          	sw	s1,20(sp)
    1b3c:	01212823          	sw	s2,16(sp)
    1b40:	01312623          	sw	s3,12(sp)
    1b44:	01412423          	sw	s4,8(sp)
    1b48:	01512223          	sw	s5,4(sp)
    1b4c:	00050993          	mv	s3,a0
    1b50:	000217b7          	lui	a5,0x21
    1b54:	00251713          	slli	a4,a0,0x2
    1b58:	03878793          	addi	a5,a5,56 # 21038 <_uart>
    1b5c:	00e787b3          	add	a5,a5,a4
    1b60:	0007a483          	lw	s1,0(a5)
    1b64:	00451a93          	slli	s5,a0,0x4
    1b68:	40aa8ab3          	sub	s5,s5,a0
    1b6c:	002a9a93          	slli	s5,s5,0x2
    1b70:	00021437          	lui	s0,0x21
    1b74:	05040413          	addi	s0,s0,80 # 21050 <UART_BUF_TX>
    1b78:	01540433          	add	s0,s0,s5
    1b7c:	00044783          	lbu	a5,0(s0)
    1b80:	02078463          	beqz	a5,1ba8 <UARTintr_handler+0x7c>
    1b84:	00040913          	mv	s2,s0
    1b88:	0044a783          	lw	a5,4(s1)
    1b8c:	0017f793          	andi	a5,a5,1
    1b90:	00079c63          	bnez	a5,1ba8 <UARTintr_handler+0x7c>
    1b94:	00040513          	mv	a0,s0
    1b98:	d59ff0ef          	jal	18f0 <UARTBuf_read>
    1b9c:	00a48023          	sb	a0,0(s1)
    1ba0:	00094783          	lbu	a5,0(s2)
    1ba4:	fe0792e3          	bnez	a5,1b88 <UARTintr_handler+0x5c>
    1ba8:	000217b7          	lui	a5,0x21
    1bac:	05078793          	addi	a5,a5,80 # 21050 <UART_BUF_TX>
    1bb0:	07878a13          	addi	s4,a5,120
    1bb4:	015a0a33          	add	s4,s4,s5
    1bb8:	00499713          	slli	a4,s3,0x4
    1bbc:	41370733          	sub	a4,a4,s3
    1bc0:	00271713          	slli	a4,a4,0x2
    1bc4:	00e787b3          	add	a5,a5,a4
    1bc8:	0797c783          	lbu	a5,121(a5)
    1bcc:	06079263          	bnez	a5,1c30 <UARTintr_handler+0x104>
    1bd0:	01a00a93          	li	s5,26
    1bd4:	00021937          	lui	s2,0x21
    1bd8:	05090913          	addi	s2,s2,80 # 21050 <UART_BUF_TX>
    1bdc:	00e90933          	add	s2,s2,a4
    1be0:	0140006f          	j	1bf4 <UARTintr_handler+0xc8>
    1be4:	00100793          	li	a5,1
    1be8:	08f92423          	sw	a5,136(s2)
    1bec:	07994783          	lbu	a5,121(s2)
    1bf0:	04079063          	bnez	a5,1c30 <UARTintr_handler+0x104>
    1bf4:	0044a783          	lw	a5,4(s1)
    1bf8:	0087f793          	andi	a5,a5,8
    1bfc:	02079a63          	bnez	a5,1c30 <UARTintr_handler+0x104>
    1c00:	0004c403          	lbu	s0,0(s1)
    1c04:	0ff47413          	zext.b	s0,s0
    1c08:	00040593          	mv	a1,s0
    1c0c:	000a0513          	mv	a0,s4
    1c10:	c91ff0ef          	jal	18a0 <UARTBuf_write>
    1c14:	fd5408e3          	beq	s0,s5,1be4 <UARTintr_handler+0xb8>
    1c18:	00a00793          	li	a5,10
    1c1c:	fcf418e3          	bne	s0,a5,1bec <UARTintr_handler+0xc0>
    1c20:	08492783          	lw	a5,132(s2)
    1c24:	00178793          	addi	a5,a5,1
    1c28:	08f92223          	sw	a5,132(s2)
    1c2c:	fc1ff06f          	j	1bec <UARTintr_handler+0xc0>
    1c30:	01c12083          	lw	ra,28(sp)
    1c34:	01812403          	lw	s0,24(sp)
    1c38:	01412483          	lw	s1,20(sp)
    1c3c:	01012903          	lw	s2,16(sp)
    1c40:	00c12983          	lw	s3,12(sp)
    1c44:	00812a03          	lw	s4,8(sp)
    1c48:	00412a83          	lw	s5,4(sp)
    1c4c:	02010113          	addi	sp,sp,32
    1c50:	00008067          	ret

00001c54 <ext_intr_handler>:
    1c54:	ff010113          	addi	sp,sp,-16
    1c58:	00112623          	sw	ra,12(sp)
    1c5c:	00812423          	sw	s0,8(sp)
    1c60:	000217b7          	lui	a5,0x21
    1c64:	0447a783          	lw	a5,68(a5) # 21044 <sysctrl>
    1c68:	0007a403          	lw	s0,0(a5)
    1c6c:	00147793          	andi	a5,s0,1
    1c70:	02079663          	bnez	a5,1c9c <ext_intr_handler+0x48>
    1c74:	00247413          	andi	s0,s0,2
    1c78:	02041863          	bnez	s0,1ca8 <ext_intr_handler+0x54>
    1c7c:	000217b7          	lui	a5,0x21
    1c80:	0447a783          	lw	a5,68(a5) # 21044 <sysctrl>
    1c84:	07f00713          	li	a4,127
    1c88:	00e7a023          	sw	a4,0(a5)
    1c8c:	00c12083          	lw	ra,12(sp)
    1c90:	00812403          	lw	s0,8(sp)
    1c94:	01010113          	addi	sp,sp,16
    1c98:	00008067          	ret
    1c9c:	00000513          	li	a0,0
    1ca0:	e8dff0ef          	jal	1b2c <UARTintr_handler>
    1ca4:	fd1ff06f          	j	1c74 <ext_intr_handler+0x20>
    1ca8:	00100513          	li	a0,1
    1cac:	e81ff0ef          	jal	1b2c <UARTintr_handler>
    1cb0:	fcdff06f          	j	1c7c <ext_intr_handler+0x28>

00001cb4 <mhandler>:
    1cb4:	342027f3          	csrr	a5,mcause
    1cb8:	0007c463          	bltz	a5,1cc0 <mhandler+0xc>
    1cbc:	00008067          	ret
    1cc0:	ff010113          	addi	sp,sp,-16
    1cc4:	00112623          	sw	ra,12(sp)
    1cc8:	0ff7f793          	zext.b	a5,a5
    1ccc:	00700713          	li	a4,7
    1cd0:	00e78e63          	beq	a5,a4,1cec <mhandler+0x38>
    1cd4:	00b00713          	li	a4,11
    1cd8:	00e79463          	bne	a5,a4,1ce0 <mhandler+0x2c>
    1cdc:	f79ff0ef          	jal	1c54 <ext_intr_handler>
    1ce0:	00c12083          	lw	ra,12(sp)
    1ce4:	01010113          	addi	sp,sp,16
    1ce8:	00008067          	ret
    1cec:	000217b7          	lui	a5,0x21
    1cf0:	0447a583          	lw	a1,68(a5) # 21044 <sysctrl>
    1cf4:	0105a603          	lw	a2,16(a1)
    1cf8:	0145a683          	lw	a3,20(a1)
    1cfc:	000217b7          	lui	a5,0x21
    1d00:	1547a783          	lw	a5,340(a5) # 21154 <mtimer_interval>
    1d04:	41f7d713          	srai	a4,a5,0x1f
    1d08:	00c78533          	add	a0,a5,a2
    1d0c:	00f537b3          	sltu	a5,a0,a5
    1d10:	00d70733          	add	a4,a4,a3
    1d14:	00e786b3          	add	a3,a5,a4
    1d18:	00a5ac23          	sw	a0,24(a1)
    1d1c:	00d5ae23          	sw	a3,28(a1)
    1d20:	000217b7          	lui	a5,0x21
    1d24:	1507a783          	lw	a5,336(a5) # 21150 <timer_interrupt_hook>
    1d28:	fa078ce3          	beqz	a5,1ce0 <mhandler+0x2c>
    1d2c:	000780e7          	jalr	a5
    1d30:	fb1ff06f          	j	1ce0 <mhandler+0x2c>

00001d34 <set_gpio_string>:
    1d34:	000217b7          	lui	a5,0x21
    1d38:	0407a783          	lw	a5,64(a5) # 21040 <gpio>
    1d3c:	00a7a223          	sw	a0,4(a5)
    1d40:	00b7a423          	sw	a1,8(a5)
    1d44:	00008067          	ret

00001d48 <convert_char_seg7>:
    1d48:	fe050513          	addi	a0,a0,-32
    1d4c:	05a00793          	li	a5,90
    1d50:	14a7ee63          	bltu	a5,a0,1eac <convert_char_seg7+0x164>
    1d54:	00251513          	slli	a0,a0,0x2
    1d58:	000207b7          	lui	a5,0x20
    1d5c:	05878793          	addi	a5,a5,88 # 20058 <DATA_START+0x58>
    1d60:	00f50533          	add	a0,a0,a5
    1d64:	00052783          	lw	a5,0(a0)
    1d68:	00078067          	jr	a5
    1d6c:	03f00513          	li	a0,63
    1d70:	00008067          	ret
    1d74:	05b00513          	li	a0,91
    1d78:	00008067          	ret
    1d7c:	04f00513          	li	a0,79
    1d80:	00008067          	ret
    1d84:	06600513          	li	a0,102
    1d88:	00008067          	ret
    1d8c:	06d00513          	li	a0,109
    1d90:	00008067          	ret
    1d94:	07d00513          	li	a0,125
    1d98:	00008067          	ret
    1d9c:	02700513          	li	a0,39
    1da0:	00008067          	ret
    1da4:	07f00513          	li	a0,127
    1da8:	00008067          	ret
    1dac:	06f00513          	li	a0,111
    1db0:	00008067          	ret
    1db4:	07700513          	li	a0,119
    1db8:	00008067          	ret
    1dbc:	07c00513          	li	a0,124
    1dc0:	00008067          	ret
    1dc4:	03900513          	li	a0,57
    1dc8:	00008067          	ret
    1dcc:	05e00513          	li	a0,94
    1dd0:	00008067          	ret
    1dd4:	07900513          	li	a0,121
    1dd8:	00008067          	ret
    1ddc:	07100513          	li	a0,113
    1de0:	00008067          	ret
    1de4:	03d00513          	li	a0,61
    1de8:	00008067          	ret
    1dec:	07600513          	li	a0,118
    1df0:	00008067          	ret
    1df4:	00400513          	li	a0,4
    1df8:	00008067          	ret
    1dfc:	00e00513          	li	a0,14
    1e00:	00008067          	ret
    1e04:	07800513          	li	a0,120
    1e08:	00008067          	ret
    1e0c:	03800513          	li	a0,56
    1e10:	00008067          	ret
    1e14:	03700513          	li	a0,55
    1e18:	00008067          	ret
    1e1c:	05400513          	li	a0,84
    1e20:	00008067          	ret
    1e24:	05c00513          	li	a0,92
    1e28:	00008067          	ret
    1e2c:	07300513          	li	a0,115
    1e30:	00008067          	ret
    1e34:	06700513          	li	a0,103
    1e38:	00008067          	ret
    1e3c:	05000513          	li	a0,80
    1e40:	00008067          	ret
    1e44:	0ed00513          	li	a0,237
    1e48:	00008067          	ret
    1e4c:	07000513          	li	a0,112
    1e50:	00008067          	ret
    1e54:	03e00513          	li	a0,62
    1e58:	00008067          	ret
    1e5c:	01c00513          	li	a0,28
    1e60:	00008067          	ret
    1e64:	0be00513          	li	a0,190
    1e68:	00008067          	ret
    1e6c:	0f600513          	li	a0,246
    1e70:	00008067          	ret
    1e74:	06e00513          	li	a0,110
    1e78:	00008067          	ret
    1e7c:	0db00513          	li	a0,219
    1e80:	00008067          	ret
    1e84:	04000513          	li	a0,64
    1e88:	00008067          	ret
    1e8c:	00800513          	li	a0,8
    1e90:	00008067          	ret
    1e94:	08000513          	li	a0,128
    1e98:	00008067          	ret
    1e9c:	00000513          	li	a0,0
    1ea0:	00008067          	ret
    1ea4:	04800513          	li	a0,72
    1ea8:	00008067          	ret
    1eac:	00000513          	li	a0,0
    1eb0:	00008067          	ret
    1eb4:	00600513          	li	a0,6
    1eb8:	00008067          	ret

00001ebc <convert_hex_char>:
    1ebc:	00f57513          	andi	a0,a0,15
    1ec0:	00900793          	li	a5,9
    1ec4:	00a7c663          	blt	a5,a0,1ed0 <convert_hex_char+0x14>
    1ec8:	03050513          	addi	a0,a0,48
    1ecc:	00008067          	ret
    1ed0:	05750513          	addi	a0,a0,87
    1ed4:	00008067          	ret

00001ed8 <convert_unsigned_hex_str>:
    1ed8:	ff010113          	addi	sp,sp,-16
    1edc:	00112623          	sw	ra,12(sp)
    1ee0:	00812423          	sw	s0,8(sp)
    1ee4:	00912223          	sw	s1,4(sp)
    1ee8:	01212023          	sw	s2,0(sp)
    1eec:	00050493          	mv	s1,a0
    1ef0:	00c55513          	srli	a0,a0,0xc
    1ef4:	fc9ff0ef          	jal	1ebc <convert_hex_char>
    1ef8:	00050413          	mv	s0,a0
    1efc:	0084d513          	srli	a0,s1,0x8
    1f00:	fbdff0ef          	jal	1ebc <convert_hex_char>
    1f04:	01841413          	slli	s0,s0,0x18
    1f08:	01051513          	slli	a0,a0,0x10
    1f0c:	00a46433          	or	s0,s0,a0
    1f10:	0044d513          	srli	a0,s1,0x4
    1f14:	fa9ff0ef          	jal	1ebc <convert_hex_char>
    1f18:	00050913          	mv	s2,a0
    1f1c:	00048513          	mv	a0,s1
    1f20:	f9dff0ef          	jal	1ebc <convert_hex_char>
    1f24:	00891913          	slli	s2,s2,0x8
    1f28:	00a46533          	or	a0,s0,a0
    1f2c:	00a96533          	or	a0,s2,a0
    1f30:	00c12083          	lw	ra,12(sp)
    1f34:	00812403          	lw	s0,8(sp)
    1f38:	00412483          	lw	s1,4(sp)
    1f3c:	00012903          	lw	s2,0(sp)
    1f40:	01010113          	addi	sp,sp,16
    1f44:	00008067          	ret

00001f48 <set_gpio_error>:
    1f48:	fe010113          	addi	sp,sp,-32
    1f4c:	00112e23          	sw	ra,28(sp)
    1f50:	00812c23          	sw	s0,24(sp)
    1f54:	00912a23          	sw	s1,20(sp)
    1f58:	01212823          	sw	s2,16(sp)
    1f5c:	01312623          	sw	s3,12(sp)
    1f60:	01412423          	sw	s4,8(sp)
    1f64:	01512223          	sw	s5,4(sp)
    1f68:	01612023          	sw	s6,0(sp)
    1f6c:	f6dff0ef          	jal	1ed8 <convert_unsigned_hex_str>
    1f70:	00050a93          	mv	s5,a0
    1f74:	06500513          	li	a0,101
    1f78:	dd1ff0ef          	jal	1d48 <convert_char_seg7>
    1f7c:	00050493          	mv	s1,a0
    1f80:	07200513          	li	a0,114
    1f84:	dc5ff0ef          	jal	1d48 <convert_char_seg7>
    1f88:	00050413          	mv	s0,a0
    1f8c:	01849493          	slli	s1,s1,0x18
    1f90:	01051793          	slli	a5,a0,0x10
    1f94:	00f4e4b3          	or	s1,s1,a5
    1f98:	02d00513          	li	a0,45
    1f9c:	dadff0ef          	jal	1d48 <convert_char_seg7>
    1fa0:	00050b13          	mv	s6,a0
    1fa4:	018ad513          	srli	a0,s5,0x18
    1fa8:	da1ff0ef          	jal	1d48 <convert_char_seg7>
    1fac:	00050a13          	mv	s4,a0
    1fb0:	010ad513          	srli	a0,s5,0x10
    1fb4:	0ff57513          	zext.b	a0,a0
    1fb8:	d91ff0ef          	jal	1d48 <convert_char_seg7>
    1fbc:	00050993          	mv	s3,a0
    1fc0:	008ad513          	srli	a0,s5,0x8
    1fc4:	0ff57513          	zext.b	a0,a0
    1fc8:	d81ff0ef          	jal	1d48 <convert_char_seg7>
    1fcc:	00050913          	mv	s2,a0
    1fd0:	0ffaf513          	zext.b	a0,s5
    1fd4:	d75ff0ef          	jal	1d48 <convert_char_seg7>
    1fd8:	00841793          	slli	a5,s0,0x8
    1fdc:	0097e7b3          	or	a5,a5,s1
    1fe0:	0167e7b3          	or	a5,a5,s6
    1fe4:	008a5693          	srli	a3,s4,0x8
    1fe8:	018a1a13          	slli	s4,s4,0x18
    1fec:	01456733          	or	a4,a0,s4
    1ff0:	00d7e7b3          	or	a5,a5,a3
    1ff4:	0109d693          	srli	a3,s3,0x10
    1ff8:	01099993          	slli	s3,s3,0x10
    1ffc:	01376733          	or	a4,a4,s3
    2000:	00d7e7b3          	or	a5,a5,a3
    2004:	01895593          	srli	a1,s2,0x18
    2008:	00891513          	slli	a0,s2,0x8
    200c:	00a76533          	or	a0,a4,a0
    2010:	00b7e5b3          	or	a1,a5,a1
    2014:	d21ff0ef          	jal	1d34 <set_gpio_string>
    2018:	01c12083          	lw	ra,28(sp)
    201c:	01812403          	lw	s0,24(sp)
    2020:	01412483          	lw	s1,20(sp)
    2024:	01012903          	lw	s2,16(sp)
    2028:	00c12983          	lw	s3,12(sp)
    202c:	00812a03          	lw	s4,8(sp)
    2030:	00412a83          	lw	s5,4(sp)
    2034:	00012b03          	lw	s6,0(sp)
    2038:	02010113          	addi	sp,sp,32
    203c:	00008067          	ret

00002040 <enter_critical_section>:
    2040:	00021737          	lui	a4,0x21
    2044:	15872783          	lw	a5,344(a4) # 21158 <critical_section_depth>
    2048:	00178693          	addi	a3,a5,1
    204c:	14d72c23          	sw	a3,344(a4)
    2050:	00079c63          	bnez	a5,2068 <enter_critical_section+0x28>
    2054:	30002773          	csrr	a4,mstatus
    2058:	000217b7          	lui	a5,0x21
    205c:	14e7ae23          	sw	a4,348(a5) # 2115c <prv_mstatus>
    2060:	30047073          	csrci	mstatus,8
    2064:	00008067          	ret
    2068:	ff010113          	addi	sp,sp,-16
    206c:	00112623          	sw	ra,12(sp)
    2070:	00000513          	li	a0,0
    2074:	ed5ff0ef          	jal	1f48 <set_gpio_error>
    2078:	00c12083          	lw	ra,12(sp)
    207c:	01010113          	addi	sp,sp,16
    2080:	00008067          	ret

00002084 <leave_critical_section>:
    2084:	00021737          	lui	a4,0x21
    2088:	15872783          	lw	a5,344(a4) # 21158 <critical_section_depth>
    208c:	fff78793          	addi	a5,a5,-1
    2090:	14f72c23          	sw	a5,344(a4)
    2094:	00079a63          	bnez	a5,20a8 <leave_critical_section+0x24>
    2098:	000217b7          	lui	a5,0x21
    209c:	15c7a783          	lw	a5,348(a5) # 2115c <prv_mstatus>
    20a0:	30079073          	csrw	mstatus,a5
    20a4:	00008067          	ret
    20a8:	ff010113          	addi	sp,sp,-16
    20ac:	00112623          	sw	ra,12(sp)
    20b0:	00100513          	li	a0,1
    20b4:	e95ff0ef          	jal	1f48 <set_gpio_error>
    20b8:	00c12083          	lw	ra,12(sp)
    20bc:	01010113          	addi	sp,sp,16
    20c0:	00008067          	ret

000020c4 <_UARTBuf_putch>:
    20c4:	ff010113          	addi	sp,sp,-16
    20c8:	00112623          	sw	ra,12(sp)
    20cc:	00812423          	sw	s0,8(sp)
    20d0:	00912223          	sw	s1,4(sp)
    20d4:	01212023          	sw	s2,0(sp)
    20d8:	00050493          	mv	s1,a0
    20dc:	000217b7          	lui	a5,0x21
    20e0:	1607a683          	lw	a3,352(a5) # 21160 <UART_CHAN_ID>
    20e4:	00469793          	slli	a5,a3,0x4
    20e8:	40d787b3          	sub	a5,a5,a3
    20ec:	00279793          	slli	a5,a5,0x2
    20f0:	00021437          	lui	s0,0x21
    20f4:	05040413          	addi	s0,s0,80 # 21050 <UART_BUF_TX>
    20f8:	00f40433          	add	s0,s0,a5
    20fc:	00040713          	mv	a4,s0
    2100:	00174783          	lbu	a5,1(a4)
    2104:	fe079ee3          	bnez	a5,2100 <_UARTBuf_putch+0x3c>
    2108:	000217b7          	lui	a5,0x21
    210c:	00269693          	slli	a3,a3,0x2
    2110:	03878793          	addi	a5,a5,56 # 21038 <_uart>
    2114:	00d787b3          	add	a5,a5,a3
    2118:	0007a903          	lw	s2,0(a5)
    211c:	f25ff0ef          	jal	2040 <enter_critical_section>
    2120:	00048593          	mv	a1,s1
    2124:	00040513          	mv	a0,s0
    2128:	f78ff0ef          	jal	18a0 <UARTBuf_write>
    212c:	00492783          	lw	a5,4(s2)
    2130:	0017f793          	andi	a5,a5,1
    2134:	02078063          	beqz	a5,2154 <_UARTBuf_putch+0x90>
    2138:	f4dff0ef          	jal	2084 <leave_critical_section>
    213c:	00c12083          	lw	ra,12(sp)
    2140:	00812403          	lw	s0,8(sp)
    2144:	00412483          	lw	s1,4(sp)
    2148:	00012903          	lw	s2,0(sp)
    214c:	01010113          	addi	sp,sp,16
    2150:	00008067          	ret
    2154:	00040513          	mv	a0,s0
    2158:	f98ff0ef          	jal	18f0 <UARTBuf_read>
    215c:	00a90023          	sb	a0,0(s2)
    2160:	fd9ff06f          	j	2138 <_UARTBuf_putch+0x74>

00002164 <_UARTBuf_getch>:
    2164:	ff010113          	addi	sp,sp,-16
    2168:	00112623          	sw	ra,12(sp)
    216c:	00812423          	sw	s0,8(sp)
    2170:	000217b7          	lui	a5,0x21
    2174:	1607a703          	lw	a4,352(a5) # 21160 <UART_CHAN_ID>
    2178:	00471793          	slli	a5,a4,0x4
    217c:	40e787b3          	sub	a5,a5,a4
    2180:	00279793          	slli	a5,a5,0x2
    2184:	00021437          	lui	s0,0x21
    2188:	0c840413          	addi	s0,s0,200 # 210c8 <UART_BUF_RX>
    218c:	00f40433          	add	s0,s0,a5
    2190:	00471793          	slli	a5,a4,0x4
    2194:	40e787b3          	sub	a5,a5,a4
    2198:	00279793          	slli	a5,a5,0x2
    219c:	00021737          	lui	a4,0x21
    21a0:	05070713          	addi	a4,a4,80 # 21050 <UART_BUF_TX>
    21a4:	00f70733          	add	a4,a4,a5
    21a8:	07874783          	lbu	a5,120(a4)
    21ac:	fe078ee3          	beqz	a5,21a8 <_UARTBuf_getch+0x44>
    21b0:	e91ff0ef          	jal	2040 <enter_critical_section>
    21b4:	00040513          	mv	a0,s0
    21b8:	f38ff0ef          	jal	18f0 <UARTBuf_read>
    21bc:	00050413          	mv	s0,a0
    21c0:	ec5ff0ef          	jal	2084 <leave_critical_section>
    21c4:	00040513          	mv	a0,s0
    21c8:	00c12083          	lw	ra,12(sp)
    21cc:	00812403          	lw	s0,8(sp)
    21d0:	01010113          	addi	sp,sp,16
    21d4:	00008067          	ret

000021d8 <UARTBuf_consume_new_line>:
    21d8:	ff010113          	addi	sp,sp,-16
    21dc:	00112623          	sw	ra,12(sp)
    21e0:	00812423          	sw	s0,8(sp)
    21e4:	00050413          	mv	s0,a0
    21e8:	e59ff0ef          	jal	2040 <enter_critical_section>
    21ec:	00c42783          	lw	a5,12(s0)
    21f0:	fff78793          	addi	a5,a5,-1
    21f4:	00f42623          	sw	a5,12(s0)
    21f8:	e8dff0ef          	jal	2084 <leave_critical_section>
    21fc:	00c12083          	lw	ra,12(sp)
    2200:	00812403          	lw	s0,8(sp)
    2204:	01010113          	addi	sp,sp,16
    2208:	00008067          	ret

0000220c <set_mtimer_interval>:
    220c:	00151793          	slli	a5,a0,0x1
    2210:	00a787b3          	add	a5,a5,a0
    2214:	00679713          	slli	a4,a5,0x6
    2218:	00e787b3          	add	a5,a5,a4
    221c:	00279793          	slli	a5,a5,0x2
    2220:	00a787b3          	add	a5,a5,a0
    2224:	00279793          	slli	a5,a5,0x2
    2228:	00a78533          	add	a0,a5,a0
    222c:	000217b7          	lui	a5,0x21
    2230:	14a7aa23          	sw	a0,340(a5) # 21154 <mtimer_interval>
    2234:	00008067          	ret

00002238 <mtime_to_microsec>:
    2238:	ff010113          	addi	sp,sp,-16
    223c:	00112623          	sw	ra,12(sp)
    2240:	03200593          	li	a1,50
    2244:	00451513          	slli	a0,a0,0x4
    2248:	515000ef          	jal	2f5c <__hidden___udivsi3>
    224c:	00c12083          	lw	ra,12(sp)
    2250:	01010113          	addi	sp,sp,16
    2254:	00008067          	ret

00002258 <enable_timer_interrupt>:
    2258:	08000793          	li	a5,128
    225c:	3047a073          	csrs	mie,a5
    2260:	30046073          	csrsi	mstatus,8
    2264:	000027b7          	lui	a5,0x2
    2268:	30c78793          	addi	a5,a5,780 # 230c <_mhandler>
    226c:	30579073          	csrw	mtvec,a5
    2270:	00008067          	ret

00002274 <start_profiler>:
    2274:	c0002773          	rdcycle	a4
    2278:	000217b7          	lui	a5,0x21
    227c:	05078793          	addi	a5,a5,80 # 21050 <UART_BUF_TX>
    2280:	0ee7a823          	sw	a4,240(a5)
    2284:	c0202773          	rdinstret	a4
    2288:	0ee7ac23          	sw	a4,248(a5)
    228c:	c0102773          	rdtime	a4
    2290:	0ee7aa23          	sw	a4,244(a5)
    2294:	00008067          	ret

00002298 <end_profiler>:
    2298:	ff010113          	addi	sp,sp,-16
    229c:	00112623          	sw	ra,12(sp)
    22a0:	00812423          	sw	s0,8(sp)
    22a4:	00912223          	sw	s1,4(sp)
    22a8:	01212023          	sw	s2,0(sp)
    22ac:	c00024f3          	rdcycle	s1
    22b0:	c0202973          	rdinstret	s2
    22b4:	c0102573          	rdtime	a0
    22b8:	00021437          	lui	s0,0x21
    22bc:	05040413          	addi	s0,s0,80 # 21050 <UART_BUF_TX>
    22c0:	0f442783          	lw	a5,244(s0)
    22c4:	40f50533          	sub	a0,a0,a5
    22c8:	03200593          	li	a1,50
    22cc:	00451513          	slli	a0,a0,0x4
    22d0:	48d000ef          	jal	2f5c <__hidden___udivsi3>
    22d4:	00050693          	mv	a3,a0
    22d8:	0f842603          	lw	a2,248(s0)
    22dc:	0f042583          	lw	a1,240(s0)
    22e0:	40c90633          	sub	a2,s2,a2
    22e4:	40b485b3          	sub	a1,s1,a1
    22e8:	00020537          	lui	a0,0x20
    22ec:	31850513          	addi	a0,a0,792 # 20318 <__clz_tab+0x154>
    22f0:	990ff0ef          	jal	1480 <printf>
    22f4:	00c12083          	lw	ra,12(sp)
    22f8:	00812403          	lw	s0,8(sp)
    22fc:	00412483          	lw	s1,4(sp)
    2300:	00012903          	lw	s2,0(sp)
    2304:	01010113          	addi	sp,sp,16
    2308:	00008067          	ret

0000230c <_mhandler>:
    230c:	fc010113          	addi	sp,sp,-64
    2310:	00112023          	sw	ra,0(sp)
    2314:	00512223          	sw	t0,4(sp)
    2318:	00612423          	sw	t1,8(sp)
    231c:	00712623          	sw	t2,12(sp)
    2320:	00a12823          	sw	a0,16(sp)
    2324:	00b12a23          	sw	a1,20(sp)
    2328:	00c12c23          	sw	a2,24(sp)
    232c:	00d12e23          	sw	a3,28(sp)
    2330:	02e12023          	sw	a4,32(sp)
    2334:	02f12223          	sw	a5,36(sp)
    2338:	03012423          	sw	a6,40(sp)
    233c:	03112623          	sw	a7,44(sp)
    2340:	03c12823          	sw	t3,48(sp)
    2344:	03d12a23          	sw	t4,52(sp)
    2348:	03e12c23          	sw	t5,56(sp)
    234c:	03f12e23          	sw	t6,60(sp)
    2350:	965ff0ef          	jal	1cb4 <mhandler>
    2354:	00012083          	lw	ra,0(sp)
    2358:	00412283          	lw	t0,4(sp)
    235c:	00812303          	lw	t1,8(sp)
    2360:	00c12383          	lw	t2,12(sp)
    2364:	01012503          	lw	a0,16(sp)
    2368:	01412583          	lw	a1,20(sp)
    236c:	01812603          	lw	a2,24(sp)
    2370:	01c12683          	lw	a3,28(sp)
    2374:	02012703          	lw	a4,32(sp)
    2378:	02412783          	lw	a5,36(sp)
    237c:	02812803          	lw	a6,40(sp)
    2380:	02c12883          	lw	a7,44(sp)
    2384:	03012e03          	lw	t3,48(sp)
    2388:	03412e83          	lw	t4,52(sp)
    238c:	03812f03          	lw	t5,56(sp)
    2390:	03c12f83          	lw	t6,60(sp)
    2394:	04010113          	addi	sp,sp,64
    2398:	30200073          	mret

0000239c <__divdi3>:
    239c:	fd010113          	addi	sp,sp,-48
    23a0:	02912223          	sw	s1,36(sp)
    23a4:	01412c23          	sw	s4,24(sp)
    23a8:	02112623          	sw	ra,44(sp)
    23ac:	02812423          	sw	s0,40(sp)
    23b0:	03212023          	sw	s2,32(sp)
    23b4:	01312e23          	sw	s3,28(sp)
    23b8:	01512a23          	sw	s5,20(sp)
    23bc:	01612823          	sw	s6,16(sp)
    23c0:	01712623          	sw	s7,12(sp)
    23c4:	01812423          	sw	s8,8(sp)
    23c8:	01912223          	sw	s9,4(sp)
    23cc:	01a12023          	sw	s10,0(sp)
    23d0:	00050a13          	mv	s4,a0
    23d4:	00000493          	li	s1,0
    23d8:	0005dc63          	bgez	a1,23f0 <__divdi3+0x54>
    23dc:	00a037b3          	snez	a5,a0
    23e0:	40b005b3          	neg	a1,a1
    23e4:	40f585b3          	sub	a1,a1,a5
    23e8:	40a00a33          	neg	s4,a0
    23ec:	fff00493          	li	s1,-1
    23f0:	0006dc63          	bgez	a3,2408 <__divdi3+0x6c>
    23f4:	00c037b3          	snez	a5,a2
    23f8:	40d006b3          	neg	a3,a3
    23fc:	fff4c493          	not	s1,s1
    2400:	40f686b3          	sub	a3,a3,a5
    2404:	40c00633          	neg	a2,a2
    2408:	00060a93          	mv	s5,a2
    240c:	000a0913          	mv	s2,s4
    2410:	00058993          	mv	s3,a1
    2414:	38069a63          	bnez	a3,27a8 <__divdi3+0x40c>
    2418:	000207b7          	lui	a5,0x20
    241c:	1c478793          	addi	a5,a5,452 # 201c4 <__clz_tab>
    2420:	12c5f663          	bgeu	a1,a2,254c <__divdi3+0x1b0>
    2424:	00010737          	lui	a4,0x10
    2428:	10e67863          	bgeu	a2,a4,2538 <__divdi3+0x19c>
    242c:	10063713          	sltiu	a4,a2,256
    2430:	00173713          	seqz	a4,a4
    2434:	00371713          	slli	a4,a4,0x3
    2438:	00e656b3          	srl	a3,a2,a4
    243c:	00d787b3          	add	a5,a5,a3
    2440:	0007c783          	lbu	a5,0(a5)
    2444:	02000693          	li	a3,32
    2448:	00e787b3          	add	a5,a5,a4
    244c:	40f68733          	sub	a4,a3,a5
    2450:	00f68c63          	beq	a3,a5,2468 <__divdi3+0xcc>
    2454:	00e599b3          	sll	s3,a1,a4
    2458:	00fa57b3          	srl	a5,s4,a5
    245c:	00e61ab3          	sll	s5,a2,a4
    2460:	0137e9b3          	or	s3,a5,s3
    2464:	00ea1933          	sll	s2,s4,a4
    2468:	010adb13          	srli	s6,s5,0x10
    246c:	000b0593          	mv	a1,s6
    2470:	00098513          	mv	a0,s3
    2474:	010a9b93          	slli	s7,s5,0x10
    2478:	2e5000ef          	jal	2f5c <__hidden___udivsi3>
    247c:	010bdb93          	srli	s7,s7,0x10
    2480:	00050593          	mv	a1,a0
    2484:	00050a13          	mv	s4,a0
    2488:	000b8513          	mv	a0,s7
    248c:	2a5000ef          	jal	2f30 <__mulsi3>
    2490:	00050413          	mv	s0,a0
    2494:	000b0593          	mv	a1,s6
    2498:	00098513          	mv	a0,s3
    249c:	309000ef          	jal	2fa4 <__umodsi3>
    24a0:	01051513          	slli	a0,a0,0x10
    24a4:	01095713          	srli	a4,s2,0x10
    24a8:	00a76733          	or	a4,a4,a0
    24ac:	000a0993          	mv	s3,s4
    24b0:	00877e63          	bgeu	a4,s0,24cc <__divdi3+0x130>
    24b4:	00ea8733          	add	a4,s5,a4
    24b8:	fffa0993          	addi	s3,s4,-1
    24bc:	01576863          	bltu	a4,s5,24cc <__divdi3+0x130>
    24c0:	00877663          	bgeu	a4,s0,24cc <__divdi3+0x130>
    24c4:	ffea0993          	addi	s3,s4,-2
    24c8:	01570733          	add	a4,a4,s5
    24cc:	40870433          	sub	s0,a4,s0
    24d0:	000b0593          	mv	a1,s6
    24d4:	00040513          	mv	a0,s0
    24d8:	285000ef          	jal	2f5c <__hidden___udivsi3>
    24dc:	00050593          	mv	a1,a0
    24e0:	00050a13          	mv	s4,a0
    24e4:	000b8513          	mv	a0,s7
    24e8:	249000ef          	jal	2f30 <__mulsi3>
    24ec:	00050b93          	mv	s7,a0
    24f0:	000b0593          	mv	a1,s6
    24f4:	00040513          	mv	a0,s0
    24f8:	2ad000ef          	jal	2fa4 <__umodsi3>
    24fc:	01091913          	slli	s2,s2,0x10
    2500:	01051513          	slli	a0,a0,0x10
    2504:	01095913          	srli	s2,s2,0x10
    2508:	00a96933          	or	s2,s2,a0
    250c:	000a0713          	mv	a4,s4
    2510:	01797c63          	bgeu	s2,s7,2528 <__divdi3+0x18c>
    2514:	012a8933          	add	s2,s5,s2
    2518:	fffa0713          	addi	a4,s4,-1
    251c:	01596663          	bltu	s2,s5,2528 <__divdi3+0x18c>
    2520:	01797463          	bgeu	s2,s7,2528 <__divdi3+0x18c>
    2524:	ffea0713          	addi	a4,s4,-2
    2528:	01099793          	slli	a5,s3,0x10
    252c:	00e7e7b3          	or	a5,a5,a4
    2530:	00000993          	li	s3,0
    2534:	1200006f          	j	2654 <__divdi3+0x2b8>
    2538:	010006b7          	lui	a3,0x1000
    253c:	01800713          	li	a4,24
    2540:	eed67ce3          	bgeu	a2,a3,2438 <__divdi3+0x9c>
    2544:	01000713          	li	a4,16
    2548:	ef1ff06f          	j	2438 <__divdi3+0x9c>
    254c:	00000713          	li	a4,0
    2550:	00060c63          	beqz	a2,2568 <__divdi3+0x1cc>
    2554:	00010737          	lui	a4,0x10
    2558:	14e67863          	bgeu	a2,a4,26a8 <__divdi3+0x30c>
    255c:	10063713          	sltiu	a4,a2,256
    2560:	00173713          	seqz	a4,a4
    2564:	00371713          	slli	a4,a4,0x3
    2568:	00e656b3          	srl	a3,a2,a4
    256c:	00d787b3          	add	a5,a5,a3
    2570:	0007c783          	lbu	a5,0(a5)
    2574:	02000693          	li	a3,32
    2578:	00e787b3          	add	a5,a5,a4
    257c:	40f68733          	sub	a4,a3,a5
    2580:	12f69e63          	bne	a3,a5,26bc <__divdi3+0x320>
    2584:	40c58a33          	sub	s4,a1,a2
    2588:	00100993          	li	s3,1
    258c:	010adb13          	srli	s6,s5,0x10
    2590:	000b0593          	mv	a1,s6
    2594:	000a0513          	mv	a0,s4
    2598:	010a9b93          	slli	s7,s5,0x10
    259c:	1c1000ef          	jal	2f5c <__hidden___udivsi3>
    25a0:	010bdb93          	srli	s7,s7,0x10
    25a4:	00050593          	mv	a1,a0
    25a8:	00050c93          	mv	s9,a0
    25ac:	000b8513          	mv	a0,s7
    25b0:	181000ef          	jal	2f30 <__mulsi3>
    25b4:	00050c13          	mv	s8,a0
    25b8:	000b0593          	mv	a1,s6
    25bc:	000a0513          	mv	a0,s4
    25c0:	1e5000ef          	jal	2fa4 <__umodsi3>
    25c4:	01051513          	slli	a0,a0,0x10
    25c8:	01095713          	srli	a4,s2,0x10
    25cc:	00a76733          	or	a4,a4,a0
    25d0:	000c8a13          	mv	s4,s9
    25d4:	01877e63          	bgeu	a4,s8,25f0 <__divdi3+0x254>
    25d8:	00ea8733          	add	a4,s5,a4
    25dc:	fffc8a13          	addi	s4,s9,-1
    25e0:	01576863          	bltu	a4,s5,25f0 <__divdi3+0x254>
    25e4:	01877663          	bgeu	a4,s8,25f0 <__divdi3+0x254>
    25e8:	ffec8a13          	addi	s4,s9,-2
    25ec:	01570733          	add	a4,a4,s5
    25f0:	41870433          	sub	s0,a4,s8
    25f4:	000b0593          	mv	a1,s6
    25f8:	00040513          	mv	a0,s0
    25fc:	161000ef          	jal	2f5c <__hidden___udivsi3>
    2600:	00050593          	mv	a1,a0
    2604:	00050c13          	mv	s8,a0
    2608:	000b8513          	mv	a0,s7
    260c:	125000ef          	jal	2f30 <__mulsi3>
    2610:	00050b93          	mv	s7,a0
    2614:	000b0593          	mv	a1,s6
    2618:	00040513          	mv	a0,s0
    261c:	189000ef          	jal	2fa4 <__umodsi3>
    2620:	01091913          	slli	s2,s2,0x10
    2624:	01051513          	slli	a0,a0,0x10
    2628:	01095913          	srli	s2,s2,0x10
    262c:	00a96933          	or	s2,s2,a0
    2630:	000c0713          	mv	a4,s8
    2634:	01797c63          	bgeu	s2,s7,264c <__divdi3+0x2b0>
    2638:	012a8933          	add	s2,s5,s2
    263c:	fffc0713          	addi	a4,s8,-1
    2640:	01596663          	bltu	s2,s5,264c <__divdi3+0x2b0>
    2644:	01797463          	bgeu	s2,s7,264c <__divdi3+0x2b0>
    2648:	ffec0713          	addi	a4,s8,-2
    264c:	010a1793          	slli	a5,s4,0x10
    2650:	00e7e7b3          	or	a5,a5,a4
    2654:	00078513          	mv	a0,a5
    2658:	00098593          	mv	a1,s3
    265c:	00048a63          	beqz	s1,2670 <__divdi3+0x2d4>
    2660:	00f037b3          	snez	a5,a5
    2664:	413005b3          	neg	a1,s3
    2668:	40f585b3          	sub	a1,a1,a5
    266c:	40a00533          	neg	a0,a0
    2670:	02c12083          	lw	ra,44(sp)
    2674:	02812403          	lw	s0,40(sp)
    2678:	02412483          	lw	s1,36(sp)
    267c:	02012903          	lw	s2,32(sp)
    2680:	01c12983          	lw	s3,28(sp)
    2684:	01812a03          	lw	s4,24(sp)
    2688:	01412a83          	lw	s5,20(sp)
    268c:	01012b03          	lw	s6,16(sp)
    2690:	00c12b83          	lw	s7,12(sp)
    2694:	00812c03          	lw	s8,8(sp)
    2698:	00412c83          	lw	s9,4(sp)
    269c:	00012d03          	lw	s10,0(sp)
    26a0:	03010113          	addi	sp,sp,48
    26a4:	00008067          	ret
    26a8:	010006b7          	lui	a3,0x1000
    26ac:	01800713          	li	a4,24
    26b0:	ead67ce3          	bgeu	a2,a3,2568 <__divdi3+0x1cc>
    26b4:	01000713          	li	a4,16
    26b8:	eb1ff06f          	j	2568 <__divdi3+0x1cc>
    26bc:	00e61ab3          	sll	s5,a2,a4
    26c0:	00f5d9b3          	srl	s3,a1,a5
    26c4:	010adb93          	srli	s7,s5,0x10
    26c8:	00e595b3          	sll	a1,a1,a4
    26cc:	00fa57b3          	srl	a5,s4,a5
    26d0:	00b7eb33          	or	s6,a5,a1
    26d4:	00ea1933          	sll	s2,s4,a4
    26d8:	000b8593          	mv	a1,s7
    26dc:	00098513          	mv	a0,s3
    26e0:	010a9a13          	slli	s4,s5,0x10
    26e4:	079000ef          	jal	2f5c <__hidden___udivsi3>
    26e8:	010a5a13          	srli	s4,s4,0x10
    26ec:	00050593          	mv	a1,a0
    26f0:	00050c13          	mv	s8,a0
    26f4:	000a0513          	mv	a0,s4
    26f8:	039000ef          	jal	2f30 <__mulsi3>
    26fc:	00050413          	mv	s0,a0
    2700:	000b8593          	mv	a1,s7
    2704:	00098513          	mv	a0,s3
    2708:	09d000ef          	jal	2fa4 <__umodsi3>
    270c:	01051513          	slli	a0,a0,0x10
    2710:	010b5713          	srli	a4,s6,0x10
    2714:	00a76733          	or	a4,a4,a0
    2718:	000c0993          	mv	s3,s8
    271c:	00877e63          	bgeu	a4,s0,2738 <__divdi3+0x39c>
    2720:	00ea8733          	add	a4,s5,a4
    2724:	fffc0993          	addi	s3,s8,-1
    2728:	01576863          	bltu	a4,s5,2738 <__divdi3+0x39c>
    272c:	00877663          	bgeu	a4,s0,2738 <__divdi3+0x39c>
    2730:	ffec0993          	addi	s3,s8,-2
    2734:	01570733          	add	a4,a4,s5
    2738:	40870433          	sub	s0,a4,s0
    273c:	000b8593          	mv	a1,s7
    2740:	00040513          	mv	a0,s0
    2744:	019000ef          	jal	2f5c <__hidden___udivsi3>
    2748:	00050593          	mv	a1,a0
    274c:	00050c13          	mv	s8,a0
    2750:	000a0513          	mv	a0,s4
    2754:	7dc000ef          	jal	2f30 <__mulsi3>
    2758:	00050a13          	mv	s4,a0
    275c:	000b8593          	mv	a1,s7
    2760:	00040513          	mv	a0,s0
    2764:	041000ef          	jal	2fa4 <__umodsi3>
    2768:	010b1793          	slli	a5,s6,0x10
    276c:	01051513          	slli	a0,a0,0x10
    2770:	0107d793          	srli	a5,a5,0x10
    2774:	00a7e7b3          	or	a5,a5,a0
    2778:	000c0713          	mv	a4,s8
    277c:	0147fe63          	bgeu	a5,s4,2798 <__divdi3+0x3fc>
    2780:	00fa87b3          	add	a5,s5,a5
    2784:	fffc0713          	addi	a4,s8,-1
    2788:	0157e863          	bltu	a5,s5,2798 <__divdi3+0x3fc>
    278c:	0147f663          	bgeu	a5,s4,2798 <__divdi3+0x3fc>
    2790:	ffec0713          	addi	a4,s8,-2
    2794:	015787b3          	add	a5,a5,s5
    2798:	01099993          	slli	s3,s3,0x10
    279c:	41478a33          	sub	s4,a5,s4
    27a0:	00e9e9b3          	or	s3,s3,a4
    27a4:	de9ff06f          	j	258c <__divdi3+0x1f0>
    27a8:	1ed5ec63          	bltu	a1,a3,29a0 <__divdi3+0x604>
    27ac:	000107b7          	lui	a5,0x10
    27b0:	04f6f463          	bgeu	a3,a5,27f8 <__divdi3+0x45c>
    27b4:	1006b713          	sltiu	a4,a3,256
    27b8:	00173713          	seqz	a4,a4
    27bc:	00371713          	slli	a4,a4,0x3
    27c0:	000207b7          	lui	a5,0x20
    27c4:	00e6d533          	srl	a0,a3,a4
    27c8:	1c478793          	addi	a5,a5,452 # 201c4 <__clz_tab>
    27cc:	00a787b3          	add	a5,a5,a0
    27d0:	0007c803          	lbu	a6,0(a5)
    27d4:	02000793          	li	a5,32
    27d8:	00e80833          	add	a6,a6,a4
    27dc:	410789b3          	sub	s3,a5,a6
    27e0:	03079663          	bne	a5,a6,280c <__divdi3+0x470>
    27e4:	00100793          	li	a5,1
    27e8:	e6b6e6e3          	bltu	a3,a1,2654 <__divdi3+0x2b8>
    27ec:	00ca37b3          	sltu	a5,s4,a2
    27f0:	0017b793          	seqz	a5,a5
    27f4:	e61ff06f          	j	2654 <__divdi3+0x2b8>
    27f8:	010007b7          	lui	a5,0x1000
    27fc:	01800713          	li	a4,24
    2800:	fcf6f0e3          	bgeu	a3,a5,27c0 <__divdi3+0x424>
    2804:	01000713          	li	a4,16
    2808:	fb9ff06f          	j	27c0 <__divdi3+0x424>
    280c:	013696b3          	sll	a3,a3,s3
    2810:	01065cb3          	srl	s9,a2,a6
    2814:	00dcecb3          	or	s9,s9,a3
    2818:	0105d933          	srl	s2,a1,a6
    281c:	010cdb93          	srli	s7,s9,0x10
    2820:	010a5833          	srl	a6,s4,a6
    2824:	013595b3          	sll	a1,a1,s3
    2828:	00b86ab3          	or	s5,a6,a1
    282c:	00090513          	mv	a0,s2
    2830:	000b8593          	mv	a1,s7
    2834:	010c9c13          	slli	s8,s9,0x10
    2838:	01361433          	sll	s0,a2,s3
    283c:	010c5c13          	srli	s8,s8,0x10
    2840:	71c000ef          	jal	2f5c <__hidden___udivsi3>
    2844:	00050593          	mv	a1,a0
    2848:	00050d13          	mv	s10,a0
    284c:	000c0513          	mv	a0,s8
    2850:	6e0000ef          	jal	2f30 <__mulsi3>
    2854:	00050b13          	mv	s6,a0
    2858:	000b8593          	mv	a1,s7
    285c:	00090513          	mv	a0,s2
    2860:	744000ef          	jal	2fa4 <__umodsi3>
    2864:	01051513          	slli	a0,a0,0x10
    2868:	010ad693          	srli	a3,s5,0x10
    286c:	00a6e6b3          	or	a3,a3,a0
    2870:	000d0913          	mv	s2,s10
    2874:	0166fe63          	bgeu	a3,s6,2890 <__divdi3+0x4f4>
    2878:	00dc86b3          	add	a3,s9,a3
    287c:	fffd0913          	addi	s2,s10,-1
    2880:	0196e863          	bltu	a3,s9,2890 <__divdi3+0x4f4>
    2884:	0166f663          	bgeu	a3,s6,2890 <__divdi3+0x4f4>
    2888:	ffed0913          	addi	s2,s10,-2
    288c:	019686b3          	add	a3,a3,s9
    2890:	41668b33          	sub	s6,a3,s6
    2894:	000b8593          	mv	a1,s7
    2898:	000b0513          	mv	a0,s6
    289c:	6c0000ef          	jal	2f5c <__hidden___udivsi3>
    28a0:	00050593          	mv	a1,a0
    28a4:	00050d13          	mv	s10,a0
    28a8:	000c0513          	mv	a0,s8
    28ac:	684000ef          	jal	2f30 <__mulsi3>
    28b0:	00050c13          	mv	s8,a0
    28b4:	000b8593          	mv	a1,s7
    28b8:	000b0513          	mv	a0,s6
    28bc:	6e8000ef          	jal	2fa4 <__umodsi3>
    28c0:	010a9713          	slli	a4,s5,0x10
    28c4:	01051513          	slli	a0,a0,0x10
    28c8:	01075713          	srli	a4,a4,0x10
    28cc:	00a76733          	or	a4,a4,a0
    28d0:	000d0693          	mv	a3,s10
    28d4:	01877e63          	bgeu	a4,s8,28f0 <__divdi3+0x554>
    28d8:	00ec8733          	add	a4,s9,a4
    28dc:	fffd0693          	addi	a3,s10,-1
    28e0:	01976863          	bltu	a4,s9,28f0 <__divdi3+0x554>
    28e4:	01877663          	bgeu	a4,s8,28f0 <__divdi3+0x554>
    28e8:	ffed0693          	addi	a3,s10,-2
    28ec:	01970733          	add	a4,a4,s9
    28f0:	01091793          	slli	a5,s2,0x10
    28f4:	01069813          	slli	a6,a3,0x10
    28f8:	01041313          	slli	t1,s0,0x10
    28fc:	00d7e7b3          	or	a5,a5,a3
    2900:	01085813          	srli	a6,a6,0x10
    2904:	01035313          	srli	t1,t1,0x10
    2908:	41870733          	sub	a4,a4,s8
    290c:	0107de13          	srli	t3,a5,0x10
    2910:	01045413          	srli	s0,s0,0x10
    2914:	00080513          	mv	a0,a6
    2918:	00030593          	mv	a1,t1
    291c:	614000ef          	jal	2f30 <__mulsi3>
    2920:	00050893          	mv	a7,a0
    2924:	00040593          	mv	a1,s0
    2928:	00080513          	mv	a0,a6
    292c:	604000ef          	jal	2f30 <__mulsi3>
    2930:	00050813          	mv	a6,a0
    2934:	00030593          	mv	a1,t1
    2938:	000e0513          	mv	a0,t3
    293c:	5f4000ef          	jal	2f30 <__mulsi3>
    2940:	00050313          	mv	t1,a0
    2944:	00040593          	mv	a1,s0
    2948:	000e0513          	mv	a0,t3
    294c:	5e4000ef          	jal	2f30 <__mulsi3>
    2950:	0108d693          	srli	a3,a7,0x10
    2954:	00680833          	add	a6,a6,t1
    2958:	010686b3          	add	a3,a3,a6
    295c:	00050613          	mv	a2,a0
    2960:	0066f663          	bgeu	a3,t1,296c <__divdi3+0x5d0>
    2964:	000105b7          	lui	a1,0x10
    2968:	00b50633          	add	a2,a0,a1
    296c:	0106d593          	srli	a1,a3,0x10
    2970:	00c58633          	add	a2,a1,a2
    2974:	02c76263          	bltu	a4,a2,2998 <__divdi3+0x5fc>
    2978:	bac71ce3          	bne	a4,a2,2530 <__divdi3+0x194>
    297c:	01089893          	slli	a7,a7,0x10
    2980:	01069693          	slli	a3,a3,0x10
    2984:	0108d893          	srli	a7,a7,0x10
    2988:	013a1733          	sll	a4,s4,s3
    298c:	011686b3          	add	a3,a3,a7
    2990:	00000993          	li	s3,0
    2994:	ccd770e3          	bgeu	a4,a3,2654 <__divdi3+0x2b8>
    2998:	fff78793          	addi	a5,a5,-1 # ffffff <stack_bot+0xfdbfff>
    299c:	b95ff06f          	j	2530 <__divdi3+0x194>
    29a0:	00000993          	li	s3,0
    29a4:	00000793          	li	a5,0
    29a8:	cadff06f          	j	2654 <__divdi3+0x2b8>

000029ac <__moddi3>:
    29ac:	fc010113          	addi	sp,sp,-64
    29b0:	02912a23          	sw	s1,52(sp)
    29b4:	02112e23          	sw	ra,60(sp)
    29b8:	02812c23          	sw	s0,56(sp)
    29bc:	03212823          	sw	s2,48(sp)
    29c0:	03312623          	sw	s3,44(sp)
    29c4:	03412423          	sw	s4,40(sp)
    29c8:	03512223          	sw	s5,36(sp)
    29cc:	03612023          	sw	s6,32(sp)
    29d0:	01712e23          	sw	s7,28(sp)
    29d4:	01812c23          	sw	s8,24(sp)
    29d8:	01912a23          	sw	s9,20(sp)
    29dc:	01a12823          	sw	s10,16(sp)
    29e0:	01b12623          	sw	s11,12(sp)
    29e4:	00000493          	li	s1,0
    29e8:	0005dc63          	bgez	a1,2a00 <__moddi3+0x54>
    29ec:	00a037b3          	snez	a5,a0
    29f0:	40b005b3          	neg	a1,a1
    29f4:	40f585b3          	sub	a1,a1,a5
    29f8:	40a00533          	neg	a0,a0
    29fc:	fff00493          	li	s1,-1
    2a00:	0006da63          	bgez	a3,2a14 <__moddi3+0x68>
    2a04:	00c037b3          	snez	a5,a2
    2a08:	40d006b3          	neg	a3,a3
    2a0c:	40f686b3          	sub	a3,a3,a5
    2a10:	40c00633          	neg	a2,a2
    2a14:	00060a13          	mv	s4,a2
    2a18:	00050413          	mv	s0,a0
    2a1c:	00058b13          	mv	s6,a1
    2a20:	2c069e63          	bnez	a3,2cfc <__moddi3+0x350>
    2a24:	000207b7          	lui	a5,0x20
    2a28:	1c478793          	addi	a5,a5,452 # 201c4 <__clz_tab>
    2a2c:	14c5fa63          	bgeu	a1,a2,2b80 <__moddi3+0x1d4>
    2a30:	00010737          	lui	a4,0x10
    2a34:	12e67c63          	bgeu	a2,a4,2b6c <__moddi3+0x1c0>
    2a38:	10063713          	sltiu	a4,a2,256
    2a3c:	00173713          	seqz	a4,a4
    2a40:	00371713          	slli	a4,a4,0x3
    2a44:	00e656b3          	srl	a3,a2,a4
    2a48:	00d787b3          	add	a5,a5,a3
    2a4c:	0007c783          	lbu	a5,0(a5)
    2a50:	00e787b3          	add	a5,a5,a4
    2a54:	02000713          	li	a4,32
    2a58:	40f709b3          	sub	s3,a4,a5
    2a5c:	00f70c63          	beq	a4,a5,2a74 <__moddi3+0xc8>
    2a60:	013595b3          	sll	a1,a1,s3
    2a64:	00f557b3          	srl	a5,a0,a5
    2a68:	01361a33          	sll	s4,a2,s3
    2a6c:	00b7eb33          	or	s6,a5,a1
    2a70:	01351433          	sll	s0,a0,s3
    2a74:	010a5b93          	srli	s7,s4,0x10
    2a78:	000b8593          	mv	a1,s7
    2a7c:	010a1a93          	slli	s5,s4,0x10
    2a80:	000b0513          	mv	a0,s6
    2a84:	4d8000ef          	jal	2f5c <__hidden___udivsi3>
    2a88:	010ada93          	srli	s5,s5,0x10
    2a8c:	000a8593          	mv	a1,s5
    2a90:	4a0000ef          	jal	2f30 <__mulsi3>
    2a94:	00050913          	mv	s2,a0
    2a98:	000b8593          	mv	a1,s7
    2a9c:	000b0513          	mv	a0,s6
    2aa0:	504000ef          	jal	2fa4 <__umodsi3>
    2aa4:	01051513          	slli	a0,a0,0x10
    2aa8:	01045793          	srli	a5,s0,0x10
    2aac:	00a7e7b3          	or	a5,a5,a0
    2ab0:	0127fa63          	bgeu	a5,s2,2ac4 <__moddi3+0x118>
    2ab4:	00fa07b3          	add	a5,s4,a5
    2ab8:	0147e663          	bltu	a5,s4,2ac4 <__moddi3+0x118>
    2abc:	0127f463          	bgeu	a5,s2,2ac4 <__moddi3+0x118>
    2ac0:	014787b3          	add	a5,a5,s4
    2ac4:	41278933          	sub	s2,a5,s2
    2ac8:	000b8593          	mv	a1,s7
    2acc:	00090513          	mv	a0,s2
    2ad0:	48c000ef          	jal	2f5c <__hidden___udivsi3>
    2ad4:	000a8593          	mv	a1,s5
    2ad8:	458000ef          	jal	2f30 <__mulsi3>
    2adc:	00050a93          	mv	s5,a0
    2ae0:	000b8593          	mv	a1,s7
    2ae4:	00090513          	mv	a0,s2
    2ae8:	4bc000ef          	jal	2fa4 <__umodsi3>
    2aec:	01041413          	slli	s0,s0,0x10
    2af0:	01051513          	slli	a0,a0,0x10
    2af4:	01045413          	srli	s0,s0,0x10
    2af8:	00a46433          	or	s0,s0,a0
    2afc:	01547a63          	bgeu	s0,s5,2b10 <__moddi3+0x164>
    2b00:	008a0433          	add	s0,s4,s0
    2b04:	01446663          	bltu	s0,s4,2b10 <__moddi3+0x164>
    2b08:	01547463          	bgeu	s0,s5,2b10 <__moddi3+0x164>
    2b0c:	01440433          	add	s0,s0,s4
    2b10:	41540433          	sub	s0,s0,s5
    2b14:	01345533          	srl	a0,s0,s3
    2b18:	00000593          	li	a1,0
    2b1c:	00048a63          	beqz	s1,2b30 <__moddi3+0x184>
    2b20:	00a037b3          	snez	a5,a0
    2b24:	40b005b3          	neg	a1,a1
    2b28:	40f585b3          	sub	a1,a1,a5
    2b2c:	40a00533          	neg	a0,a0
    2b30:	03c12083          	lw	ra,60(sp)
    2b34:	03812403          	lw	s0,56(sp)
    2b38:	03412483          	lw	s1,52(sp)
    2b3c:	03012903          	lw	s2,48(sp)
    2b40:	02c12983          	lw	s3,44(sp)
    2b44:	02812a03          	lw	s4,40(sp)
    2b48:	02412a83          	lw	s5,36(sp)
    2b4c:	02012b03          	lw	s6,32(sp)
    2b50:	01c12b83          	lw	s7,28(sp)
    2b54:	01812c03          	lw	s8,24(sp)
    2b58:	01412c83          	lw	s9,20(sp)
    2b5c:	01012d03          	lw	s10,16(sp)
    2b60:	00c12d83          	lw	s11,12(sp)
    2b64:	04010113          	addi	sp,sp,64
    2b68:	00008067          	ret
    2b6c:	010006b7          	lui	a3,0x1000
    2b70:	01800713          	li	a4,24
    2b74:	ecd678e3          	bgeu	a2,a3,2a44 <__moddi3+0x98>
    2b78:	01000713          	li	a4,16
    2b7c:	ec9ff06f          	j	2a44 <__moddi3+0x98>
    2b80:	00000713          	li	a4,0
    2b84:	00060c63          	beqz	a2,2b9c <__moddi3+0x1f0>
    2b88:	00010737          	lui	a4,0x10
    2b8c:	14e67e63          	bgeu	a2,a4,2ce8 <__moddi3+0x33c>
    2b90:	10063713          	sltiu	a4,a2,256
    2b94:	00173713          	seqz	a4,a4
    2b98:	00371713          	slli	a4,a4,0x3
    2b9c:	00e656b3          	srl	a3,a2,a4
    2ba0:	00d787b3          	add	a5,a5,a3
    2ba4:	0007c783          	lbu	a5,0(a5)
    2ba8:	40c58933          	sub	s2,a1,a2
    2bac:	00e787b3          	add	a5,a5,a4
    2bb0:	02000713          	li	a4,32
    2bb4:	40f709b3          	sub	s3,a4,a5
    2bb8:	0af70e63          	beq	a4,a5,2c74 <__moddi3+0x2c8>
    2bbc:	01361a33          	sll	s4,a2,s3
    2bc0:	00f5d933          	srl	s2,a1,a5
    2bc4:	010a5b93          	srli	s7,s4,0x10
    2bc8:	00f557b3          	srl	a5,a0,a5
    2bcc:	013595b3          	sll	a1,a1,s3
    2bd0:	00b7eab3          	or	s5,a5,a1
    2bd4:	01351433          	sll	s0,a0,s3
    2bd8:	000b8593          	mv	a1,s7
    2bdc:	010a1b13          	slli	s6,s4,0x10
    2be0:	00090513          	mv	a0,s2
    2be4:	378000ef          	jal	2f5c <__hidden___udivsi3>
    2be8:	010b5b13          	srli	s6,s6,0x10
    2bec:	000b0593          	mv	a1,s6
    2bf0:	340000ef          	jal	2f30 <__mulsi3>
    2bf4:	00050c13          	mv	s8,a0
    2bf8:	000b8593          	mv	a1,s7
    2bfc:	00090513          	mv	a0,s2
    2c00:	3a4000ef          	jal	2fa4 <__umodsi3>
    2c04:	01051513          	slli	a0,a0,0x10
    2c08:	010ad713          	srli	a4,s5,0x10
    2c0c:	00a76733          	or	a4,a4,a0
    2c10:	01877a63          	bgeu	a4,s8,2c24 <__moddi3+0x278>
    2c14:	00ea0733          	add	a4,s4,a4
    2c18:	01476663          	bltu	a4,s4,2c24 <__moddi3+0x278>
    2c1c:	01877463          	bgeu	a4,s8,2c24 <__moddi3+0x278>
    2c20:	01470733          	add	a4,a4,s4
    2c24:	41870c33          	sub	s8,a4,s8
    2c28:	000b8593          	mv	a1,s7
    2c2c:	000c0513          	mv	a0,s8
    2c30:	32c000ef          	jal	2f5c <__hidden___udivsi3>
    2c34:	000b0593          	mv	a1,s6
    2c38:	2f8000ef          	jal	2f30 <__mulsi3>
    2c3c:	00050b13          	mv	s6,a0
    2c40:	000b8593          	mv	a1,s7
    2c44:	000c0513          	mv	a0,s8
    2c48:	35c000ef          	jal	2fa4 <__umodsi3>
    2c4c:	010a9793          	slli	a5,s5,0x10
    2c50:	01051513          	slli	a0,a0,0x10
    2c54:	0107d793          	srli	a5,a5,0x10
    2c58:	00a7e7b3          	or	a5,a5,a0
    2c5c:	0167fa63          	bgeu	a5,s6,2c70 <__moddi3+0x2c4>
    2c60:	00fa07b3          	add	a5,s4,a5
    2c64:	0147e663          	bltu	a5,s4,2c70 <__moddi3+0x2c4>
    2c68:	0167f463          	bgeu	a5,s6,2c70 <__moddi3+0x2c4>
    2c6c:	014787b3          	add	a5,a5,s4
    2c70:	41678933          	sub	s2,a5,s6
    2c74:	010a5b13          	srli	s6,s4,0x10
    2c78:	000b0593          	mv	a1,s6
    2c7c:	010a1b93          	slli	s7,s4,0x10
    2c80:	00090513          	mv	a0,s2
    2c84:	2d8000ef          	jal	2f5c <__hidden___udivsi3>
    2c88:	010bdb93          	srli	s7,s7,0x10
    2c8c:	000b8593          	mv	a1,s7
    2c90:	2a0000ef          	jal	2f30 <__mulsi3>
    2c94:	00050a93          	mv	s5,a0
    2c98:	000b0593          	mv	a1,s6
    2c9c:	00090513          	mv	a0,s2
    2ca0:	304000ef          	jal	2fa4 <__umodsi3>
    2ca4:	01051513          	slli	a0,a0,0x10
    2ca8:	01045793          	srli	a5,s0,0x10
    2cac:	00a7e7b3          	or	a5,a5,a0
    2cb0:	0157fa63          	bgeu	a5,s5,2cc4 <__moddi3+0x318>
    2cb4:	00fa07b3          	add	a5,s4,a5
    2cb8:	0147e663          	bltu	a5,s4,2cc4 <__moddi3+0x318>
    2cbc:	0157f463          	bgeu	a5,s5,2cc4 <__moddi3+0x318>
    2cc0:	014787b3          	add	a5,a5,s4
    2cc4:	41578933          	sub	s2,a5,s5
    2cc8:	000b0593          	mv	a1,s6
    2ccc:	00090513          	mv	a0,s2
    2cd0:	28c000ef          	jal	2f5c <__hidden___udivsi3>
    2cd4:	000b8593          	mv	a1,s7
    2cd8:	258000ef          	jal	2f30 <__mulsi3>
    2cdc:	00050a93          	mv	s5,a0
    2ce0:	000b0593          	mv	a1,s6
    2ce4:	e01ff06f          	j	2ae4 <__moddi3+0x138>
    2ce8:	010006b7          	lui	a3,0x1000
    2cec:	01800713          	li	a4,24
    2cf0:	ead676e3          	bgeu	a2,a3,2b9c <__moddi3+0x1f0>
    2cf4:	01000713          	li	a4,16
    2cf8:	ea5ff06f          	j	2b9c <__moddi3+0x1f0>
    2cfc:	e2d5e0e3          	bltu	a1,a3,2b1c <__moddi3+0x170>
    2d00:	000107b7          	lui	a5,0x10
    2d04:	04f6fe63          	bgeu	a3,a5,2d60 <__moddi3+0x3b4>
    2d08:	1006b793          	sltiu	a5,a3,256
    2d0c:	0017b793          	seqz	a5,a5
    2d10:	00379793          	slli	a5,a5,0x3
    2d14:	00020737          	lui	a4,0x20
    2d18:	00f6d833          	srl	a6,a3,a5
    2d1c:	1c470713          	addi	a4,a4,452 # 201c4 <__clz_tab>
    2d20:	01070733          	add	a4,a4,a6
    2d24:	00074a83          	lbu	s5,0(a4)
    2d28:	00fa8ab3          	add	s5,s5,a5
    2d2c:	02000793          	li	a5,32
    2d30:	41578a33          	sub	s4,a5,s5
    2d34:	05579063          	bne	a5,s5,2d74 <__moddi3+0x3c8>
    2d38:	00b6e463          	bltu	a3,a1,2d40 <__moddi3+0x394>
    2d3c:	00c56c63          	bltu	a0,a2,2d54 <__moddi3+0x3a8>
    2d40:	40c50933          	sub	s2,a0,a2
    2d44:	40d586b3          	sub	a3,a1,a3
    2d48:	012535b3          	sltu	a1,a0,s2
    2d4c:	00090413          	mv	s0,s2
    2d50:	40b68b33          	sub	s6,a3,a1
    2d54:	00040513          	mv	a0,s0
    2d58:	000b0593          	mv	a1,s6
    2d5c:	dc1ff06f          	j	2b1c <__moddi3+0x170>
    2d60:	01000737          	lui	a4,0x1000
    2d64:	01800793          	li	a5,24
    2d68:	fae6f6e3          	bgeu	a3,a4,2d14 <__moddi3+0x368>
    2d6c:	01000793          	li	a5,16
    2d70:	fa5ff06f          	j	2d14 <__moddi3+0x368>
    2d74:	014696b3          	sll	a3,a3,s4
    2d78:	01565b33          	srl	s6,a2,s5
    2d7c:	00db6b33          	or	s6,s6,a3
    2d80:	0155dcb3          	srl	s9,a1,s5
    2d84:	01555433          	srl	s0,a0,s5
    2d88:	014595b3          	sll	a1,a1,s4
    2d8c:	010b5b93          	srli	s7,s6,0x10
    2d90:	00b46433          	or	s0,s0,a1
    2d94:	014519b3          	sll	s3,a0,s4
    2d98:	000b8593          	mv	a1,s7
    2d9c:	000c8513          	mv	a0,s9
    2da0:	010b1c13          	slli	s8,s6,0x10
    2da4:	01461933          	sll	s2,a2,s4
    2da8:	010c5c13          	srli	s8,s8,0x10
    2dac:	1b0000ef          	jal	2f5c <__hidden___udivsi3>
    2db0:	00050593          	mv	a1,a0
    2db4:	00050d93          	mv	s11,a0
    2db8:	000c0513          	mv	a0,s8
    2dbc:	174000ef          	jal	2f30 <__mulsi3>
    2dc0:	00050d13          	mv	s10,a0
    2dc4:	000b8593          	mv	a1,s7
    2dc8:	000c8513          	mv	a0,s9
    2dcc:	1d8000ef          	jal	2fa4 <__umodsi3>
    2dd0:	01051513          	slli	a0,a0,0x10
    2dd4:	01045793          	srli	a5,s0,0x10
    2dd8:	00a7e7b3          	or	a5,a5,a0
    2ddc:	000d8c93          	mv	s9,s11
    2de0:	01a7fe63          	bgeu	a5,s10,2dfc <__moddi3+0x450>
    2de4:	00fb07b3          	add	a5,s6,a5
    2de8:	fffd8c93          	addi	s9,s11,-1
    2dec:	0167e863          	bltu	a5,s6,2dfc <__moddi3+0x450>
    2df0:	01a7f663          	bgeu	a5,s10,2dfc <__moddi3+0x450>
    2df4:	ffed8c93          	addi	s9,s11,-2
    2df8:	016787b3          	add	a5,a5,s6
    2dfc:	41a78d33          	sub	s10,a5,s10
    2e00:	000b8593          	mv	a1,s7
    2e04:	000d0513          	mv	a0,s10
    2e08:	154000ef          	jal	2f5c <__hidden___udivsi3>
    2e0c:	00050593          	mv	a1,a0
    2e10:	00050d93          	mv	s11,a0
    2e14:	000c0513          	mv	a0,s8
    2e18:	118000ef          	jal	2f30 <__mulsi3>
    2e1c:	000b8593          	mv	a1,s7
    2e20:	00050c13          	mv	s8,a0
    2e24:	000d0513          	mv	a0,s10
    2e28:	17c000ef          	jal	2fa4 <__umodsi3>
    2e2c:	01041593          	slli	a1,s0,0x10
    2e30:	01051513          	slli	a0,a0,0x10
    2e34:	0105d593          	srli	a1,a1,0x10
    2e38:	00a5e5b3          	or	a1,a1,a0
    2e3c:	000d8793          	mv	a5,s11
    2e40:	0185fe63          	bgeu	a1,s8,2e5c <__moddi3+0x4b0>
    2e44:	00bb05b3          	add	a1,s6,a1
    2e48:	fffd8793          	addi	a5,s11,-1
    2e4c:	0165e863          	bltu	a1,s6,2e5c <__moddi3+0x4b0>
    2e50:	0185f663          	bgeu	a1,s8,2e5c <__moddi3+0x4b0>
    2e54:	ffed8793          	addi	a5,s11,-2
    2e58:	016585b3          	add	a1,a1,s6
    2e5c:	010c9c93          	slli	s9,s9,0x10
    2e60:	00fcecb3          	or	s9,s9,a5
    2e64:	01091313          	slli	t1,s2,0x10
    2e68:	01079793          	slli	a5,a5,0x10
    2e6c:	0107d793          	srli	a5,a5,0x10
    2e70:	01035313          	srli	t1,t1,0x10
    2e74:	41858733          	sub	a4,a1,s8
    2e78:	010cdc93          	srli	s9,s9,0x10
    2e7c:	01095893          	srli	a7,s2,0x10
    2e80:	00078513          	mv	a0,a5
    2e84:	00030593          	mv	a1,t1
    2e88:	0a8000ef          	jal	2f30 <__mulsi3>
    2e8c:	00050813          	mv	a6,a0
    2e90:	00088593          	mv	a1,a7
    2e94:	00078513          	mv	a0,a5
    2e98:	098000ef          	jal	2f30 <__mulsi3>
    2e9c:	00050413          	mv	s0,a0
    2ea0:	00030593          	mv	a1,t1
    2ea4:	000c8513          	mv	a0,s9
    2ea8:	088000ef          	jal	2f30 <__mulsi3>
    2eac:	00050793          	mv	a5,a0
    2eb0:	00088593          	mv	a1,a7
    2eb4:	000c8513          	mv	a0,s9
    2eb8:	078000ef          	jal	2f30 <__mulsi3>
    2ebc:	00f40433          	add	s0,s0,a5
    2ec0:	01085693          	srli	a3,a6,0x10
    2ec4:	00d40433          	add	s0,s0,a3
    2ec8:	00f47663          	bgeu	s0,a5,2ed4 <__moddi3+0x528>
    2ecc:	000107b7          	lui	a5,0x10
    2ed0:	00f50533          	add	a0,a0,a5
    2ed4:	01045793          	srli	a5,s0,0x10
    2ed8:	01081813          	slli	a6,a6,0x10
    2edc:	01041413          	slli	s0,s0,0x10
    2ee0:	01085813          	srli	a6,a6,0x10
    2ee4:	00a787b3          	add	a5,a5,a0
    2ee8:	01040433          	add	s0,s0,a6
    2eec:	00f76663          	bltu	a4,a5,2ef8 <__moddi3+0x54c>
    2ef0:	00f71e63          	bne	a4,a5,2f0c <__moddi3+0x560>
    2ef4:	0089fc63          	bgeu	s3,s0,2f0c <__moddi3+0x560>
    2ef8:	41240933          	sub	s2,s0,s2
    2efc:	012436b3          	sltu	a3,s0,s2
    2f00:	016686b3          	add	a3,a3,s6
    2f04:	00090413          	mv	s0,s2
    2f08:	40d787b3          	sub	a5,a5,a3
    2f0c:	40898433          	sub	s0,s3,s0
    2f10:	0089b9b3          	sltu	s3,s3,s0
    2f14:	40f705b3          	sub	a1,a4,a5
    2f18:	413585b3          	sub	a1,a1,s3
    2f1c:	01559ab3          	sll	s5,a1,s5
    2f20:	01445433          	srl	s0,s0,s4
    2f24:	008ae533          	or	a0,s5,s0
    2f28:	0145d5b3          	srl	a1,a1,s4
    2f2c:	bf1ff06f          	j	2b1c <__moddi3+0x170>

00002f30 <__mulsi3>:
    2f30:	00050613          	mv	a2,a0
    2f34:	00000513          	li	a0,0
    2f38:	0015f693          	andi	a3,a1,1
    2f3c:	00068463          	beqz	a3,2f44 <__mulsi3+0x14>
    2f40:	00c50533          	add	a0,a0,a2
    2f44:	0015d593          	srli	a1,a1,0x1
    2f48:	00161613          	slli	a2,a2,0x1
    2f4c:	fe0596e3          	bnez	a1,2f38 <__mulsi3+0x8>
    2f50:	00008067          	ret

00002f54 <__divsi3>:
    2f54:	06054063          	bltz	a0,2fb4 <__umodsi3+0x10>
    2f58:	0605c663          	bltz	a1,2fc4 <__umodsi3+0x20>

00002f5c <__hidden___udivsi3>:
    2f5c:	00058613          	mv	a2,a1
    2f60:	00050593          	mv	a1,a0
    2f64:	fff00513          	li	a0,-1
    2f68:	02060c63          	beqz	a2,2fa0 <__hidden___udivsi3+0x44>
    2f6c:	00100693          	li	a3,1
    2f70:	00b67a63          	bgeu	a2,a1,2f84 <__hidden___udivsi3+0x28>
    2f74:	00c05863          	blez	a2,2f84 <__hidden___udivsi3+0x28>
    2f78:	00161613          	slli	a2,a2,0x1
    2f7c:	00169693          	slli	a3,a3,0x1
    2f80:	feb66ae3          	bltu	a2,a1,2f74 <__hidden___udivsi3+0x18>
    2f84:	00000513          	li	a0,0
    2f88:	00c5e663          	bltu	a1,a2,2f94 <__hidden___udivsi3+0x38>
    2f8c:	40c585b3          	sub	a1,a1,a2
    2f90:	00d56533          	or	a0,a0,a3
    2f94:	0016d693          	srli	a3,a3,0x1
    2f98:	00165613          	srli	a2,a2,0x1
    2f9c:	fe0696e3          	bnez	a3,2f88 <__hidden___udivsi3+0x2c>
    2fa0:	00008067          	ret

00002fa4 <__umodsi3>:
    2fa4:	00008293          	mv	t0,ra
    2fa8:	fb5ff0ef          	jal	2f5c <__hidden___udivsi3>
    2fac:	00058513          	mv	a0,a1
    2fb0:	00028067          	jr	t0
    2fb4:	40a00533          	neg	a0,a0
    2fb8:	00b04863          	bgtz	a1,2fc8 <__umodsi3+0x24>
    2fbc:	40b005b3          	neg	a1,a1
    2fc0:	f9dff06f          	j	2f5c <__hidden___udivsi3>
    2fc4:	40b005b3          	neg	a1,a1
    2fc8:	00008293          	mv	t0,ra
    2fcc:	f91ff0ef          	jal	2f5c <__hidden___udivsi3>
    2fd0:	40a00533          	neg	a0,a0
    2fd4:	00028067          	jr	t0

00002fd8 <__modsi3>:
    2fd8:	00008293          	mv	t0,ra
    2fdc:	0005ca63          	bltz	a1,2ff0 <__modsi3+0x18>
    2fe0:	00054c63          	bltz	a0,2ff8 <__modsi3+0x20>
    2fe4:	f79ff0ef          	jal	2f5c <__hidden___udivsi3>
    2fe8:	00058513          	mv	a0,a1
    2fec:	00028067          	jr	t0
    2ff0:	40b005b3          	neg	a1,a1
    2ff4:	fe0558e3          	bgez	a0,2fe4 <__modsi3+0xc>
    2ff8:	40a00533          	neg	a0,a0
    2ffc:	f61ff0ef          	jal	2f5c <__hidden___udivsi3>
    3000:	40b00533          	neg	a0,a1
    3004:	00028067          	jr	t0
