=============== 00001000 : <_start> =================================
    1000:  00023117   auipc sp,0x23
    1004:  00010113   mv sp,sp (addi sp,sp,0)
    1008:  00020297   auipc t0,0x20
    100c:  03828293   addi t0,t0,56
    1010:  00021317   auipc t1,0x21
    1014:  ff030313   addi t1,t1,-16
    1018:  00628863   beq t0,t1,1028 (1018 + 0x10)
    101c:  0002a023   sw zero,0(t0)
    1020:  00428293   addi t0,t0,4
    1024:  fe629ce3   bne t0,t1,101c (1024 - 0x8)
    1028:  064010ef   jal ra,208c (1028 + 0x1064) <disable_UART_interrupt> 
    102c:  7c4000ef   jal ra,17f0 (102c + 0x7c4) <_io_init> 
    1030:  781000ef   jal ra,1fb0 (1030 + 0xf80) <enable_BUTTON_interrupt> 
    1034:  010000ef   jal ra,1044 (1034 + 0x10) <main> 
    1038:  005000ef   jal ra,183c (1038 + 0x804) <_io_fini> 
    103c:  10500073   wfi 
    1040:  fc1ff06f   jal zero,1000 (1040 - 0x40) <_start> 
=============== 00001044 : <main> =================================
    1044:  fe010113   addi sp,sp,-32
    1048:  00112e23   sw ra,28(sp)
    104c:  00812c23   sw s0,24(sp)
    1050:  02010413   addi s0,sp,32
    1054:  00a00793   li a5,10 (addi a5,zero,10)
    1058:  fef42623   sw a5,-20(s0)
    105c:  00200793   li a5,2 (addi a5,zero,2)
    1060:  fef42423   sw a5,-24(s0)
    1064:  fec42703   lw a4,-20(s0)
    1068:  fe842783   lw a5,-24(s0)
    106c:  00f707b3   add a5,a4,a5
    1070:  00078693   mv a3,a5 (addi a3,a5,0)
    1074:  fe842603   lw a2,-24(s0)
    1078:  fec42583   lw a1,-20(s0)
    107c:  000207b7   lui a5,0x20
    1080:  00078513   mv a0,a5 (addi a0,a5,0)
    1084:  374000ef   jal ra,13f8 (1084 + 0x374) <printf> 
    1088:  00000793   li a5,0 (addi a5,zero,0)
    108c:  00078513   mv a0,a5 (addi a0,a5,0)
    1090:  01c12083   lw ra,28(sp)
    1094:  01812403   lw s0,24(sp)
    1098:  02010113   addi sp,sp,32
    109c:  00008067   ret : jalr zero,0(ra)
=============== 000010a0 : <putline> =================================
    10a0:  fd010113   addi sp,sp,-48
    10a4:  02112623   sw ra,44(sp)
    10a8:  02812423   sw s0,40(sp)
    10ac:  03010413   addi s0,sp,48
    10b0:  fca42e23   sw a0,-36(s0)
    10b4:  0180006f   jal zero,10cc (10b4 + 0x18)
    10b8:  000217b7   lui a5,0x21
    10bc:  02c7a783   lw a5,44(a5)
    10c0:  fef44703   lbu a4,-17(s0)
    10c4:  00070513   mv a0,a4 (addi a0,a4,0)
    10c8:  000780e7   jalr ra,0(a5)
    10cc:  fdc42783   lw a5,-36(s0)
    10d0:  00178713   addi a4,a5,1
    10d4:  fce42e23   sw a4,-36(s0)
    10d8:  0007c783   lbu a5,0(a5)
    10dc:  fef407a3   sb a5,-17(s0)
    10e0:  fef44783   lbu a5,-17(s0)
    10e4:  fc079ae3   bne a5,zero,10b8 (10e4 - 0x2c)
    10e8:  00000013   li zero,0 (addi zero,zero,0)
    10ec:  00000013   li zero,0 (addi zero,zero,0)
    10f0:  02c12083   lw ra,44(sp)
    10f4:  02812403   lw s0,40(sp)
    10f8:  03010113   addi sp,sp,48
    10fc:  00008067   ret : jalr zero,0(ra)
=============== 00001100 : <puts> =================================
    1100:  fe010113   addi sp,sp,-32
    1104:  00112e23   sw ra,28(sp)
    1108:  00812c23   sw s0,24(sp)
    110c:  02010413   addi s0,sp,32
    1110:  fea42623   sw a0,-20(s0)
    1114:  fec42503   lw a0,-20(s0)
    1118:  f89ff0ef   jal ra,10a0 (1118 - 0x78) <putline> 
    111c:  000217b7   lui a5,0x21
    1120:  02c7a783   lw a5,44(a5)
    1124:  00a00513   li a0,10 (addi a0,zero,10)
    1128:  000780e7   jalr ra,0(a5)
    112c:  00100793   li a5,1 (addi a5,zero,1)
    1130:  00078513   mv a0,a5 (addi a0,a5,0)
    1134:  01c12083   lw ra,28(sp)
    1138:  01812403   lw s0,24(sp)
    113c:  02010113   addi sp,sp,32
    1140:  00008067   ret : jalr zero,0(ra)
=============== 00001144 : <putchar> =================================
    1144:  fe010113   addi sp,sp,-32
    1148:  00112e23   sw ra,28(sp)
    114c:  00812c23   sw s0,24(sp)
    1150:  02010413   addi s0,sp,32
    1154:  fea42623   sw a0,-20(s0)
    1158:  000217b7   lui a5,0x21
    115c:  02c7a783   lw a5,44(a5)
    1160:  fec42703   lw a4,-20(s0)
    1164:  0ff77713   andi a4,a4,255
    1168:  00070513   mv a0,a4 (addi a0,a4,0)
    116c:  000780e7   jalr ra,0(a5)
    1170:  fec42783   lw a5,-20(s0)
    1174:  00078513   mv a0,a5 (addi a0,a5,0)
    1178:  01c12083   lw ra,28(sp)
    117c:  01812403   lw s0,24(sp)
    1180:  02010113   addi sp,sp,32
    1184:  00008067   ret : jalr zero,0(ra)
=============== 00001188 : <puthex> =================================
    1188:  fe010113   addi sp,sp,-32
    118c:  00112e23   sw ra,28(sp)
    1190:  00812c23   sw s0,24(sp)
    1194:  01212a23   sw s2,20(sp)
    1198:  01312823   sw s3,16(sp)
    119c:  02010413   addi s0,sp,32
    11a0:  fea42423   sw a0,-24(s0)
    11a4:  feb42623   sw a1,-20(s0)
    11a8:  fed42023   sw a3,-32(s0)
    11ac:  00060693   mv a3,a2 (addi a3,a2,0)
    11b0:  fed403a3   sb a3,-25(s0)
    11b4:  fec42683   lw a3,-20(s0)
    11b8:  00069c63   bne a3,zero,11d0 (11b8 + 0x18)
    11bc:  fec42683   lw a3,-20(s0)
    11c0:  06069063   bne a3,zero,1220 (11c0 + 0x60)
    11c4:  fe842603   lw a2,-24(s0)
    11c8:  00f00693   li a3,15 (addi a3,zero,15)
    11cc:  02c6fe63   bgeu a3,a2,1208 (11cc + 0x3c)
    11d0:  fec42683   lw a3,-20(s0)
    11d4:  01c69693   slli a3,a3,0x1c
    11d8:  fe842603   lw a2,-24(s0)
    11dc:  00465713   srli a4,a2,0x4
    11e0:  00e6e733   or a4,a3,a4
    11e4:  fec42683   lw a3,-20(s0)
    11e8:  0046d793   srli a5,a3,0x4
    11ec:  fe042683   lw a3,-32(s0)
    11f0:  fff68693   addi a3,a3,-1
    11f4:  fe744603   lbu a2,-25(s0)
    11f8:  00070513   mv a0,a4 (addi a0,a4,0)
    11fc:  00078593   mv a1,a5 (addi a1,a5,0)
    1200:  f89ff0ef   jal ra,1188 (1200 - 0x78) <puthex> 
    1204:  0300006f   jal zero,1234 (1204 + 0x30)
    1208:  0180006f   jal zero,1220 (1208 + 0x18)
    120c:  000217b7   lui a5,0x21
    1210:  02c7a783   lw a5,44(a5)
    1214:  fe744703   lbu a4,-25(s0)
    1218:  00070513   mv a0,a4 (addi a0,a4,0)
    121c:  000780e7   jalr ra,0(a5)
    1220:  fe042783   lw a5,-32(s0)
    1224:  fff78793   addi a5,a5,-1
    1228:  fef42023   sw a5,-32(s0)
    122c:  fe042783   lw a5,-32(s0)
    1230:  fcf04ee3   blt zero,a5,120c (1230 - 0x24)
    1234:  fe842783   lw a5,-24(s0)
    1238:  00f7f913   andi s2,a5,15
    123c:  fec42783   lw a5,-20(s0)
    1240:  0007f993   andi s3,a5,0
    1244:  ff242423   sw s2,-24(s0)
    1248:  ff342623   sw s3,-20(s0)
    124c:  fec42783   lw a5,-20(s0)
    1250:  02079c63   bne a5,zero,1288 (1250 + 0x38)
    1254:  fec42783   lw a5,-20(s0)
    1258:  00079863   bne a5,zero,1268 (1258 + 0x10)
    125c:  fe842703   lw a4,-24(s0)
    1260:  00900793   li a5,9 (addi a5,zero,9)
    1264:  02e7e263   bltu a5,a4,1288 (1264 + 0x24)
    1268:  000217b7   lui a5,0x21
    126c:  02c7a783   lw a5,44(a5)
    1270:  fe844703   lbu a4,-24(s0)
    1274:  03070713   addi a4,a4,48
    1278:  0ff77713   andi a4,a4,255
    127c:  00070513   mv a0,a4 (addi a0,a4,0)
    1280:  000780e7   jalr ra,0(a5)
    1284:  0200006f   jal zero,12a4 (1284 + 0x20)
    1288:  000217b7   lui a5,0x21
    128c:  02c7a783   lw a5,44(a5)
    1290:  fe844703   lbu a4,-24(s0)
    1294:  05770713   addi a4,a4,87
    1298:  0ff77713   andi a4,a4,255
    129c:  00070513   mv a0,a4 (addi a0,a4,0)
    12a0:  000780e7   jalr ra,0(a5)
    12a4:  00000013   li zero,0 (addi zero,zero,0)
    12a8:  01c12083   lw ra,28(sp)
    12ac:  01812403   lw s0,24(sp)
    12b0:  01412903   lw s2,20(sp)
    12b4:  01012983   lw s3,16(sp)
    12b8:  02010113   addi sp,sp,32
    12bc:  00008067   ret : jalr zero,0(ra)
=============== 000012c0 : <putdec> =================================
    12c0:  fd010113   addi sp,sp,-48
    12c4:  02112623   sw ra,44(sp)
    12c8:  02812423   sw s0,40(sp)
    12cc:  02912223   sw s1,36(sp)
    12d0:  03010413   addi s0,sp,48
    12d4:  fea42423   sw a0,-24(s0)
    12d8:  feb42623   sw a1,-20(s0)
    12dc:  fec42223   sw a2,-28(s0)
    12e0:  00068793   mv a5,a3 (addi a5,a3,0)
    12e4:  fce42e23   sw a4,-36(s0)
    12e8:  fef401a3   sb a5,-29(s0)
    12ec:  fec42783   lw a5,-20(s0)
    12f0:  00f04c63   blt zero,a5,1308 (12f0 + 0x18)
    12f4:  fec42783   lw a5,-20(s0)
    12f8:  06079863   bne a5,zero,1368 (12f8 + 0x70)
    12fc:  fe842703   lw a4,-24(s0)
    1300:  00900793   li a5,9 (addi a5,zero,9)
    1304:  04e7f663   bgeu a5,a4,1350 (1304 + 0x4c)
    1308:  fe842703   lw a4,-24(s0)
    130c:  fec42783   lw a5,-20(s0)
    1310:  00a00613   li a2,10 (addi a2,zero,10)
    1314:  00000693   li a3,0 (addi a3,zero,0)
    1318:  00070513   mv a0,a4 (addi a0,a4,0)
    131c:  00078593   mv a1,a5 (addi a1,a5,0)
    1320:  109010ef   jal ra,2c28 (1320 + 0x1908) <__divdi3> 
    1324:  00050713   mv a4,a0 (addi a4,a0,0)
    1328:  00058793   mv a5,a1 (addi a5,a1,0)
    132c:  00070513   mv a0,a4 (addi a0,a4,0)
    1330:  00078593   mv a1,a5 (addi a1,a5,0)
    1334:  fdc42783   lw a5,-36(s0)
    1338:  fff78713   addi a4,a5,-1
    133c:  fe344783   lbu a5,-29(s0)
    1340:  00078693   mv a3,a5 (addi a3,a5,0)
    1344:  fe442603   lw a2,-28(s0)
    1348:  f79ff0ef   jal ra,12c0 (1348 - 0x88) <putdec> 
    134c:  0540006f   jal zero,13a0 (134c + 0x54)
    1350:  0180006f   jal zero,1368 (1350 + 0x18)
    1354:  000217b7   lui a5,0x21
    1358:  02c7a783   lw a5,44(a5)
    135c:  fe344703   lbu a4,-29(s0)
    1360:  00070513   mv a0,a4 (addi a0,a4,0)
    1364:  000780e7   jalr ra,0(a5)
    1368:  fdc42783   lw a5,-36(s0)
    136c:  fff78793   addi a5,a5,-1
    1370:  fcf42e23   sw a5,-36(s0)
    1374:  fdc42783   lw a5,-36(s0)
    1378:  fcf04ee3   blt zero,a5,1354 (1378 - 0x24)
    137c:  fe442783   lw a5,-28(s0)
    1380:  02078063   beq a5,zero,13a0 (1380 + 0x20)
    1384:  fe344703   lbu a4,-29(s0)
    1388:  02000793   li a5,32 (addi a5,zero,32)
    138c:  00f71a63   bne a4,a5,13a0 (138c + 0x14)
    1390:  000217b7   lui a5,0x21
    1394:  02c7a783   lw a5,44(a5)
    1398:  02d00513   li a0,45 (addi a0,zero,45)
    139c:  000780e7   jalr ra,0(a5)
    13a0:  000217b7   lui a5,0x21
    13a4:  02c7a483   lw s1,44(a5)
    13a8:  fe842703   lw a4,-24(s0)
    13ac:  fec42783   lw a5,-20(s0)
    13b0:  00a00613   li a2,10 (addi a2,zero,10)
    13b4:  00000693   li a3,0 (addi a3,zero,0)
    13b8:  00070513   mv a0,a4 (addi a0,a4,0)
    13bc:  00078593   mv a1,a5 (addi a1,a5,0)
    13c0:  679010ef   jal ra,3238 (13c0 + 0x1e78) <__moddi3> 
    13c4:  00050713   mv a4,a0 (addi a4,a0,0)
    13c8:  00058793   mv a5,a1 (addi a5,a1,0)
    13cc:  0ff77793   andi a5,a4,255
    13d0:  03078793   addi a5,a5,48
    13d4:  0ff7f793   andi a5,a5,255
    13d8:  00078513   mv a0,a5 (addi a0,a5,0)
    13dc:  000480e7   jalr ra,0(s1)
    13e0:  00000013   li zero,0 (addi zero,zero,0)
    13e4:  02c12083   lw ra,44(sp)
    13e8:  02812403   lw s0,40(sp)
    13ec:  02412483   lw s1,36(sp)
    13f0:  03010113   addi sp,sp,48
    13f4:  00008067   ret : jalr zero,0(ra)
=============== 000013f8 : <printf> =================================
    13f8:  f7010113   addi sp,sp,-144
    13fc:  06112623   sw ra,108(sp)
    1400:  06812423   sw s0,104(sp)
    1404:  07212223   sw s2,100(sp)
    1408:  07312023   sw s3,96(sp)
    140c:  05412e23   sw s4,92(sp)
    1410:  05512c23   sw s5,88(sp)
    1414:  07010413   addi s0,sp,112
    1418:  f8a42e23   sw a0,-100(s0)
    141c:  00b42223   sw a1,4(s0)
    1420:  00c42423   sw a2,8(s0)
    1424:  00d42623   sw a3,12(s0)
    1428:  00e42823   sw a4,16(s0)
    142c:  00f42a23   sw a5,20(s0)
    1430:  01042c23   sw a6,24(s0)
    1434:  01142e23   sw a7,28(s0)
    1438:  fc042e23   sw zero,-36(s0)
    143c:  fc042c23   sw zero,-40(s0)
    1440:  fc042a23   sw zero,-44(s0)
    1444:  02000793   li a5,32 (addi a5,zero,32)
    1448:  fcf409a3   sb a5,-45(s0)
    144c:  fc042623   sw zero,-52(s0)
    1450:  02040793   addi a5,s0,32
    1454:  f8f42c23   sw a5,-104(s0)
    1458:  f9842783   lw a5,-104(s0)
    145c:  fe478793   addi a5,a5,-28
    1460:  faf42223   sw a5,-92(s0)
    1464:  3580006f   jal zero,17bc (1464 + 0x358)
    1468:  fdc42783   lw a5,-36(s0)
    146c:  2c078a63   beq a5,zero,1740 (146c + 0x2d4)
    1470:  f9c42783   lw a5,-100(s0)
    1474:  0007c783   lbu a5,0(a5)
    1478:  03900713   li a4,57 (addi a4,zero,57)
    147c:  02f74a63   blt a4,a5,14b0 (147c + 0x34)
    1480:  03000713   li a4,48 (addi a4,zero,48)
    1484:  28e7d663   bge a5,a4,1710 (1484 + 0x28c)
    1488:  3280006f   jal zero,17b0 (1488 + 0x328)
    148c:  f9d78793   addi a5,a5,-99
    1490:  01500713   li a4,21 (addi a4,zero,21)
    1494:  30f76e63   bltu a4,a5,17b0 (1494 + 0x31c)
    1498:  00279713   slli a4,a5,0x2
    149c:  000207b7   lui a5,0x20
    14a0:  01078793   addi a5,a5,16
    14a4:  00f707b3   add a5,a4,a5
    14a8:  0007a783   lw a5,0(a5)
    14ac:  00078067   jalr zero,0(a5)
    14b0:  07800713   li a4,120 (addi a4,zero,120)
    14b4:  2ef74e63   blt a4,a5,17b0 (14b4 + 0x2fc)
    14b8:  06300713   li a4,99 (addi a4,zero,99)
    14bc:  fce7d8e3   bge a5,a4,148c (14bc - 0x30)
    14c0:  2f00006f   jal zero,17b0 (14c0 + 0x2f0)
    14c4:  f9c42783   lw a5,-100(s0)
    14c8:  00178793   addi a5,a5,1
    14cc:  0007c703   lbu a4,0(a5)
    14d0:  06c00793   li a5,108 (addi a5,zero,108)
    14d4:  00f71e63   bne a4,a5,14f0 (14d4 + 0x1c)
    14d8:  00100793   li a5,1 (addi a5,zero,1)
    14dc:  fcf42a23   sw a5,-44(s0)
    14e0:  f9c42783   lw a5,-100(s0)
    14e4:  00178793   addi a5,a5,1
    14e8:  f8f42e23   sw a5,-100(s0)
    14ec:  2c40006f   jal zero,17b0 (14ec + 0x2c4)
    14f0:  00100793   li a5,1 (addi a5,zero,1)
    14f4:  fcf42c23   sw a5,-40(s0)
    14f8:  2b80006f   jal zero,17b0 (14f8 + 0x2b8)
    14fc:  00100793   li a5,1 (addi a5,zero,1)
    1500:  fcf42c23   sw a5,-40(s0)
    1504:  000217b7   lui a5,0x21
    1508:  02c7a783   lw a5,44(a5)
    150c:  03000513   li a0,48 (addi a0,zero,48)
    1510:  000780e7   jalr ra,0(a5)
    1514:  000217b7   lui a5,0x21
    1518:  02c7a783   lw a5,44(a5)
    151c:  07800513   li a0,120 (addi a0,zero,120)
    1520:  000780e7   jalr ra,0(a5)
    1524:  fd842783   lw a5,-40(s0)
    1528:  02078063   beq a5,zero,1548 (1528 + 0x20)
    152c:  fa442783   lw a5,-92(s0)
    1530:  00478713   addi a4,a5,4
    1534:  fae42223   sw a4,-92(s0)
    1538:  0007a783   lw a5,0(a5)
    153c:  00078a13   mv s4,a5 (addi s4,a5,0)
    1540:  00000a93   li s5,0 (addi s5,zero,0)
    1544:  04c0006f   jal zero,1590 (1544 + 0x4c)
    1548:  fd442783   lw a5,-44(s0)
    154c:  02078663   beq a5,zero,1578 (154c + 0x2c)
    1550:  fa442783   lw a5,-92(s0)
    1554:  00778793   addi a5,a5,7
    1558:  ff87f793   andi a5,a5,-8
    155c:  00878713   addi a4,a5,8
    1560:  fae42223   sw a4,-92(s0)
    1564:  0007a703   lw a4,0(a5)
    1568:  0047a783   lw a5,4(a5)
    156c:  00070a13   mv s4,a4 (addi s4,a4,0)
    1570:  00078a93   mv s5,a5 (addi s5,a5,0)
    1574:  01c0006f   jal zero,1590 (1574 + 0x1c)
    1578:  fa442783   lw a5,-92(s0)
    157c:  00478713   addi a4,a5,4
    1580:  fae42223   sw a4,-92(s0)
    1584:  0007a783   lw a5,0(a5)
    1588:  00078a13   mv s4,a5 (addi s4,a5,0)
    158c:  00000a93   li s5,0 (addi s5,zero,0)
    1590:  fb442423   sw s4,-88(s0)
    1594:  fb542623   sw s5,-84(s0)
    1598:  fa842703   lw a4,-88(s0)
    159c:  fac42783   lw a5,-84(s0)
    15a0:  fd344603   lbu a2,-45(s0)
    15a4:  fcc42683   lw a3,-52(s0)
    15a8:  00070513   mv a0,a4 (addi a0,a4,0)
    15ac:  00078593   mv a1,a5 (addi a1,a5,0)
    15b0:  bd9ff0ef   jal ra,1188 (15b0 - 0x428) <puthex> 
    15b4:  fc042e23   sw zero,-36(s0)
    15b8:  1f80006f   jal zero,17b0 (15b8 + 0x1f8)
    15bc:  fd842783   lw a5,-40(s0)
    15c0:  02078263   beq a5,zero,15e4 (15c0 + 0x24)
    15c4:  fa442783   lw a5,-92(s0)
    15c8:  00478713   addi a4,a5,4
    15cc:  fae42223   sw a4,-92(s0)
    15d0:  0007a783   lw a5,0(a5)
    15d4:  00078913   mv s2,a5 (addi s2,a5,0)
    15d8:  41f7d793   srai a5,a5,0x1f
    15dc:  00078993   mv s3,a5 (addi s3,a5,0)
    15e0:  0480006f   jal zero,1628 (15e0 + 0x48)
    15e4:  fd442783   lw a5,-44(s0)
    15e8:  02078263   beq a5,zero,160c (15e8 + 0x24)
    15ec:  fa442783   lw a5,-92(s0)
    15f0:  00778793   addi a5,a5,7
    15f4:  ff87f793   andi a5,a5,-8
    15f8:  00878713   addi a4,a5,8
    15fc:  fae42223   sw a4,-92(s0)
    1600:  0007a903   lw s2,0(a5)
    1604:  0047a983   lw s3,4(a5)
    1608:  0200006f   jal zero,1628 (1608 + 0x20)
    160c:  fa442783   lw a5,-92(s0)
    1610:  00478713   addi a4,a5,4
    1614:  fae42223   sw a4,-92(s0)
    1618:  0007a783   lw a5,0(a5)
    161c:  00078913   mv s2,a5 (addi s2,a5,0)
    1620:  41f7d793   srai a5,a5,0x1f
    1624:  00078993   mv s3,a5 (addi s3,a5,0)
    1628:  fd242023   sw s2,-64(s0)
    162c:  fd342223   sw s3,-60(s0)
    1630:  fa042e23   sw zero,-68(s0)
    1634:  fc442783   lw a5,-60(s0)
    1638:  0607d263   bge a5,zero,169c (1638 + 0x64)
    163c:  fd344703   lbu a4,-45(s0)
    1640:  03000793   li a5,48 (addi a5,zero,48)
    1644:  00f71a63   bne a4,a5,1658 (1644 + 0x14)
    1648:  000217b7   lui a5,0x21
    164c:  02c7a783   lw a5,44(a5)
    1650:  02d00513   li a0,45 (addi a0,zero,45)
    1654:  000780e7   jalr ra,0(a5)
    1658:  00000613   li a2,0 (addi a2,zero,0)
    165c:  00000693   li a3,0 (addi a3,zero,0)
    1660:  fc042503   lw a0,-64(s0)
    1664:  fc442583   lw a1,-60(s0)
    1668:  40a60733   sub a4,a2,a0
    166c:  00070813   mv a6,a4 (addi a6,a4,0)
    1670:  01063833   sltiu a6,a2,a6
    1674:  40b687b3   sub a5,a3,a1
    1678:  410786b3   sub a3,a5,a6
    167c:  00068793   mv a5,a3 (addi a5,a3,0)
    1680:  fce42023   sw a4,-64(s0)
    1684:  fcf42223   sw a5,-60(s0)
    1688:  00100793   li a5,1 (addi a5,zero,1)
    168c:  faf42e23   sw a5,-68(s0)
    1690:  fcc42783   lw a5,-52(s0)
    1694:  fff78793   addi a5,a5,-1
    1698:  fcf42623   sw a5,-52(s0)
    169c:  fd344783   lbu a5,-45(s0)
    16a0:  fcc42703   lw a4,-52(s0)
    16a4:  00078693   mv a3,a5 (addi a3,a5,0)
    16a8:  fbc42603   lw a2,-68(s0)
    16ac:  fc042503   lw a0,-64(s0)
    16b0:  fc442583   lw a1,-60(s0)
    16b4:  c0dff0ef   jal ra,12c0 (16b4 - 0x3f4) <putdec> 
    16b8:  fc042e23   sw zero,-36(s0)
    16bc:  0f40006f   jal zero,17b0 (16bc + 0xf4)
    16c0:  fa442783   lw a5,-92(s0)
    16c4:  00478713   addi a4,a5,4
    16c8:  fae42223   sw a4,-92(s0)
    16cc:  0007a783   lw a5,0(a5)
    16d0:  faf42a23   sw a5,-76(s0)
    16d4:  fb442503   lw a0,-76(s0)
    16d8:  9c9ff0ef   jal ra,10a0 (16d8 - 0x638) <putline> 
    16dc:  fc042e23   sw zero,-36(s0)
    16e0:  0d00006f   jal zero,17b0 (16e0 + 0xd0)
    16e4:  000217b7   lui a5,0x21
    16e8:  02c7a703   lw a4,44(a5)
    16ec:  fa442783   lw a5,-92(s0)
    16f0:  00478693   addi a3,a5,4
    16f4:  fad42223   sw a3,-92(s0)
    16f8:  0007a783   lw a5,0(a5)
    16fc:  0ff7f793   andi a5,a5,255
    1700:  00078513   mv a0,a5 (addi a0,a5,0)
    1704:  000700e7   jalr ra,0(a4)
    1708:  fc042e23   sw zero,-36(s0)
    170c:  0a40006f   jal zero,17b0 (170c + 0xa4)
    1710:  fcc42703   lw a4,-52(s0)
    1714:  00070793   mv a5,a4 (addi a5,a4,0)
    1718:  00279793   slli a5,a5,0x2
    171c:  00e787b3   add a5,a5,a4
    1720:  00179793   slli a5,a5,0x1
    1724:  00078713   mv a4,a5 (addi a4,a5,0)
    1728:  f9c42783   lw a5,-100(s0)
    172c:  0007c783   lbu a5,0(a5)
    1730:  00f707b3   add a5,a4,a5
    1734:  fd078793   addi a5,a5,-48
    1738:  fcf42623   sw a5,-52(s0)
    173c:  0740006f   jal zero,17b0 (173c + 0x74)
    1740:  f9c42783   lw a5,-100(s0)
    1744:  0007c703   lbu a4,0(a5)
    1748:  02500793   li a5,37 (addi a5,zero,37)
    174c:  04f71663   bne a4,a5,1798 (174c + 0x4c)
    1750:  00100793   li a5,1 (addi a5,zero,1)
    1754:  fcf42e23   sw a5,-36(s0)
    1758:  fc042c23   sw zero,-40(s0)
    175c:  fc042a23   sw zero,-44(s0)
    1760:  02000793   li a5,32 (addi a5,zero,32)
    1764:  fcf409a3   sb a5,-45(s0)
    1768:  fc042623   sw zero,-52(s0)
    176c:  f9c42783   lw a5,-100(s0)
    1770:  00178793   addi a5,a5,1
    1774:  0007c703   lbu a4,0(a5)
    1778:  03000793   li a5,48 (addi a5,zero,48)
    177c:  02f71a63   bne a4,a5,17b0 (177c + 0x34)
    1780:  03000793   li a5,48 (addi a5,zero,48)
    1784:  fcf409a3   sb a5,-45(s0)
    1788:  f9c42783   lw a5,-100(s0)
    178c:  00178793   addi a5,a5,1
    1790:  f8f42e23   sw a5,-100(s0)
    1794:  01c0006f   jal zero,17b0 (1794 + 0x1c)
    1798:  000217b7   lui a5,0x21
    179c:  02c7a783   lw a5,44(a5)
    17a0:  f9c42703   lw a4,-100(s0)
    17a4:  00074703   lbu a4,0(a4)
    17a8:  00070513   mv a0,a4 (addi a0,a4,0)
    17ac:  000780e7   jalr ra,0(a5)
    17b0:  f9c42783   lw a5,-100(s0)
    17b4:  00178793   addi a5,a5,1
    17b8:  f8f42e23   sw a5,-100(s0)
    17bc:  f9c42783   lw a5,-100(s0)
    17c0:  0007c783   lbu a5,0(a5)
    17c4:  ca0792e3   bne a5,zero,1468 (17c4 - 0x35c)
    17c8:  fb842783   lw a5,-72(s0)
    17cc:  00078513   mv a0,a5 (addi a0,a5,0)
    17d0:  06c12083   lw ra,108(sp)
    17d4:  06812403   lw s0,104(sp)
    17d8:  06412903   lw s2,100(sp)
    17dc:  06012983   lw s3,96(sp)
    17e0:  05c12a03   lw s4,92(sp)
    17e4:  05812a83   lw s5,88(sp)
    17e8:  09010113   addi sp,sp,144
    17ec:  00008067   ret : jalr zero,0(ra)
=============== 000017f0 : <_io_init> =================================
    17f0:  ff010113   addi sp,sp,-16
    17f4:  00112623   sw ra,12(sp)
    17f8:  00812423   sw s0,8(sp)
    17fc:  01010413   addi s0,sp,16
    1800:  000217b7   lui a5,0x21
    1804:  02478793   addi a5,a5,36
    1808:  0007a783   lw a5,0(a5)
    180c:  06f00713   li a4,111 (addi a4,zero,111)
    1810:  00e7a223   sw a4,4(a5)
    1814:  000217b7   lui a5,0x21
    1818:  02478793   addi a5,a5,36
    181c:  0047a783   lw a5,4(a5)
    1820:  06f00713   li a4,111 (addi a4,zero,111)
    1824:  00e7a223   sw a4,4(a5)
    1828:  00000013   li zero,0 (addi zero,zero,0)
    182c:  00c12083   lw ra,12(sp)
    1830:  00812403   lw s0,8(sp)
    1834:  01010113   addi sp,sp,16
    1838:  00008067   ret : jalr zero,0(ra)
=============== 0000183c : <_io_fini> =================================
    183c:  ff010113   addi sp,sp,-16
    1840:  00112623   sw ra,12(sp)
    1844:  00812423   sw s0,8(sp)
    1848:  01010413   addi s0,sp,16
    184c:  658000ef   jal ra,1ea4 (184c + 0x658) <flush_UART> 
    1850:  00000013   li zero,0 (addi zero,zero,0)
    1854:  00c12083   lw ra,12(sp)
    1858:  00812403   lw s0,8(sp)
    185c:  01010113   addi sp,sp,16
    1860:  00008067   ret : jalr zero,0(ra)
=============== 00001864 : <set_uart_ID> =================================
    1864:  fe010113   addi sp,sp,-32
    1868:  00112e23   sw ra,28(sp)
    186c:  00812c23   sw s0,24(sp)
    1870:  02010413   addi s0,sp,32
    1874:  fea42623   sw a0,-20(s0)
    1878:  fec42783   lw a5,-20(s0)
    187c:  00f037b3   sltiu a5,zero,a5
    1880:  0ff7f793   andi a5,a5,255
    1884:  00078713   mv a4,a5 (addi a4,a5,0)
    1888:  000217b7   lui a5,0x21
    188c:  12e7ae23   sw a4,316(a5)
    1890:  00000013   li zero,0 (addi zero,zero,0)
    1894:  01c12083   lw ra,28(sp)
    1898:  01812403   lw s0,24(sp)
    189c:  02010113   addi sp,sp,32
    18a0:  00008067   ret : jalr zero,0(ra)
=============== 000018a4 : <_io_putch> =================================
    18a4:  fd010113   addi sp,sp,-48
    18a8:  02112623   sw ra,44(sp)
    18ac:  02812423   sw s0,40(sp)
    18b0:  03010413   addi s0,sp,48
    18b4:  00050793   mv a5,a0 (addi a5,a0,0)
    18b8:  fcf40fa3   sb a5,-33(s0)
    18bc:  000217b7   lui a5,0x21
    18c0:  13c7a783   lw a5,316(a5)
    18c4:  00021737   lui a4,0x21
    18c8:  02470713   addi a4,a4,36
    18cc:  00279793   slli a5,a5,0x2
    18d0:  00f707b3   add a5,a4,a5
    18d4:  0007a783   lw a5,0(a5)
    18d8:  fef42623   sw a5,-20(s0)
    18dc:  00000013   li zero,0 (addi zero,zero,0)
    18e0:  fec42783   lw a5,-20(s0)
    18e4:  0047a783   lw a5,4(a5)
    18e8:  0017f793   andi a5,a5,1
    18ec:  fe079ae3   bne a5,zero,18e0 (18ec - 0xc)
    18f0:  fec42783   lw a5,-20(s0)
    18f4:  fdf44703   lbu a4,-33(s0)
    18f8:  00e78023   sb a4,0(a5)
    18fc:  00000013   li zero,0 (addi zero,zero,0)
    1900:  02c12083   lw ra,44(sp)
    1904:  02812403   lw s0,40(sp)
    1908:  03010113   addi sp,sp,48
    190c:  00008067   ret : jalr zero,0(ra)
=============== 00001910 : <_UARTBuf_putch> =================================
    1910:  fd010113   addi sp,sp,-48
    1914:  02112623   sw ra,44(sp)
    1918:  02812423   sw s0,40(sp)
    191c:  03010413   addi s0,sp,48
    1920:  00050793   mv a5,a0 (addi a5,a0,0)
    1924:  fcf40fa3   sb a5,-33(s0)
    1928:  000217b7   lui a5,0x21
    192c:  13c7a703   lw a4,316(a5)
    1930:  00070793   mv a5,a4 (addi a5,a4,0)
    1934:  00479793   slli a5,a5,0x4
    1938:  40e787b3   sub a5,a5,a4
    193c:  00279793   slli a5,a5,0x2
    1940:  00021737   lui a4,0x21
    1944:  0b870713   addi a4,a4,184
    1948:  00e787b3   add a5,a5,a4
    194c:  fef42623   sw a5,-20(s0)
    1950:  00000013   li zero,0 (addi zero,zero,0)
    1954:  fec42783   lw a5,-20(s0)
    1958:  0017c783   lbu a5,1(a5)
    195c:  0ff7f793   andi a5,a5,255
    1960:  fe079ae3   bne a5,zero,1954 (1960 - 0xc)
    1964:  000217b7   lui a5,0x21
    1968:  13c7a783   lw a5,316(a5)
    196c:  00021737   lui a4,0x21
    1970:  02470713   addi a4,a4,36
    1974:  00279793   slli a5,a5,0x2
    1978:  00f707b3   add a5,a4,a5
    197c:  0007a783   lw a5,0(a5)
    1980:  fef42423   sw a5,-24(s0)
    1984:  178000ef   jal ra,1afc (1984 + 0x178) <enter_critical_section> 
    1988:  fdf44783   lbu a5,-33(s0)
    198c:  00078593   mv a1,a5 (addi a1,a5,0)
    1990:  fec42503   lw a0,-20(s0)
    1994:  3d0000ef   jal ra,1d64 (1994 + 0x3d0) <UARTBuf_write> 
    1998:  fe842783   lw a5,-24(s0)
    199c:  0047a783   lw a5,4(a5)
    19a0:  0017f793   andi a5,a5,1
    19a4:  00079e63   bne a5,zero,19c0 (19a4 + 0x1c)
    19a8:  fec42503   lw a0,-20(s0)
    19ac:  41c000ef   jal ra,1dc8 (19ac + 0x41c) <UARTBuf_read> 
    19b0:  00050793   mv a5,a0 (addi a5,a0,0)
    19b4:  00078713   mv a4,a5 (addi a4,a5,0)
    19b8:  fe842783   lw a5,-24(s0)
    19bc:  00e78023   sb a4,0(a5)
    19c0:  194000ef   jal ra,1b54 (19c0 + 0x194) <leave_critical_section> 
    19c4:  00000013   li zero,0 (addi zero,zero,0)
    19c8:  02c12083   lw ra,44(sp)
    19cc:  02812403   lw s0,40(sp)
    19d0:  03010113   addi sp,sp,48
    19d4:  00008067   ret : jalr zero,0(ra)
=============== 000019d8 : <_io_getch> =================================
    19d8:  fe010113   addi sp,sp,-32
    19dc:  00112e23   sw ra,28(sp)
    19e0:  00812c23   sw s0,24(sp)
    19e4:  02010413   addi s0,sp,32
    19e8:  000217b7   lui a5,0x21
    19ec:  13c7a783   lw a5,316(a5)
    19f0:  00021737   lui a4,0x21
    19f4:  02470713   addi a4,a4,36
    19f8:  00279793   slli a5,a5,0x2
    19fc:  00f707b3   add a5,a4,a5
    1a00:  0007a783   lw a5,0(a5)
    1a04:  fef42623   sw a5,-20(s0)
    1a08:  00000013   li zero,0 (addi zero,zero,0)
    1a0c:  fec42783   lw a5,-20(s0)
    1a10:  0047a783   lw a5,4(a5)
    1a14:  0087f793   andi a5,a5,8
    1a18:  fe079ae3   bne a5,zero,1a0c (1a18 - 0xc)
    1a1c:  fec42783   lw a5,-20(s0)
    1a20:  0007c783   lbu a5,0(a5)
    1a24:  0ff7f793   andi a5,a5,255
    1a28:  00078513   mv a0,a5 (addi a0,a5,0)
    1a2c:  01c12083   lw ra,28(sp)
    1a30:  01812403   lw s0,24(sp)
    1a34:  02010113   addi sp,sp,32
    1a38:  00008067   ret : jalr zero,0(ra)
=============== 00001a3c : <_UARTBuf_getch> =================================
    1a3c:  fe010113   addi sp,sp,-32
    1a40:  00112e23   sw ra,28(sp)
    1a44:  00812c23   sw s0,24(sp)
    1a48:  02010413   addi s0,sp,32
    1a4c:  000217b7   lui a5,0x21
    1a50:  13c7a703   lw a4,316(a5)
    1a54:  00070793   mv a5,a4 (addi a5,a4,0)
    1a58:  00479793   slli a5,a5,0x4
    1a5c:  40e787b3   sub a5,a5,a4
    1a60:  00279793   slli a5,a5,0x2
    1a64:  00021737   lui a4,0x21
    1a68:  04070713   addi a4,a4,64
    1a6c:  00e787b3   add a5,a5,a4
    1a70:  fef42623   sw a5,-20(s0)
    1a74:  00000013   li zero,0 (addi zero,zero,0)
    1a78:  fec42783   lw a5,-20(s0)
    1a7c:  0007c783   lbu a5,0(a5)
    1a80:  0ff7f793   andi a5,a5,255
    1a84:  fe078ae3   beq a5,zero,1a78 (1a84 - 0xc)
    1a88:  074000ef   jal ra,1afc (1a88 + 0x74) <enter_critical_section> 
    1a8c:  fec42503   lw a0,-20(s0)
    1a90:  338000ef   jal ra,1dc8 (1a90 + 0x338) <UARTBuf_read> 
    1a94:  00050793   mv a5,a0 (addi a5,a0,0)
    1a98:  fef405a3   sb a5,-21(s0)
    1a9c:  0b8000ef   jal ra,1b54 (1a9c + 0xb8) <leave_critical_section> 
    1aa0:  feb44783   lbu a5,-21(s0)
    1aa4:  00078513   mv a0,a5 (addi a0,a5,0)
    1aa8:  01c12083   lw ra,28(sp)
    1aac:  01812403   lw s0,24(sp)
    1ab0:  02010113   addi sp,sp,32
    1ab4:  00008067   ret : jalr zero,0(ra)
=============== 00001ab8 : <UARTBuf_consume_new_line> =================================
    1ab8:  fe010113   addi sp,sp,-32
    1abc:  00112e23   sw ra,28(sp)
    1ac0:  00812c23   sw s0,24(sp)
    1ac4:  02010413   addi s0,sp,32
    1ac8:  fea42623   sw a0,-20(s0)
    1acc:  030000ef   jal ra,1afc (1acc + 0x30) <enter_critical_section> 
    1ad0:  fec42783   lw a5,-20(s0)
    1ad4:  00c7a783   lw a5,12(a5)
    1ad8:  fff78713   addi a4,a5,-1
    1adc:  fec42783   lw a5,-20(s0)
    1ae0:  00e7a623   sw a4,12(a5)
    1ae4:  070000ef   jal ra,1b54 (1ae4 + 0x70) <leave_critical_section> 
    1ae8:  00000013   li zero,0 (addi zero,zero,0)
    1aec:  01c12083   lw ra,28(sp)
    1af0:  01812403   lw s0,24(sp)
    1af4:  02010113   addi sp,sp,32
    1af8:  00008067   ret : jalr zero,0(ra)
=============== 00001afc : <enter_critical_section> =================================
    1afc:  ff010113   addi sp,sp,-16
    1b00:  00112623   sw ra,12(sp)
    1b04:  00812423   sw s0,8(sp)
    1b08:  01010413   addi s0,sp,16
    1b0c:  000217b7   lui a5,0x21
    1b10:  1447a783   lw a5,324(a5)
    1b14:  00178693   addi a3,a5,1
    1b18:  00021737   lui a4,0x21
    1b1c:  14d72223   sw a3,324(a4)
    1b20:  00079c63   bne a5,zero,1b38 (1b20 + 0x18)
    1b24:  30002773   csrrs a4,zero
    1b28:  000217b7   lui a5,0x21
    1b2c:  14e7a023   sw a4,320(a5)
    1b30:  30047073   csrrci zero,768
    1b34:  00c0006f   jal zero,1b40 (1b34 + 0xc)
    1b38:  00000513   li a0,0 (addi a0,zero,0)
    1b3c:  381000ef   jal ra,26bc (1b3c + 0xb80) <set_gpio_error> 
    1b40:  00000013   li zero,0 (addi zero,zero,0)
    1b44:  00c12083   lw ra,12(sp)
    1b48:  00812403   lw s0,8(sp)
    1b4c:  01010113   addi sp,sp,16
    1b50:  00008067   ret : jalr zero,0(ra)
=============== 00001b54 : <leave_critical_section> =================================
    1b54:  ff010113   addi sp,sp,-16
    1b58:  00112623   sw ra,12(sp)
    1b5c:  00812423   sw s0,8(sp)
    1b60:  01010413   addi s0,sp,16
    1b64:  000217b7   lui a5,0x21
    1b68:  1447a783   lw a5,324(a5)
    1b6c:  fff78713   addi a4,a5,-1
    1b70:  000217b7   lui a5,0x21
    1b74:  14e7a223   sw a4,324(a5)
    1b78:  000217b7   lui a5,0x21
    1b7c:  1447a783   lw a5,324(a5)
    1b80:  00079a63   bne a5,zero,1b94 (1b80 + 0x14)
    1b84:  000217b7   lui a5,0x21
    1b88:  1407a783   lw a5,320(a5)
    1b8c:  30079073   csrrw zero,a5
    1b90:  00c0006f   jal zero,1b9c (1b90 + 0xc)
    1b94:  00100513   li a0,1 (addi a0,zero,1)
    1b98:  325000ef   jal ra,26bc (1b98 + 0xb24) <set_gpio_error> 
    1b9c:  00000013   li zero,0 (addi zero,zero,0)
    1ba0:  00c12083   lw ra,12(sp)
    1ba4:  00812403   lw s0,8(sp)
    1ba8:  01010113   addi sp,sp,16
    1bac:  00008067   ret : jalr zero,0(ra)
=============== 00001bb0 : <UARTBuf_reset> =================================
    1bb0:  fe010113   addi sp,sp,-32
    1bb4:  00112e23   sw ra,28(sp)
    1bb8:  00812c23   sw s0,24(sp)
    1bbc:  02010413   addi s0,sp,32
    1bc0:  fea42623   sw a0,-20(s0)
    1bc4:  fec42783   lw a5,-20(s0)
    1bc8:  0007a223   sw zero,4(a5)
    1bcc:  fec42783   lw a5,-20(s0)
    1bd0:  0007a423   sw zero,8(a5)
    1bd4:  fec42783   lw a5,-20(s0)
    1bd8:  000780a3   sb zero,1(a5)
    1bdc:  fec42783   lw a5,-20(s0)
    1be0:  00078023   sb zero,0(a5)
    1be4:  fec42783   lw a5,-20(s0)
    1be8:  0007a623   sw zero,12(a5)
    1bec:  fec42783   lw a5,-20(s0)
    1bf0:  0007a823   sw zero,16(a5)
    1bf4:  00000013   li zero,0 (addi zero,zero,0)
    1bf8:  01c12083   lw ra,28(sp)
    1bfc:  01812403   lw s0,24(sp)
    1c00:  02010113   addi sp,sp,32
    1c04:  00008067   ret : jalr zero,0(ra)
=============== 00001c08 : <UARTBuf_update> =================================
    1c08:  fd010113   addi sp,sp,-48
    1c0c:  02112623   sw ra,44(sp)
    1c10:  02812423   sw s0,40(sp)
    1c14:  03010413   addi s0,sp,48
    1c18:  fca42e23   sw a0,-36(s0)
    1c1c:  fcb42c23   sw a1,-40(s0)
    1c20:  fdc42783   lw a5,-36(s0)
    1c24:  0047a783   lw a5,4(a5)
    1c28:  fef42623   sw a5,-20(s0)
    1c2c:  fdc42783   lw a5,-36(s0)
    1c30:  0087a783   lw a5,8(a5)
    1c34:  fef42423   sw a5,-24(s0)
    1c38:  fd842783   lw a5,-40(s0)
    1c3c:  02079263   bne a5,zero,1c60 (1c3c + 0x24)
    1c40:  fec42703   lw a4,-20(s0)
    1c44:  02700793   li a5,39 (addi a5,zero,39)
    1c48:  00f70863   beq a4,a5,1c58 (1c48 + 0x10)
    1c4c:  fec42783   lw a5,-20(s0)
    1c50:  00178793   addi a5,a5,1
    1c54:  0080006f   jal zero,1c5c (1c54 + 0x8)
    1c58:  00000793   li a5,0 (addi a5,zero,0)
    1c5c:  fef42623   sw a5,-20(s0)
    1c60:  fd842783   lw a5,-40(s0)
    1c64:  02078263   beq a5,zero,1c88 (1c64 + 0x24)
    1c68:  fe842703   lw a4,-24(s0)
    1c6c:  02700793   li a5,39 (addi a5,zero,39)
    1c70:  00f70863   beq a4,a5,1c80 (1c70 + 0x10)
    1c74:  fe842783   lw a5,-24(s0)
    1c78:  00178793   addi a5,a5,1
    1c7c:  0080006f   jal zero,1c84 (1c7c + 0x8)
    1c80:  00000793   li a5,0 (addi a5,zero,0)
    1c84:  fef42423   sw a5,-24(s0)
    1c88:  fd842783   lw a5,-40(s0)
    1c8c:  00079863   bne a5,zero,1c9c (1c8c + 0x10)
    1c90:  fec42703   lw a4,-20(s0)
    1c94:  fe842783   lw a5,-24(s0)
    1c98:  00f70663   beq a4,a5,1ca4 (1c98 + 0xc)
    1c9c:  00100793   li a5,1 (addi a5,zero,1)
    1ca0:  0080006f   jal zero,1ca8 (1ca0 + 0x8)
    1ca4:  00000793   li a5,0 (addi a5,zero,0)
    1ca8:  0ff7f713   andi a4,a5,255
    1cac:  fdc42783   lw a5,-36(s0)
    1cb0:  00e78023   sb a4,0(a5)
    1cb4:  fd842783   lw a5,-40(s0)
    1cb8:  00078c63   beq a5,zero,1cd0 (1cb8 + 0x18)
    1cbc:  fec42703   lw a4,-20(s0)
    1cc0:  fe842783   lw a5,-24(s0)
    1cc4:  00f71663   bne a4,a5,1cd0 (1cc4 + 0xc)
    1cc8:  00100793   li a5,1 (addi a5,zero,1)
    1ccc:  0080006f   jal zero,1cd4 (1ccc + 0x8)
    1cd0:  00000793   li a5,0 (addi a5,zero,0)
    1cd4:  0ff7f713   andi a4,a5,255
    1cd8:  fdc42783   lw a5,-36(s0)
    1cdc:  00e780a3   sb a4,1(a5)
    1ce0:  fdc42783   lw a5,-36(s0)
    1ce4:  fec42703   lw a4,-20(s0)
    1ce8:  00e7a223   sw a4,4(a5)
    1cec:  fdc42783   lw a5,-36(s0)
    1cf0:  fe842703   lw a4,-24(s0)
    1cf4:  00e7a423   sw a4,8(a5)
    1cf8:  00000013   li zero,0 (addi zero,zero,0)
    1cfc:  02c12083   lw ra,44(sp)
    1d00:  02812403   lw s0,40(sp)
    1d04:  03010113   addi sp,sp,48
    1d08:  00008067   ret : jalr zero,0(ra)
=============== 00001d0c : <UARTBuf_buffered_size> =================================
    1d0c:  fd010113   addi sp,sp,-48
    1d10:  02112623   sw ra,44(sp)
    1d14:  02812423   sw s0,40(sp)
    1d18:  03010413   addi s0,sp,48
    1d1c:  fca42e23   sw a0,-36(s0)
    1d20:  fdc42783   lw a5,-36(s0)
    1d24:  0087a703   lw a4,8(a5)
    1d28:  fdc42783   lw a5,-36(s0)
    1d2c:  0047a783   lw a5,4(a5)
    1d30:  40f707b3   sub a5,a4,a5
    1d34:  fef42623   sw a5,-20(s0)
    1d38:  fec42783   lw a5,-20(s0)
    1d3c:  0007d863   bge a5,zero,1d4c (1d3c + 0x10)
    1d40:  fec42783   lw a5,-20(s0)
    1d44:  02878793   addi a5,a5,40
    1d48:  fef42623   sw a5,-20(s0)
    1d4c:  fec42783   lw a5,-20(s0)
    1d50:  00078513   mv a0,a5 (addi a0,a5,0)
    1d54:  02c12083   lw ra,44(sp)
    1d58:  02812403   lw s0,40(sp)
    1d5c:  03010113   addi sp,sp,48
    1d60:  00008067   ret : jalr zero,0(ra)
=============== 00001d64 : <UARTBuf_write> =================================
    1d64:  fe010113   addi sp,sp,-32
    1d68:  00112e23   sw ra,28(sp)
    1d6c:  00812c23   sw s0,24(sp)
    1d70:  02010413   addi s0,sp,32
    1d74:  fea42623   sw a0,-20(s0)
    1d78:  00058793   mv a5,a1 (addi a5,a1,0)
    1d7c:  fef405a3   sb a5,-21(s0)
    1d80:  fec42783   lw a5,-20(s0)
    1d84:  0017c783   lbu a5,1(a5)
    1d88:  0ff7f793   andi a5,a5,255
    1d8c:  02079463   bne a5,zero,1db4 (1d8c + 0x28)
    1d90:  fec42783   lw a5,-20(s0)
    1d94:  0087a783   lw a5,8(a5)
    1d98:  fec42703   lw a4,-20(s0)
    1d9c:  00f707b3   add a5,a4,a5
    1da0:  feb44703   lbu a4,-21(s0)
    1da4:  00e78a23   sb a4,20(a5)
    1da8:  00100593   li a1,1 (addi a1,zero,1)
    1dac:  fec42503   lw a0,-20(s0)
    1db0:  e59ff0ef   jal ra,1c08 (1db0 - 0x1a8) <UARTBuf_update> 
    1db4:  00000013   li zero,0 (addi zero,zero,0)
    1db8:  01c12083   lw ra,28(sp)
    1dbc:  01812403   lw s0,24(sp)
    1dc0:  02010113   addi sp,sp,32
    1dc4:  00008067   ret : jalr zero,0(ra)
=============== 00001dc8 : <UARTBuf_read> =================================
    1dc8:  fd010113   addi sp,sp,-48
    1dcc:  02112623   sw ra,44(sp)
    1dd0:  02812423   sw s0,40(sp)
    1dd4:  03010413   addi s0,sp,48
    1dd8:  fca42e23   sw a0,-36(s0)
    1ddc:  fe0407a3   sb zero,-17(s0)
    1de0:  fdc42783   lw a5,-36(s0)
    1de4:  0007c783   lbu a5,0(a5)
    1de8:  0ff7f793   andi a5,a5,255
    1dec:  02078463   beq a5,zero,1e14 (1dec + 0x28)
    1df0:  fdc42783   lw a5,-36(s0)
    1df4:  0047a783   lw a5,4(a5)
    1df8:  fdc42703   lw a4,-36(s0)
    1dfc:  00f707b3   add a5,a4,a5
    1e00:  0147c783   lbu a5,20(a5)
    1e04:  fef407a3   sb a5,-17(s0)
    1e08:  00000593   li a1,0 (addi a1,zero,0)
    1e0c:  fdc42503   lw a0,-36(s0)
    1e10:  df9ff0ef   jal ra,1c08 (1e10 - 0x208) <UARTBuf_update> 
    1e14:  fef44783   lbu a5,-17(s0)
    1e18:  00078513   mv a0,a5 (addi a0,a5,0)
    1e1c:  02c12083   lw ra,44(sp)
    1e20:  02812403   lw s0,40(sp)
    1e24:  03010113   addi sp,sp,48
    1e28:  00008067   ret : jalr zero,0(ra)
=============== 00001e2c : <UARTBuf_read_last> =================================
    1e2c:  fd010113   addi sp,sp,-48
    1e30:  02112623   sw ra,44(sp)
    1e34:  02812423   sw s0,40(sp)
    1e38:  03010413   addi s0,sp,48
    1e3c:  fca42e23   sw a0,-36(s0)
    1e40:  fdc42783   lw a5,-36(s0)
    1e44:  0087a783   lw a5,8(a5)
    1e48:  fef42623   sw a5,-20(s0)
    1e4c:  fec42783   lw a5,-20(s0)
    1e50:  02079063   bne a5,zero,1e70 (1e50 + 0x20)
    1e54:  fdc42783   lw a5,-36(s0)
    1e58:  0007c783   lbu a5,0(a5)
    1e5c:  0ff7f793   andi a5,a5,255
    1e60:  00078e63   beq a5,zero,1e7c (1e60 + 0x1c)
    1e64:  02700793   li a5,39 (addi a5,zero,39)
    1e68:  fef42623   sw a5,-20(s0)
    1e6c:  0100006f   jal zero,1e7c (1e6c + 0x10)
    1e70:  fec42783   lw a5,-20(s0)
    1e74:  fff78793   addi a5,a5,-1
    1e78:  fef42623   sw a5,-20(s0)
    1e7c:  fdc42703   lw a4,-36(s0)
    1e80:  fec42783   lw a5,-20(s0)
    1e84:  00f707b3   add a5,a4,a5
    1e88:  0147c783   lbu a5,20(a5)
    1e8c:  0ff7f793   andi a5,a5,255
    1e90:  00078513   mv a0,a5 (addi a0,a5,0)
    1e94:  02c12083   lw ra,44(sp)
    1e98:  02812403   lw s0,40(sp)
    1e9c:  03010113   addi sp,sp,48
    1ea0:  00008067   ret : jalr zero,0(ra)
=============== 00001ea4 : <flush_UART> =================================
    1ea4:  ff010113   addi sp,sp,-16
    1ea8:  00112623   sw ra,12(sp)
    1eac:  00812423   sw s0,8(sp)
    1eb0:  01010413   addi s0,sp,16
    1eb4:  00000013   li zero,0 (addi zero,zero,0)
    1eb8:  000217b7   lui a5,0x21
    1ebc:  0b878793   addi a5,a5,184
    1ec0:  0007c783   lbu a5,0(a5)
    1ec4:  0ff7f793   andi a5,a5,255
    1ec8:  fe0798e3   bne a5,zero,1eb8 (1ec8 - 0x10)
    1ecc:  000217b7   lui a5,0x21
    1ed0:  02478793   addi a5,a5,36
    1ed4:  0007a783   lw a5,0(a5)
    1ed8:  0047a783   lw a5,4(a5)
    1edc:  0027f793   andi a5,a5,2
    1ee0:  fc078ce3   beq a5,zero,1eb8 (1ee0 - 0x28)
    1ee4:  000217b7   lui a5,0x21
    1ee8:  02478793   addi a5,a5,36
    1eec:  0007a783   lw a5,0(a5)
    1ef0:  0047a783   lw a5,4(a5)
    1ef4:  0107f793   andi a5,a5,16
    1ef8:  fc0790e3   bne a5,zero,1eb8 (1ef8 - 0x40)
    1efc:  00000013   li zero,0 (addi zero,zero,0)
    1f00:  000217b7   lui a5,0x21
    1f04:  0b878793   addi a5,a5,184
    1f08:  03c7c783   lbu a5,60(a5)
    1f0c:  0ff7f793   andi a5,a5,255
    1f10:  fe0798e3   bne a5,zero,1f00 (1f10 - 0x10)
    1f14:  000217b7   lui a5,0x21
    1f18:  02478793   addi a5,a5,36
    1f1c:  0047a783   lw a5,4(a5)
    1f20:  0047a783   lw a5,4(a5)
    1f24:  0027f793   andi a5,a5,2
    1f28:  fc078ce3   beq a5,zero,1f00 (1f28 - 0x28)
    1f2c:  000217b7   lui a5,0x21
    1f30:  02478793   addi a5,a5,36
    1f34:  0047a783   lw a5,4(a5)
    1f38:  0047a783   lw a5,4(a5)
    1f3c:  0107f793   andi a5,a5,16
    1f40:  fc0790e3   bne a5,zero,1f00 (1f40 - 0x40)
    1f44:  00000013   li zero,0 (addi zero,zero,0)
    1f48:  00000013   li zero,0 (addi zero,zero,0)
    1f4c:  00c12083   lw ra,12(sp)
    1f50:  00812403   lw s0,8(sp)
    1f54:  01010113   addi sp,sp,16
    1f58:  00008067   ret : jalr zero,0(ra)
=============== 00001f5c : <UARTBuf_reset_all> =================================
    1f5c:  ff010113   addi sp,sp,-16
    1f60:  00112623   sw ra,12(sp)
    1f64:  00812423   sw s0,8(sp)
    1f68:  01010413   addi s0,sp,16
    1f6c:  000217b7   lui a5,0x21
    1f70:  0b878513   addi a0,a5,184
    1f74:  c3dff0ef   jal ra,1bb0 (1f74 - 0x3c4) <UARTBuf_reset> 
    1f78:  000217b7   lui a5,0x21
    1f7c:  0f478513   addi a0,a5,244
    1f80:  c31ff0ef   jal ra,1bb0 (1f80 - 0x3d0) <UARTBuf_reset> 
    1f84:  000217b7   lui a5,0x21
    1f88:  04078513   addi a0,a5,64
    1f8c:  c25ff0ef   jal ra,1bb0 (1f8c - 0x3dc) <UARTBuf_reset> 
    1f90:  000217b7   lui a5,0x21
    1f94:  07c78513   addi a0,a5,124
    1f98:  c19ff0ef   jal ra,1bb0 (1f98 - 0x3e8) <UARTBuf_reset> 
    1f9c:  00000013   li zero,0 (addi zero,zero,0)
    1fa0:  00c12083   lw ra,12(sp)
    1fa4:  00812403   lw s0,8(sp)
    1fa8:  01010113   addi sp,sp,16
    1fac:  00008067   ret : jalr zero,0(ra)
=============== 00001fb0 : <enable_BUTTON_interrupt> =================================
    1fb0:  ff010113   addi sp,sp,-16
    1fb4:  00112623   sw ra,12(sp)
    1fb8:  00812423   sw s0,8(sp)
    1fbc:  01010413   addi s0,sp,16
    1fc0:  000037b7   lui a5,0x3
    1fc4:  b9878793   addi a5,a5,-1128
    1fc8:  30579073   csrrw zero,a5
    1fcc:  000217b7   lui a5,0x21
    1fd0:  01c7a783   lw a5,28(a5)
    1fd4:  0087a703   lw a4,8(a5)
    1fd8:  000217b7   lui a5,0x21
    1fdc:  01c7a783   lw a5,28(a5)
    1fe0:  07c76713   ori a4,a4,124
    1fe4:  00e7a423   sw a4,8(a5)
    1fe8:  000017b7   lui a5,0x1
    1fec:  80078793   addi a5,a5,-2048
    1ff0:  3047a073   csrrs zero,a5
    1ff4:  30046073   csrrsi zero,768
    1ff8:  00000013   li zero,0 (addi zero,zero,0)
    1ffc:  00c12083   lw ra,12(sp)
    2000:  00812403   lw s0,8(sp)
    2004:  01010113   addi sp,sp,16
    2008:  00008067   ret : jalr zero,0(ra)
=============== 0000200c : <enable_UART_interrupt> =================================
    200c:  ff010113   addi sp,sp,-16
    2010:  00112623   sw ra,12(sp)
    2014:  00812423   sw s0,8(sp)
    2018:  01010413   addi s0,sp,16
    201c:  f41ff0ef   jal ra,1f5c (201c - 0xc0) <UARTBuf_reset_all> 
    2020:  000217b7   lui a5,0x21
    2024:  00002737   lui a4,0x2
    2028:  91070713   addi a4,a4,-1776
    202c:  02e7a623   sw a4,44(a5)
    2030:  000217b7   lui a5,0x21
    2034:  00002737   lui a4,0x2
    2038:  a3c70713   addi a4,a4,-1476
    203c:  02e7a823   sw a4,48(a5)
    2040:  000217b7   lui a5,0x21
    2044:  01c7a783   lw a5,28(a5)
    2048:  0087a703   lw a4,8(a5)
    204c:  000217b7   lui a5,0x21
    2050:  01c7a783   lw a5,28(a5)
    2054:  00376713   ori a4,a4,3
    2058:  00e7a423   sw a4,8(a5)
    205c:  000017b7   lui a5,0x1
    2060:  80078793   addi a5,a5,-2048
    2064:  3047a073   csrrs zero,a5
    2068:  30046073   csrrsi zero,768
    206c:  000037b7   lui a5,0x3
    2070:  b9878793   addi a5,a5,-1128
    2074:  30579073   csrrw zero,a5
    2078:  00000013   li zero,0 (addi zero,zero,0)
    207c:  00c12083   lw ra,12(sp)
    2080:  00812403   lw s0,8(sp)
    2084:  01010113   addi sp,sp,16
    2088:  00008067   ret : jalr zero,0(ra)
=============== 0000208c : <disable_UART_interrupt> =================================
    208c:  ff010113   addi sp,sp,-16
    2090:  00112623   sw ra,12(sp)
    2094:  00812423   sw s0,8(sp)
    2098:  01010413   addi s0,sp,16
    209c:  00000013   li zero,0 (addi zero,zero,0)
    20a0:  000217b7   lui a5,0x21
    20a4:  02478793   addi a5,a5,36
    20a8:  0007a783   lw a5,0(a5)
    20ac:  0047a783   lw a5,4(a5)
    20b0:  0107f793   andi a5,a5,16
    20b4:  fe0796e3   bne a5,zero,20a0 (20b4 - 0x14)
    20b8:  00000013   li zero,0 (addi zero,zero,0)
    20bc:  000217b7   lui a5,0x21
    20c0:  02478793   addi a5,a5,36
    20c4:  0047a783   lw a5,4(a5)
    20c8:  0047a783   lw a5,4(a5)
    20cc:  0107f793   andi a5,a5,16
    20d0:  fe0796e3   bne a5,zero,20bc (20d0 - 0x14)
    20d4:  000217b7   lui a5,0x21
    20d8:  00002737   lui a4,0x2
    20dc:  8a470713   addi a4,a4,-1884
    20e0:  02e7a623   sw a4,44(a5)
    20e4:  000217b7   lui a5,0x21
    20e8:  00002737   lui a4,0x2
    20ec:  9d870713   addi a4,a4,-1576
    20f0:  02e7a823   sw a4,48(a5)
    20f4:  000217b7   lui a5,0x21
    20f8:  01c7a783   lw a5,28(a5)
    20fc:  0087a703   lw a4,8(a5)
    2100:  000217b7   lui a5,0x21
    2104:  01c7a783   lw a5,28(a5)
    2108:  ffc77713   andi a4,a4,-4
    210c:  00e7a423   sw a4,8(a5)
    2110:  30047073   csrrci zero,768
    2114:  e49ff0ef   jal ra,1f5c (2114 - 0x1b8) <UARTBuf_reset_all> 
    2118:  00000013   li zero,0 (addi zero,zero,0)
    211c:  00c12083   lw ra,12(sp)
    2120:  00812403   lw s0,8(sp)
    2124:  01010113   addi sp,sp,16
    2128:  00008067   ret : jalr zero,0(ra)
=============== 0000212c : <UARTintr_handler> =================================
    212c:  fd010113   addi sp,sp,-48
    2130:  02112623   sw ra,44(sp)
    2134:  02812423   sw s0,40(sp)
    2138:  03010413   addi s0,sp,48
    213c:  fca42e23   sw a0,-36(s0)
    2140:  000217b7   lui a5,0x21
    2144:  02478713   addi a4,a5,36
    2148:  fdc42783   lw a5,-36(s0)
    214c:  00279793   slli a5,a5,0x2
    2150:  00f707b3   add a5,a4,a5
    2154:  0007a783   lw a5,0(a5)
    2158:  fef42623   sw a5,-20(s0)
    215c:  fdc42703   lw a4,-36(s0)
    2160:  00070793   mv a5,a4 (addi a5,a4,0)
    2164:  00479793   slli a5,a5,0x4
    2168:  40e787b3   sub a5,a5,a4
    216c:  00279793   slli a5,a5,0x2
    2170:  00021737   lui a4,0x21
    2174:  0b870713   addi a4,a4,184
    2178:  00e787b3   add a5,a5,a4
    217c:  fef42423   sw a5,-24(s0)
    2180:  01c0006f   jal zero,219c (2180 + 0x1c)
    2184:  fe842503   lw a0,-24(s0)
    2188:  c41ff0ef   jal ra,1dc8 (2188 - 0x3c0) <UARTBuf_read> 
    218c:  00050793   mv a5,a0 (addi a5,a0,0)
    2190:  00078713   mv a4,a5 (addi a4,a5,0)
    2194:  fec42783   lw a5,-20(s0)
    2198:  00e78023   sb a4,0(a5)
    219c:  fe842783   lw a5,-24(s0)
    21a0:  0007c783   lbu a5,0(a5)
    21a4:  0ff7f793   andi a5,a5,255
    21a8:  00078a63   beq a5,zero,21bc (21a8 + 0x14)
    21ac:  fec42783   lw a5,-20(s0)
    21b0:  0047a783   lw a5,4(a5)
    21b4:  0017f793   andi a5,a5,1
    21b8:  fc0786e3   beq a5,zero,2184 (21b8 - 0x34)
    21bc:  fdc42703   lw a4,-36(s0)
    21c0:  00070793   mv a5,a4 (addi a5,a4,0)
    21c4:  00479793   slli a5,a5,0x4
    21c8:  40e787b3   sub a5,a5,a4
    21cc:  00279793   slli a5,a5,0x2
    21d0:  00021737   lui a4,0x21
    21d4:  04070713   addi a4,a4,64
    21d8:  00e787b3   add a5,a5,a4
    21dc:  fef42223   sw a5,-28(s0)
    21e0:  05c0006f   jal zero,223c (21e0 + 0x5c)
    21e4:  fec42783   lw a5,-20(s0)
    21e8:  0007c783   lbu a5,0(a5)
    21ec:  fef401a3   sb a5,-29(s0)
    21f0:  fe344783   lbu a5,-29(s0)
    21f4:  00078593   mv a1,a5 (addi a1,a5,0)
    21f8:  fe442503   lw a0,-28(s0)
    21fc:  b69ff0ef   jal ra,1d64 (21fc - 0x498) <UARTBuf_write> 
    2200:  fe344703   lbu a4,-29(s0)
    2204:  01a00793   li a5,26 (addi a5,zero,26)
    2208:  00f71a63   bne a4,a5,221c (2208 + 0x14)
    220c:  fe442783   lw a5,-28(s0)
    2210:  00100713   li a4,1 (addi a4,zero,1)
    2214:  00e7a823   sw a4,16(a5)
    2218:  0240006f   jal zero,223c (2218 + 0x24)
    221c:  fe344703   lbu a4,-29(s0)
    2220:  00a00793   li a5,10 (addi a5,zero,10)
    2224:  00f71c63   bne a4,a5,223c (2224 + 0x18)
    2228:  fe442783   lw a5,-28(s0)
    222c:  00c7a783   lw a5,12(a5)
    2230:  00178713   addi a4,a5,1
    2234:  fe442783   lw a5,-28(s0)
    2238:  00e7a623   sw a4,12(a5)
    223c:  fe442783   lw a5,-28(s0)
    2240:  0017c783   lbu a5,1(a5)
    2244:  0ff7f793   andi a5,a5,255
    2248:  00079a63   bne a5,zero,225c (2248 + 0x14)
    224c:  fec42783   lw a5,-20(s0)
    2250:  0047a783   lw a5,4(a5)
    2254:  0087f793   andi a5,a5,8
    2258:  f80786e3   beq a5,zero,21e4 (2258 - 0x74)
    225c:  00000013   li zero,0 (addi zero,zero,0)
    2260:  02c12083   lw ra,44(sp)
    2264:  02812403   lw s0,40(sp)
    2268:  03010113   addi sp,sp,48
    226c:  00008067   ret : jalr zero,0(ra)
=============== 00002270 : <ext_intr_handler> =================================
    2270:  fe010113   addi sp,sp,-32
    2274:  00112e23   sw ra,28(sp)
    2278:  00812c23   sw s0,24(sp)
    227c:  02010413   addi s0,sp,32
    2280:  000217b7   lui a5,0x21
    2284:  01c7a783   lw a5,28(a5)
    2288:  0007a783   lw a5,0(a5)
    228c:  fef42423   sw a5,-24(s0)
    2290:  fe042623   sw zero,-20(s0)
    2294:  0340006f   jal zero,22c8 (2294 + 0x34)
    2298:  fec42783   lw a5,-20(s0)
    229c:  00100713   li a4,1 (addi a4,zero,1)
    22a0:  00f717b3   sll a5,a4,a5
    22a4:  00078713   mv a4,a5 (addi a4,a5,0)
    22a8:  fe842783   lw a5,-24(s0)
    22ac:  00f777b3   and a5,a4,a5
    22b0:  00078663   beq a5,zero,22bc (22b0 + 0xc)
    22b4:  fec42503   lw a0,-20(s0)
    22b8:  e75ff0ef   jal ra,212c (22b8 - 0x18c) <UARTintr_handler> 
    22bc:  fec42783   lw a5,-20(s0)
    22c0:  00178793   addi a5,a5,1
    22c4:  fef42623   sw a5,-20(s0)
    22c8:  fec42703   lw a4,-20(s0)
    22cc:  00100793   li a5,1 (addi a5,zero,1)
    22d0:  fce7d4e3   bge a5,a4,2298 (22d0 - 0x38)
    22d4:  000217b7   lui a5,0x21
    22d8:  01c7a783   lw a5,28(a5)
    22dc:  07f00713   li a4,127 (addi a4,zero,127)
    22e0:  00e7a023   sw a4,0(a5)
    22e4:  00000013   li zero,0 (addi zero,zero,0)
    22e8:  01c12083   lw ra,28(sp)
    22ec:  01812403   lw s0,24(sp)
    22f0:  02010113   addi sp,sp,32
    22f4:  00008067   ret : jalr zero,0(ra)
=============== 000022f8 : <mhandler> =================================
    22f8:  fe010113   addi sp,sp,-32
    22fc:  00112e23   sw ra,28(sp)
    2300:  00812c23   sw s0,24(sp)
    2304:  02010413   addi s0,sp,32
    2308:  342027f3   csrrs a5,zero
    230c:  fef42623   sw a5,-20(s0)
    2310:  fec42783   lw a5,-20(s0)
    2314:  0807de63   bge a5,zero,23b0 (2314 + 0x9c)
    2318:  fec42783   lw a5,-20(s0)
    231c:  0ff7f793   andi a5,a5,255
    2320:  00700713   li a4,7 (addi a4,zero,7)
    2324:  00e78863   beq a5,a4,2334 (2324 + 0x10)
    2328:  00b00713   li a4,11 (addi a4,zero,11)
    232c:  06e78c63   beq a5,a4,23a4 (232c + 0x78)
    2330:  0800006f   jal zero,23b0 (2330 + 0x80)
    2334:  000217b7   lui a5,0x21
    2338:  01c7a783   lw a5,28(a5)
    233c:  0107a703   lw a4,16(a5)
    2340:  0147a783   lw a5,20(a5)
    2344:  000216b7   lui a3,0x21
    2348:  1486a683   lw a3,328(a3)
    234c:  00068513   mv a0,a3 (addi a0,a3,0)
    2350:  41f6d693   srai a3,a3,0x1f
    2354:  00068593   mv a1,a3 (addi a1,a3,0)
    2358:  000216b7   lui a3,0x21
    235c:  01c6a803   lw a6,28(a3)
    2360:  00a70633   add a2,a4,a0
    2364:  00060893   mv a7,a2 (addi a7,a2,0)
    2368:  00e8b8b3   sltiu a7,a7,a4
    236c:  00b786b3   add a3,a5,a1
    2370:  00d887b3   add a5,a7,a3
    2374:  00078693   mv a3,a5 (addi a3,a5,0)
    2378:  00060713   mv a4,a2 (addi a4,a2,0)
    237c:  00068793   mv a5,a3 (addi a5,a3,0)
    2380:  00e82c23   sw a4,24(a6)
    2384:  00f82e23   sw a5,28(a6)
    2388:  000217b7   lui a5,0x21
    238c:  14c7a783   lw a5,332(a5)
    2390:  00078e63   beq a5,zero,23ac (2390 + 0x1c)
    2394:  000217b7   lui a5,0x21
    2398:  14c7a783   lw a5,332(a5)
    239c:  000780e7   jalr ra,0(a5)
    23a0:  00c0006f   jal zero,23ac (23a0 + 0xc)
    23a4:  ecdff0ef   jal ra,2270 (23a4 - 0x134) <ext_intr_handler> 
    23a8:  0080006f   jal zero,23b0 (23a8 + 0x8)
    23ac:  00000013   li zero,0 (addi zero,zero,0)
    23b0:  00000013   li zero,0 (addi zero,zero,0)
    23b4:  01c12083   lw ra,28(sp)
    23b8:  01812403   lw s0,24(sp)
    23bc:  02010113   addi sp,sp,32
    23c0:  00008067   ret : jalr zero,0(ra)
=============== 000023c4 : <set_gpio_string> =================================
    23c4:  fe010113   addi sp,sp,-32
    23c8:  00112e23   sw ra,28(sp)
    23cc:  00812c23   sw s0,24(sp)
    23d0:  02010413   addi s0,sp,32
    23d4:  fea42423   sw a0,-24(s0)
    23d8:  feb42623   sw a1,-20(s0)
    23dc:  000216b7   lui a3,0x21
    23e0:  0206a683   lw a3,32(a3)
    23e4:  fe842603   lw a2,-24(s0)
    23e8:  00c6a223   sw a2,4(a3)
    23ec:  fec42683   lw a3,-20(s0)
    23f0:  0006d713   srli a4,a3,0x0
    23f4:  00000793   li a5,0 (addi a5,zero,0)
    23f8:  000216b7   lui a3,0x21
    23fc:  0206a683   lw a3,32(a3)
    2400:  00070793   mv a5,a4 (addi a5,a4,0)
    2404:  00f6a423   sw a5,8(a3)
    2408:  00000013   li zero,0 (addi zero,zero,0)
    240c:  01c12083   lw ra,28(sp)
    2410:  01812403   lw s0,24(sp)
    2414:  02010113   addi sp,sp,32
    2418:  00008067   ret : jalr zero,0(ra)
=============== 0000241c : <convert_char_seg7> =================================
    241c:  fe010113   addi sp,sp,-32
    2420:  00112e23   sw ra,28(sp)
    2424:  00812c23   sw s0,24(sp)
    2428:  02010413   addi s0,sp,32
    242c:  fea42623   sw a0,-20(s0)
    2430:  fec42783   lw a5,-20(s0)
    2434:  fe078793   addi a5,a5,-32
    2438:  05a00713   li a4,90 (addi a4,zero,90)
    243c:  16f76263   bltu a4,a5,25a0 (243c + 0x164)
    2440:  00279713   slli a4,a5,0x2
    2444:  000207b7   lui a5,0x20
    2448:  06878793   addi a5,a5,104
    244c:  00f707b3   add a5,a4,a5
    2450:  0007a783   lw a5,0(a5)
    2454:  00078067   jalr zero,0(a5)
    2458:  03f00793   li a5,63 (addi a5,zero,63)
    245c:  1480006f   jal zero,25a4 (245c + 0x148)
    2460:  00600793   li a5,6 (addi a5,zero,6)
    2464:  1400006f   jal zero,25a4 (2464 + 0x140)
    2468:  05b00793   li a5,91 (addi a5,zero,91)
    246c:  1380006f   jal zero,25a4 (246c + 0x138)
    2470:  04f00793   li a5,79 (addi a5,zero,79)
    2474:  1300006f   jal zero,25a4 (2474 + 0x130)
    2478:  06600793   li a5,102 (addi a5,zero,102)
    247c:  1280006f   jal zero,25a4 (247c + 0x128)
    2480:  06d00793   li a5,109 (addi a5,zero,109)
    2484:  1200006f   jal zero,25a4 (2484 + 0x120)
    2488:  07d00793   li a5,125 (addi a5,zero,125)
    248c:  1180006f   jal zero,25a4 (248c + 0x118)
    2490:  02700793   li a5,39 (addi a5,zero,39)
    2494:  1100006f   jal zero,25a4 (2494 + 0x110)
    2498:  07f00793   li a5,127 (addi a5,zero,127)
    249c:  1080006f   jal zero,25a4 (249c + 0x108)
    24a0:  06f00793   li a5,111 (addi a5,zero,111)
    24a4:  1000006f   jal zero,25a4 (24a4 + 0x100)
    24a8:  07700793   li a5,119 (addi a5,zero,119)
    24ac:  0f80006f   jal zero,25a4 (24ac + 0xf8)
    24b0:  07c00793   li a5,124 (addi a5,zero,124)
    24b4:  0f00006f   jal zero,25a4 (24b4 + 0xf0)
    24b8:  03900793   li a5,57 (addi a5,zero,57)
    24bc:  0e80006f   jal zero,25a4 (24bc + 0xe8)
    24c0:  05e00793   li a5,94 (addi a5,zero,94)
    24c4:  0e00006f   jal zero,25a4 (24c4 + 0xe0)
    24c8:  07900793   li a5,121 (addi a5,zero,121)
    24cc:  0d80006f   jal zero,25a4 (24cc + 0xd8)
    24d0:  07100793   li a5,113 (addi a5,zero,113)
    24d4:  0d00006f   jal zero,25a4 (24d4 + 0xd0)
    24d8:  03d00793   li a5,61 (addi a5,zero,61)
    24dc:  0c80006f   jal zero,25a4 (24dc + 0xc8)
    24e0:  07600793   li a5,118 (addi a5,zero,118)
    24e4:  0c00006f   jal zero,25a4 (24e4 + 0xc0)
    24e8:  00400793   li a5,4 (addi a5,zero,4)
    24ec:  0b80006f   jal zero,25a4 (24ec + 0xb8)
    24f0:  00e00793   li a5,14 (addi a5,zero,14)
    24f4:  0b00006f   jal zero,25a4 (24f4 + 0xb0)
    24f8:  07800793   li a5,120 (addi a5,zero,120)
    24fc:  0a80006f   jal zero,25a4 (24fc + 0xa8)
    2500:  03800793   li a5,56 (addi a5,zero,56)
    2504:  0a00006f   jal zero,25a4 (2504 + 0xa0)
    2508:  03700793   li a5,55 (addi a5,zero,55)
    250c:  0980006f   jal zero,25a4 (250c + 0x98)
    2510:  05400793   li a5,84 (addi a5,zero,84)
    2514:  0900006f   jal zero,25a4 (2514 + 0x90)
    2518:  05c00793   li a5,92 (addi a5,zero,92)
    251c:  0880006f   jal zero,25a4 (251c + 0x88)
    2520:  07300793   li a5,115 (addi a5,zero,115)
    2524:  0800006f   jal zero,25a4 (2524 + 0x80)
    2528:  06700793   li a5,103 (addi a5,zero,103)
    252c:  0780006f   jal zero,25a4 (252c + 0x78)
    2530:  05000793   li a5,80 (addi a5,zero,80)
    2534:  0700006f   jal zero,25a4 (2534 + 0x70)
    2538:  0ed00793   li a5,237 (addi a5,zero,237)
    253c:  0680006f   jal zero,25a4 (253c + 0x68)
    2540:  07000793   li a5,112 (addi a5,zero,112)
    2544:  0600006f   jal zero,25a4 (2544 + 0x60)
    2548:  03e00793   li a5,62 (addi a5,zero,62)
    254c:  0580006f   jal zero,25a4 (254c + 0x58)
    2550:  01c00793   li a5,28 (addi a5,zero,28)
    2554:  0500006f   jal zero,25a4 (2554 + 0x50)
    2558:  0be00793   li a5,190 (addi a5,zero,190)
    255c:  0480006f   jal zero,25a4 (255c + 0x48)
    2560:  0f600793   li a5,246 (addi a5,zero,246)
    2564:  0400006f   jal zero,25a4 (2564 + 0x40)
    2568:  06e00793   li a5,110 (addi a5,zero,110)
    256c:  0380006f   jal zero,25a4 (256c + 0x38)
    2570:  0db00793   li a5,219 (addi a5,zero,219)
    2574:  0300006f   jal zero,25a4 (2574 + 0x30)
    2578:  04000793   li a5,64 (addi a5,zero,64)
    257c:  0280006f   jal zero,25a4 (257c + 0x28)
    2580:  00800793   li a5,8 (addi a5,zero,8)
    2584:  0200006f   jal zero,25a4 (2584 + 0x20)
    2588:  08000793   li a5,128 (addi a5,zero,128)
    258c:  0180006f   jal zero,25a4 (258c + 0x18)
    2590:  00000793   li a5,0 (addi a5,zero,0)
    2594:  0100006f   jal zero,25a4 (2594 + 0x10)
    2598:  04800793   li a5,72 (addi a5,zero,72)
    259c:  0080006f   jal zero,25a4 (259c + 0x8)
    25a0:  00000793   li a5,0 (addi a5,zero,0)
    25a4:  00078513   mv a0,a5 (addi a0,a5,0)
    25a8:  01c12083   lw ra,28(sp)
    25ac:  01812403   lw s0,24(sp)
    25b0:  02010113   addi sp,sp,32
    25b4:  00008067   ret : jalr zero,0(ra)
=============== 000025b8 : <convert_hex_char> =================================
    25b8:  fd010113   addi sp,sp,-48
    25bc:  02112623   sw ra,44(sp)
    25c0:  02812423   sw s0,40(sp)
    25c4:  03010413   addi s0,sp,48
    25c8:  fca42e23   sw a0,-36(s0)
    25cc:  fdc42783   lw a5,-36(s0)
    25d0:  00f7f793   andi a5,a5,15
    25d4:  fef42623   sw a5,-20(s0)
    25d8:  fec42703   lw a4,-20(s0)
    25dc:  00900793   li a5,9 (addi a5,zero,9)
    25e0:  00e7c863   blt a5,a4,25f0 (25e0 + 0x10)
    25e4:  fec42783   lw a5,-20(s0)
    25e8:  03078793   addi a5,a5,48
    25ec:  00c0006f   jal zero,25f8 (25ec + 0xc)
    25f0:  fec42783   lw a5,-20(s0)
    25f4:  05778793   addi a5,a5,87
    25f8:  00078513   mv a0,a5 (addi a0,a5,0)
    25fc:  02c12083   lw ra,44(sp)
    2600:  02812403   lw s0,40(sp)
    2604:  03010113   addi sp,sp,48
    2608:  00008067   ret : jalr zero,0(ra)
=============== 0000260c : <convert_unsigned_hex_str> =================================
    260c:  fe010113   addi sp,sp,-32
    2610:  00112e23   sw ra,28(sp)
    2614:  00812c23   sw s0,24(sp)
    2618:  00912a23   sw s1,20(sp)
    261c:  02010413   addi s0,sp,32
    2620:  00050793   mv a5,a0 (addi a5,a0,0)
    2624:  fef41723   sh a5,-18(s0)
    2628:  fee45783   lhu a5,-18(s0)
    262c:  00c7d793   srli a5,a5,0xc
    2630:  01079793   slli a5,a5,0x10
    2634:  0107d793   srli a5,a5,0x10
    2638:  00078513   mv a0,a5 (addi a0,a5,0)
    263c:  f7dff0ef   jal ra,25b8 (263c - 0x84) <convert_hex_char> 
    2640:  00050793   mv a5,a0 (addi a5,a0,0)
    2644:  01879493   slli s1,a5,0x18
    2648:  fee45783   lhu a5,-18(s0)
    264c:  0087d793   srli a5,a5,0x8
    2650:  01079793   slli a5,a5,0x10
    2654:  0107d793   srli a5,a5,0x10
    2658:  00078513   mv a0,a5 (addi a0,a5,0)
    265c:  f5dff0ef   jal ra,25b8 (265c - 0xa4) <convert_hex_char> 
    2660:  00050793   mv a5,a0 (addi a5,a0,0)
    2664:  01079793   slli a5,a5,0x10
    2668:  00f4e4b3   or s1,s1,a5
    266c:  fee45783   lhu a5,-18(s0)
    2670:  0047d793   srli a5,a5,0x4
    2674:  01079793   slli a5,a5,0x10
    2678:  0107d793   srli a5,a5,0x10
    267c:  00078513   mv a0,a5 (addi a0,a5,0)
    2680:  f39ff0ef   jal ra,25b8 (2680 - 0xc8) <convert_hex_char> 
    2684:  00050793   mv a5,a0 (addi a5,a0,0)
    2688:  00879793   slli a5,a5,0x8
    268c:  00f4e4b3   or s1,s1,a5
    2690:  fee45783   lhu a5,-18(s0)
    2694:  00078513   mv a0,a5 (addi a0,a5,0)
    2698:  f21ff0ef   jal ra,25b8 (2698 - 0xe0) <convert_hex_char> 
    269c:  00050793   mv a5,a0 (addi a5,a0,0)
    26a0:  00f4e7b3   or a5,s1,a5
    26a4:  00078513   mv a0,a5 (addi a0,a5,0)
    26a8:  01c12083   lw ra,28(sp)
    26ac:  01812403   lw s0,24(sp)
    26b0:  01412483   lw s1,20(sp)
    26b4:  02010113   addi sp,sp,32
    26b8:  00008067   ret : jalr zero,0(ra)
=============== 000026bc : <set_gpio_error> =================================
    26bc:  f3010113   addi sp,sp,-208
    26c0:  0c112623   sw ra,204(sp)
    26c4:  0c812423   sw s0,200(sp)
    26c8:  0d212223   sw s2,196(sp)
    26cc:  0d312023   sw s3,192(sp)
    26d0:  0b412e23   sw s4,188(sp)
    26d4:  0b512c23   sw s5,184(sp)
    26d8:  0b612a23   sw s6,180(sp)
    26dc:  0b712823   sw s7,176(sp)
    26e0:  0b812623   sw s8,172(sp)
    26e4:  0b912423   sw s9,168(sp)
    26e8:  0ba12223   sw s10,164(sp)
    26ec:  0bb12023   sw s11,160(sp)
    26f0:  0d010413   addi s0,sp,208
    26f4:  00050793   mv a5,a0 (addi a5,a0,0)
    26f8:  faf41f23   sh a5,-66(s0)
    26fc:  fbe45783   lhu a5,-66(s0)
    2700:  00078513   mv a0,a5 (addi a0,a5,0)
    2704:  f09ff0ef   jal ra,260c (2704 - 0xf8) <convert_unsigned_hex_str> 
    2708:  fca42623   sw a0,-52(s0)
    270c:  fcc42783   lw a5,-52(s0)
    2710:  0187d793   srli a5,a5,0x18
    2714:  fcf405a3   sb a5,-53(s0)
    2718:  fcc42783   lw a5,-52(s0)
    271c:  0107d793   srli a5,a5,0x10
    2720:  fcf40523   sb a5,-54(s0)
    2724:  fcc42783   lw a5,-52(s0)
    2728:  0087d793   srli a5,a5,0x8
    272c:  fcf404a3   sb a5,-55(s0)
    2730:  fcc42783   lw a5,-52(s0)
    2734:  fcf40423   sb a5,-56(s0)
    2738:  06500513   li a0,101 (addi a0,zero,101)
    273c:  ce1ff0ef   jal ra,241c (273c - 0x320) <convert_char_seg7> 
    2740:  00050793   mv a5,a0 (addi a5,a0,0)
    2744:  faf42823   sw a5,-80(s0)
    2748:  fa042a23   sw zero,-76(s0)
    274c:  fb042783   lw a5,-80(s0)
    2750:  01879793   slli a5,a5,0x18
    2754:  faf42623   sw a5,-84(s0)
    2758:  fa042423   sw zero,-88(s0)
    275c:  07200513   li a0,114 (addi a0,zero,114)
    2760:  cbdff0ef   jal ra,241c (2760 - 0x344) <convert_char_seg7> 
    2764:  00050793   mv a5,a0 (addi a5,a0,0)
    2768:  faf42023   sw a5,-96(s0)
    276c:  fa042223   sw zero,-92(s0)
    2770:  fa042783   lw a5,-96(s0)
    2774:  01079b93   slli s7,a5,0x10
    2778:  00000b13   li s6,0 (addi s6,zero,0)
    277c:  fa842683   lw a3,-88(s0)
    2780:  fac42703   lw a4,-84(s0)
    2784:  00068793   mv a5,a3 (addi a5,a3,0)
    2788:  0167e7b3   or a5,a5,s6
    278c:  f8f42c23   sw a5,-104(s0)
    2790:  00070793   mv a5,a4 (addi a5,a4,0)
    2794:  0177e7b3   or a5,a5,s7
    2798:  f8f42e23   sw a5,-100(s0)
    279c:  07200513   li a0,114 (addi a0,zero,114)
    27a0:  c7dff0ef   jal ra,241c (27a0 - 0x384) <convert_char_seg7> 
    27a4:  00050793   mv a5,a0 (addi a5,a0,0)
    27a8:  f8f42823   sw a5,-112(s0)
    27ac:  f8042a23   sw zero,-108(s0)
    27b0:  f9042783   lw a5,-112(s0)
    27b4:  00879793   slli a5,a5,0x8
    27b8:  f8f42623   sw a5,-116(s0)
    27bc:  f8042423   sw zero,-120(s0)
    27c0:  f9842503   lw a0,-104(s0)
    27c4:  f9c42583   lw a1,-100(s0)
    27c8:  00050793   mv a5,a0 (addi a5,a0,0)
    27cc:  f8842603   lw a2,-120(s0)
    27d0:  f8c42683   lw a3,-116(s0)
    27d4:  00060713   mv a4,a2 (addi a4,a2,0)
    27d8:  00e7e7b3   or a5,a5,a4
    27dc:  f8f42023   sw a5,-128(s0)
    27e0:  00058793   mv a5,a1 (addi a5,a1,0)
    27e4:  00068713   mv a4,a3 (addi a4,a3,0)
    27e8:  00e7e7b3   or a5,a5,a4
    27ec:  f8f42223   sw a5,-124(s0)
    27f0:  02d00513   li a0,45 (addi a0,zero,45)
    27f4:  c29ff0ef   jal ra,241c (27f4 - 0x3d8) <convert_char_seg7> 
    27f8:  00050793   mv a5,a0 (addi a5,a0,0)
    27fc:  f6f42c23   sw a5,-136(s0)
    2800:  f6042e23   sw zero,-132(s0)
    2804:  f7842783   lw a5,-136(s0)
    2808:  00079793   slli a5,a5,0x0
    280c:  f6f42a23   sw a5,-140(s0)
    2810:  f6042823   sw zero,-144(s0)
    2814:  f8042503   lw a0,-128(s0)
    2818:  f8442583   lw a1,-124(s0)
    281c:  00050793   mv a5,a0 (addi a5,a0,0)
    2820:  f7042603   lw a2,-144(s0)
    2824:  f7442683   lw a3,-140(s0)
    2828:  00060713   mv a4,a2 (addi a4,a2,0)
    282c:  00e7e7b3   or a5,a5,a4
    2830:  f6f42423   sw a5,-152(s0)
    2834:  00058793   mv a5,a1 (addi a5,a1,0)
    2838:  00068713   mv a4,a3 (addi a4,a3,0)
    283c:  00e7e7b3   or a5,a5,a4
    2840:  f6f42623   sw a5,-148(s0)
    2844:  fcb44783   lbu a5,-53(s0)
    2848:  00078513   mv a0,a5 (addi a0,a5,0)
    284c:  bd1ff0ef   jal ra,241c (284c - 0x430) <convert_char_seg7> 
    2850:  00050793   mv a5,a0 (addi a5,a0,0)
    2854:  f6f42023   sw a5,-160(s0)
    2858:  f6042223   sw zero,-156(s0)
    285c:  f6042683   lw a3,-160(s0)
    2860:  f6442703   lw a4,-156(s0)
    2864:  00068793   mv a5,a3 (addi a5,a3,0)
    2868:  0087d793   srli a5,a5,0x8
    286c:  f4f42e23   sw a5,-164(s0)
    2870:  00068793   mv a5,a3 (addi a5,a3,0)
    2874:  01879793   slli a5,a5,0x18
    2878:  f4f42c23   sw a5,-168(s0)
    287c:  f6842503   lw a0,-152(s0)
    2880:  f6c42583   lw a1,-148(s0)
    2884:  00050793   mv a5,a0 (addi a5,a0,0)
    2888:  f5842603   lw a2,-168(s0)
    288c:  f5c42683   lw a3,-164(s0)
    2890:  00060713   mv a4,a2 (addi a4,a2,0)
    2894:  00e7e7b3   or a5,a5,a4
    2898:  f4f42823   sw a5,-176(s0)
    289c:  00058793   mv a5,a1 (addi a5,a1,0)
    28a0:  00068713   mv a4,a3 (addi a4,a3,0)
    28a4:  00e7e7b3   or a5,a5,a4
    28a8:  f4f42a23   sw a5,-172(s0)
    28ac:  fca44783   lbu a5,-54(s0)
    28b0:  00078513   mv a0,a5 (addi a0,a5,0)
    28b4:  b69ff0ef   jal ra,241c (28b4 - 0x498) <convert_char_seg7> 
    28b8:  00050793   mv a5,a0 (addi a5,a0,0)
    28bc:  f4f42423   sw a5,-184(s0)
    28c0:  f4042623   sw zero,-180(s0)
    28c4:  f4842603   lw a2,-184(s0)
    28c8:  f4c42683   lw a3,-180(s0)
    28cc:  00060793   mv a5,a2 (addi a5,a2,0)
    28d0:  0107d793   srli a5,a5,0x10
    28d4:  00068713   mv a4,a3 (addi a4,a3,0)
    28d8:  01071a93   slli s5,a4,0x10
    28dc:  0157eab3   or s5,a5,s5
    28e0:  00060793   mv a5,a2 (addi a5,a2,0)
    28e4:  01079a13   slli s4,a5,0x10
    28e8:  f5042683   lw a3,-176(s0)
    28ec:  f5442703   lw a4,-172(s0)
    28f0:  00068793   mv a5,a3 (addi a5,a3,0)
    28f4:  0147ed33   or s10,a5,s4
    28f8:  00070793   mv a5,a4 (addi a5,a4,0)
    28fc:  0157edb3   or s11,a5,s5
    2900:  fc944783   lbu a5,-55(s0)
    2904:  00078513   mv a0,a5 (addi a0,a5,0)
    2908:  b15ff0ef   jal ra,241c (2908 - 0x4ec) <convert_char_seg7> 
    290c:  00050793   mv a5,a0 (addi a5,a0,0)
    2910:  f4f42023   sw a5,-192(s0)
    2914:  f4042223   sw zero,-188(s0)
    2918:  f4042603   lw a2,-192(s0)
    291c:  f4442683   lw a3,-188(s0)
    2920:  00060793   mv a5,a2 (addi a5,a2,0)
    2924:  0187d793   srli a5,a5,0x18
    2928:  00068713   mv a4,a3 (addi a4,a3,0)
    292c:  00871993   slli s3,a4,0x8
    2930:  0137e9b3   or s3,a5,s3
    2934:  00060793   mv a5,a2 (addi a5,a2,0)
    2938:  00879913   slli s2,a5,0x8
    293c:  012d6c33   or s8,s10,s2
    2940:  013decb3   or s9,s11,s3
    2944:  fc844783   lbu a5,-56(s0)
    2948:  00078513   mv a0,a5 (addi a0,a5,0)
    294c:  ad1ff0ef   jal ra,241c (294c - 0x530) <convert_char_seg7> 
    2950:  00050793   mv a5,a0 (addi a5,a0,0)
    2954:  f2f42c23   sw a5,-200(s0)
    2958:  f2042e23   sw zero,-196(s0)
    295c:  f3842683   lw a3,-200(s0)
    2960:  f3c42703   lw a4,-196(s0)
    2964:  00068793   mv a5,a3 (addi a5,a3,0)
    2968:  00fc67b3   or a5,s8,a5
    296c:  f2f42823   sw a5,-208(s0)
    2970:  00070793   mv a5,a4 (addi a5,a4,0)
    2974:  00fce7b3   or a5,s9,a5
    2978:  f2f42a23   sw a5,-204(s0)
    297c:  f3042503   lw a0,-208(s0)
    2980:  f3442583   lw a1,-204(s0)
    2984:  a41ff0ef   jal ra,23c4 (2984 - 0x5c0) <set_gpio_string> 
    2988:  00000013   li zero,0 (addi zero,zero,0)
    298c:  0cc12083   lw ra,204(sp)
    2990:  0c812403   lw s0,200(sp)
    2994:  0c412903   lw s2,196(sp)
    2998:  0c012983   lw s3,192(sp)
    299c:  0bc12a03   lw s4,188(sp)
    29a0:  0b812a83   lw s5,184(sp)
    29a4:  0b412b03   lw s6,180(sp)
    29a8:  0b012b83   lw s7,176(sp)
    29ac:  0ac12c03   lw s8,172(sp)
    29b0:  0a812c83   lw s9,168(sp)
    29b4:  0a412d03   lw s10,164(sp)
    29b8:  0a012d83   lw s11,160(sp)
    29bc:  0d010113   addi sp,sp,208
    29c0:  00008067   ret : jalr zero,0(ra)
=============== 000029c4 : <set_mtimer_interval> =================================
    29c4:  fe010113   addi sp,sp,-32
    29c8:  00112e23   sw ra,28(sp)
    29cc:  00812c23   sw s0,24(sp)
    29d0:  02010413   addi s0,sp,32
    29d4:  fea42623   sw a0,-20(s0)
    29d8:  fec42703   lw a4,-20(s0)
    29dc:  00070793   mv a5,a4 (addi a5,a4,0)
    29e0:  00179793   slli a5,a5,0x1
    29e4:  00e787b3   add a5,a5,a4
    29e8:  00679693   slli a3,a5,0x6
    29ec:  00d787b3   add a5,a5,a3
    29f0:  00279793   slli a5,a5,0x2
    29f4:  00e787b3   add a5,a5,a4
    29f8:  00279793   slli a5,a5,0x2
    29fc:  00e78733   add a4,a5,a4
    2a00:  000217b7   lui a5,0x21
    2a04:  14e7a423   sw a4,328(a5)
    2a08:  00000013   li zero,0 (addi zero,zero,0)
    2a0c:  01c12083   lw ra,28(sp)
    2a10:  01812403   lw s0,24(sp)
    2a14:  02010113   addi sp,sp,32
    2a18:  00008067   ret : jalr zero,0(ra)
=============== 00002a1c : <mtime_to_microsec> =================================
    2a1c:  fe010113   addi sp,sp,-32
    2a20:  00112e23   sw ra,28(sp)
    2a24:  00812c23   sw s0,24(sp)
    2a28:  02010413   addi s0,sp,32
    2a2c:  fea42623   sw a0,-20(s0)
    2a30:  fec42783   lw a5,-20(s0)
    2a34:  00479793   slli a5,a5,0x4
    2a38:  03200593   li a1,50 (addi a1,zero,50)
    2a3c:  00078513   mv a0,a5 (addi a0,a5,0)
    2a40:  5a9000ef   jal ra,37e8 (2a40 + 0xda8) <__udivsi3> 
    2a44:  00050793   mv a5,a0 (addi a5,a0,0)
    2a48:  00078513   mv a0,a5 (addi a0,a5,0)
    2a4c:  01c12083   lw ra,28(sp)
    2a50:  01812403   lw s0,24(sp)
    2a54:  02010113   addi sp,sp,32
    2a58:  00008067   ret : jalr zero,0(ra)
=============== 00002a5c : <enable_timer_interrupt> =================================
    2a5c:  ff010113   addi sp,sp,-16
    2a60:  00112623   sw ra,12(sp)
    2a64:  00812423   sw s0,8(sp)
    2a68:  01010413   addi s0,sp,16
    2a6c:  08000793   li a5,128 (addi a5,zero,128)
    2a70:  3047a073   csrrs zero,a5
    2a74:  30046073   csrrsi zero,768
    2a78:  000037b7   lui a5,0x3
    2a7c:  b9878793   addi a5,a5,-1128
    2a80:  30579073   csrrw zero,a5
    2a84:  00000013   li zero,0 (addi zero,zero,0)
    2a88:  00c12083   lw ra,12(sp)
    2a8c:  00812403   lw s0,8(sp)
    2a90:  01010113   addi sp,sp,16
    2a94:  00008067   ret : jalr zero,0(ra)
=============== 00002a98 : <start_profiler> =================================
    2a98:  ff010113   addi sp,sp,-16
    2a9c:  00112623   sw ra,12(sp)
    2aa0:  00812423   sw s0,8(sp)
    2aa4:  01010413   addi s0,sp,16
    2aa8:  c0002773   csrrs a4,zero
    2aac:  000217b7   lui a5,0x21
    2ab0:  13078793   addi a5,a5,304
    2ab4:  00e7a023   sw a4,0(a5)
    2ab8:  c0202773   csrrs a4,zero
    2abc:  000217b7   lui a5,0x21
    2ac0:  13078793   addi a5,a5,304
    2ac4:  00e7a423   sw a4,8(a5)
    2ac8:  c0102773   csrrs a4,zero
    2acc:  000217b7   lui a5,0x21
    2ad0:  13078793   addi a5,a5,304
    2ad4:  00e7a223   sw a4,4(a5)
    2ad8:  00000013   li zero,0 (addi zero,zero,0)
    2adc:  00c12083   lw ra,12(sp)
    2ae0:  00812403   lw s0,8(sp)
    2ae4:  01010113   addi sp,sp,16
    2ae8:  00008067   ret : jalr zero,0(ra)
=============== 00002aec : <end_profiler> =================================
    2aec:  fe010113   addi sp,sp,-32
    2af0:  00112e23   sw ra,28(sp)
    2af4:  00812c23   sw s0,24(sp)
    2af8:  00912a23   sw s1,20(sp)
    2afc:  01212823   sw s2,16(sp)
    2b00:  02010413   addi s0,sp,32
    2b04:  c00027f3   csrrs a5,zero
    2b08:  fef42623   sw a5,-20(s0)
    2b0c:  c02027f3   csrrs a5,zero
    2b10:  fef42423   sw a5,-24(s0)
    2b14:  c01027f3   csrrs a5,zero
    2b18:  fef42223   sw a5,-28(s0)
    2b1c:  000217b7   lui a5,0x21
    2b20:  13078793   addi a5,a5,304
    2b24:  0007a783   lw a5,0(a5)
    2b28:  fec42703   lw a4,-20(s0)
    2b2c:  40f704b3   sub s1,a4,a5
    2b30:  000217b7   lui a5,0x21
    2b34:  13078793   addi a5,a5,304
    2b38:  0087a783   lw a5,8(a5)
    2b3c:  fe842703   lw a4,-24(s0)
    2b40:  40f70933   sub s2,a4,a5
    2b44:  000217b7   lui a5,0x21
    2b48:  13078793   addi a5,a5,304
    2b4c:  0047a783   lw a5,4(a5)
    2b50:  fe442703   lw a4,-28(s0)
    2b54:  40f707b3   sub a5,a4,a5
    2b58:  00078513   mv a0,a5 (addi a0,a5,0)
    2b5c:  ec1ff0ef   jal ra,2a1c (2b5c - 0x140) <mtime_to_microsec> 
    2b60:  00050793   mv a5,a0 (addi a5,a0,0)
    2b64:  00078693   mv a3,a5 (addi a3,a5,0)
    2b68:  00090613   mv a2,s2 (addi a2,s2,0)
    2b6c:  00048593   mv a1,s1 (addi a1,s1,0)
    2b70:  000207b7   lui a5,0x20
    2b74:  1d478513   addi a0,a5,468
    2b78:  881fe0ef   jal ra,13f8 (2b78 - 0x1780) <printf> 
    2b7c:  00000013   li zero,0 (addi zero,zero,0)
    2b80:  01c12083   lw ra,28(sp)
    2b84:  01812403   lw s0,24(sp)
    2b88:  01412483   lw s1,20(sp)
    2b8c:  01012903   lw s2,16(sp)
    2b90:  02010113   addi sp,sp,32
    2b94:  00008067   ret : jalr zero,0(ra)
    2b98:  fc010113   addi sp,sp,-64
    2b9c:  00112023   sw ra,0(sp)
    2ba0:  00512223   sw t0,4(sp)
    2ba4:  00612423   sw t1,8(sp)
    2ba8:  00712623   sw t2,12(sp)
    2bac:  00a12823   sw a0,16(sp)
    2bb0:  00b12a23   sw a1,20(sp)
    2bb4:  00c12c23   sw a2,24(sp)
    2bb8:  00d12e23   sw a3,28(sp)
    2bbc:  02e12023   sw a4,32(sp)
    2bc0:  02f12223   sw a5,36(sp)
    2bc4:  03012423   sw a6,40(sp)
    2bc8:  03112623   sw a7,44(sp)
    2bcc:  03c12823   sw t3,48(sp)
    2bd0:  03d12a23   sw t4,52(sp)
    2bd4:  03e12c23   sw t5,56(sp)
    2bd8:  03f12e23   sw t6,60(sp)
    2bdc:  f1cff0ef   jal ra,22f8 (2bdc - 0x8e4) <mhandler> 
    2be0:  00012083   lw ra,0(sp)
    2be4:  00412283   lw t0,4(sp)
    2be8:  00812303   lw t1,8(sp)
    2bec:  00c12383   lw t2,12(sp)
    2bf0:  01012503   lw a0,16(sp)
    2bf4:  01412583   lw a1,20(sp)
    2bf8:  01812603   lw a2,24(sp)
    2bfc:  01c12683   lw a3,28(sp)
    2c00:  02012703   lw a4,32(sp)
    2c04:  02412783   lw a5,36(sp)
    2c08:  02812803   lw a6,40(sp)
    2c0c:  02c12883   lw a7,44(sp)
    2c10:  03012e03   lw t3,48(sp)
    2c14:  03412e83   lw t4,52(sp)
    2c18:  03812f03   lw t5,56(sp)
    2c1c:  03c12f83   lw t6,60(sp)
    2c20:  04010113   addi sp,sp,64
    2c24:  30200073   mret 
=============== 00002c28 : <__divdi3> =================================
    2c28:  fd010113   addi sp,sp,-48
    2c2c:  02912223   sw s1,36(sp)
    2c30:  01412c23   sw s4,24(sp)
    2c34:  02112623   sw ra,44(sp)
    2c38:  02812423   sw s0,40(sp)
    2c3c:  03212023   sw s2,32(sp)
    2c40:  01312e23   sw s3,28(sp)
    2c44:  01512a23   sw s5,20(sp)
    2c48:  01612823   sw s6,16(sp)
    2c4c:  01712623   sw s7,12(sp)
    2c50:  01812423   sw s8,8(sp)
    2c54:  01912223   sw s9,4(sp)
    2c58:  01a12023   sw s10,0(sp)
    2c5c:  00050a13   mv s4,a0 (addi s4,a0,0)
    2c60:  00000493   li s1,0 (addi s1,zero,0)
    2c64:  0005dc63   bge a1,zero,2c7c (2c64 + 0x18)
    2c68:  00a037b3   sltiu a5,zero,a0
    2c6c:  40b005b3   sub a1,zero,a1
    2c70:  40f585b3   sub a1,a1,a5
    2c74:  40a00a33   sub s4,zero,a0
    2c78:  fff00493   li s1,-1 (addi s1,zero,-1)
    2c7c:  0006dc63   bge a3,zero,2c94 (2c7c + 0x18)
    2c80:  00c037b3   sltiu a5,zero,a2
    2c84:  40d006b3   sub a3,zero,a3
    2c88:  fff4c493   xori s1,s1,-1
    2c8c:  40f686b3   sub a3,a3,a5
    2c90:  40c00633   sub a2,zero,a2
    2c94:  00060a93   mv s5,a2 (addi s5,a2,0)
    2c98:  000a0913   mv s2,s4 (addi s2,s4,0)
    2c9c:  00058993   mv s3,a1 (addi s3,a1,0)
    2ca0:  38069a63   bne a3,zero,3034 (2ca0 + 0x394)
    2ca4:  000207b7   lui a5,0x20
    2ca8:  20078793   addi a5,a5,512
    2cac:  12c5f663   bgeu a1,a2,2dd8 (2cac + 0x12c)
    2cb0:  00010737   lui a4,0x10
    2cb4:  10e67863   bgeu a2,a4,2dc4 (2cb4 + 0x110)
    2cb8:  10063713   sltu a4,a2,256
    2cbc:  00173713   sltu a4,a4,1
    2cc0:  00371713   slli a4,a4,0x3
    2cc4:  00e656b3   srl a3,a2,a4
    2cc8:  00d787b3   add a5,a5,a3
    2ccc:  0007c783   lbu a5,0(a5)
    2cd0:  02000693   li a3,32 (addi a3,zero,32)
    2cd4:  00e787b3   add a5,a5,a4
    2cd8:  40f68733   sub a4,a3,a5
    2cdc:  00f68c63   beq a3,a5,2cf4 (2cdc + 0x18)
    2ce0:  00e599b3   sll s3,a1,a4
    2ce4:  00fa57b3   srl a5,s4,a5
    2ce8:  00e61ab3   sll s5,a2,a4
    2cec:  0137e9b3   or s3,a5,s3
    2cf0:  00ea1933   sll s2,s4,a4
    2cf4:  010adb13   srli s6,s5,0x10
    2cf8:  000b0593   mv a1,s6 (addi a1,s6,0)
    2cfc:  00098513   mv a0,s3 (addi a0,s3,0)
    2d00:  010a9b93   slli s7,s5,0x10
    2d04:  2e5000ef   jal ra,37e8 (2d04 + 0xae4) <__udivsi3> 
    2d08:  010bdb93   srli s7,s7,0x10
    2d0c:  00050593   mv a1,a0 (addi a1,a0,0)
    2d10:  00050a13   mv s4,a0 (addi s4,a0,0)
    2d14:  000b8513   mv a0,s7 (addi a0,s7,0)
    2d18:  2a5000ef   jal ra,37bc (2d18 + 0xaa4) <__mulsi3> 
    2d1c:  00050413   mv s0,a0 (addi s0,a0,0)
    2d20:  000b0593   mv a1,s6 (addi a1,s6,0)
    2d24:  00098513   mv a0,s3 (addi a0,s3,0)
    2d28:  309000ef   jal ra,3830 (2d28 + 0xb08) <__umodsi3> 
    2d2c:  01051513   slli a0,a0,0x10
    2d30:  01095713   srli a4,s2,0x10
    2d34:  00a76733   or a4,a4,a0
    2d38:  000a0993   mv s3,s4 (addi s3,s4,0)
    2d3c:  00877e63   bgeu a4,s0,2d58 (2d3c + 0x1c)
    2d40:  00ea8733   add a4,s5,a4
    2d44:  fffa0993   addi s3,s4,-1
    2d48:  01576863   bltu a4,s5,2d58 (2d48 + 0x10)
    2d4c:  00877663   bgeu a4,s0,2d58 (2d4c + 0xc)
    2d50:  ffea0993   addi s3,s4,-2
    2d54:  01570733   add a4,a4,s5
    2d58:  40870433   sub s0,a4,s0
    2d5c:  000b0593   mv a1,s6 (addi a1,s6,0)
    2d60:  00040513   mv a0,s0 (addi a0,s0,0)
    2d64:  285000ef   jal ra,37e8 (2d64 + 0xa84) <__udivsi3> 
    2d68:  00050593   mv a1,a0 (addi a1,a0,0)
    2d6c:  00050a13   mv s4,a0 (addi s4,a0,0)
    2d70:  000b8513   mv a0,s7 (addi a0,s7,0)
    2d74:  249000ef   jal ra,37bc (2d74 + 0xa48) <__mulsi3> 
    2d78:  00050b93   mv s7,a0 (addi s7,a0,0)
    2d7c:  000b0593   mv a1,s6 (addi a1,s6,0)
    2d80:  00040513   mv a0,s0 (addi a0,s0,0)
    2d84:  2ad000ef   jal ra,3830 (2d84 + 0xaac) <__umodsi3> 
    2d88:  01091913   slli s2,s2,0x10
    2d8c:  01051513   slli a0,a0,0x10
    2d90:  01095913   srli s2,s2,0x10
    2d94:  00a96933   or s2,s2,a0
    2d98:  000a0713   mv a4,s4 (addi a4,s4,0)
    2d9c:  01797c63   bgeu s2,s7,2db4 (2d9c + 0x18)
    2da0:  012a8933   add s2,s5,s2
    2da4:  fffa0713   addi a4,s4,-1
    2da8:  01596663   bltu s2,s5,2db4 (2da8 + 0xc)
    2dac:  01797463   bgeu s2,s7,2db4 (2dac + 0x8)
    2db0:  ffea0713   addi a4,s4,-2
    2db4:  01099793   slli a5,s3,0x10
    2db8:  00e7e7b3   or a5,a5,a4
    2dbc:  00000993   li s3,0 (addi s3,zero,0)
    2dc0:  1200006f   jal zero,2ee0 (2dc0 + 0x120)
    2dc4:  010006b7   lui a3,0x1000
    2dc8:  01800713   li a4,24 (addi a4,zero,24)
    2dcc:  eed67ce3   bgeu a2,a3,2cc4 (2dcc - 0x108)
    2dd0:  01000713   li a4,16 (addi a4,zero,16)
    2dd4:  ef1ff06f   jal zero,2cc4 (2dd4 - 0x110)
    2dd8:  00000713   li a4,0 (addi a4,zero,0)
    2ddc:  00060c63   beq a2,zero,2df4 (2ddc + 0x18)
    2de0:  00010737   lui a4,0x10
    2de4:  14e67863   bgeu a2,a4,2f34 (2de4 + 0x150)
    2de8:  10063713   sltu a4,a2,256
    2dec:  00173713   sltu a4,a4,1
    2df0:  00371713   slli a4,a4,0x3
    2df4:  00e656b3   srl a3,a2,a4
    2df8:  00d787b3   add a5,a5,a3
    2dfc:  0007c783   lbu a5,0(a5)
    2e00:  02000693   li a3,32 (addi a3,zero,32)
    2e04:  00e787b3   add a5,a5,a4
    2e08:  40f68733   sub a4,a3,a5
    2e0c:  12f69e63   bne a3,a5,2f48 (2e0c + 0x13c)
    2e10:  40c58a33   sub s4,a1,a2
    2e14:  00100993   li s3,1 (addi s3,zero,1)
    2e18:  010adb13   srli s6,s5,0x10
    2e1c:  000b0593   mv a1,s6 (addi a1,s6,0)
    2e20:  000a0513   mv a0,s4 (addi a0,s4,0)
    2e24:  010a9b93   slli s7,s5,0x10
    2e28:  1c1000ef   jal ra,37e8 (2e28 + 0x9c0) <__udivsi3> 
    2e2c:  010bdb93   srli s7,s7,0x10
    2e30:  00050593   mv a1,a0 (addi a1,a0,0)
    2e34:  00050c93   mv s9,a0 (addi s9,a0,0)
    2e38:  000b8513   mv a0,s7 (addi a0,s7,0)
    2e3c:  181000ef   jal ra,37bc (2e3c + 0x980) <__mulsi3> 
    2e40:  00050c13   mv s8,a0 (addi s8,a0,0)
    2e44:  000b0593   mv a1,s6 (addi a1,s6,0)
    2e48:  000a0513   mv a0,s4 (addi a0,s4,0)
    2e4c:  1e5000ef   jal ra,3830 (2e4c + 0x9e4) <__umodsi3> 
    2e50:  01051513   slli a0,a0,0x10
    2e54:  01095713   srli a4,s2,0x10
    2e58:  00a76733   or a4,a4,a0
    2e5c:  000c8a13   mv s4,s9 (addi s4,s9,0)
    2e60:  01877e63   bgeu a4,s8,2e7c (2e60 + 0x1c)
    2e64:  00ea8733   add a4,s5,a4
    2e68:  fffc8a13   addi s4,s9,-1
    2e6c:  01576863   bltu a4,s5,2e7c (2e6c + 0x10)
    2e70:  01877663   bgeu a4,s8,2e7c (2e70 + 0xc)
    2e74:  ffec8a13   addi s4,s9,-2
    2e78:  01570733   add a4,a4,s5
    2e7c:  41870433   sub s0,a4,s8
    2e80:  000b0593   mv a1,s6 (addi a1,s6,0)
    2e84:  00040513   mv a0,s0 (addi a0,s0,0)
    2e88:  161000ef   jal ra,37e8 (2e88 + 0x960) <__udivsi3> 
    2e8c:  00050593   mv a1,a0 (addi a1,a0,0)
    2e90:  00050c13   mv s8,a0 (addi s8,a0,0)
    2e94:  000b8513   mv a0,s7 (addi a0,s7,0)
    2e98:  125000ef   jal ra,37bc (2e98 + 0x924) <__mulsi3> 
    2e9c:  00050b93   mv s7,a0 (addi s7,a0,0)
    2ea0:  000b0593   mv a1,s6 (addi a1,s6,0)
    2ea4:  00040513   mv a0,s0 (addi a0,s0,0)
    2ea8:  189000ef   jal ra,3830 (2ea8 + 0x988) <__umodsi3> 
    2eac:  01091913   slli s2,s2,0x10
    2eb0:  01051513   slli a0,a0,0x10
    2eb4:  01095913   srli s2,s2,0x10
    2eb8:  00a96933   or s2,s2,a0
    2ebc:  000c0713   mv a4,s8 (addi a4,s8,0)
    2ec0:  01797c63   bgeu s2,s7,2ed8 (2ec0 + 0x18)
    2ec4:  012a8933   add s2,s5,s2
    2ec8:  fffc0713   addi a4,s8,-1
    2ecc:  01596663   bltu s2,s5,2ed8 (2ecc + 0xc)
    2ed0:  01797463   bgeu s2,s7,2ed8 (2ed0 + 0x8)
    2ed4:  ffec0713   addi a4,s8,-2
    2ed8:  010a1793   slli a5,s4,0x10
    2edc:  00e7e7b3   or a5,a5,a4
    2ee0:  00078513   mv a0,a5 (addi a0,a5,0)
    2ee4:  00098593   mv a1,s3 (addi a1,s3,0)
    2ee8:  00048a63   beq s1,zero,2efc (2ee8 + 0x14)
    2eec:  00f037b3   sltiu a5,zero,a5
    2ef0:  413005b3   sub a1,zero,s3
    2ef4:  40f585b3   sub a1,a1,a5
    2ef8:  40a00533   sub a0,zero,a0
    2efc:  02c12083   lw ra,44(sp)
    2f00:  02812403   lw s0,40(sp)
    2f04:  02412483   lw s1,36(sp)
    2f08:  02012903   lw s2,32(sp)
    2f0c:  01c12983   lw s3,28(sp)
    2f10:  01812a03   lw s4,24(sp)
    2f14:  01412a83   lw s5,20(sp)
    2f18:  01012b03   lw s6,16(sp)
    2f1c:  00c12b83   lw s7,12(sp)
    2f20:  00812c03   lw s8,8(sp)
    2f24:  00412c83   lw s9,4(sp)
    2f28:  00012d03   lw s10,0(sp)
    2f2c:  03010113   addi sp,sp,48
    2f30:  00008067   ret : jalr zero,0(ra)
    2f34:  010006b7   lui a3,0x1000
    2f38:  01800713   li a4,24 (addi a4,zero,24)
    2f3c:  ead67ce3   bgeu a2,a3,2df4 (2f3c - 0x148)
    2f40:  01000713   li a4,16 (addi a4,zero,16)
    2f44:  eb1ff06f   jal zero,2df4 (2f44 - 0x150)
    2f48:  00e61ab3   sll s5,a2,a4
    2f4c:  00f5d9b3   srl s3,a1,a5
    2f50:  010adb93   srli s7,s5,0x10
    2f54:  00e595b3   sll a1,a1,a4
    2f58:  00fa57b3   srl a5,s4,a5
    2f5c:  00b7eb33   or s6,a5,a1
    2f60:  00ea1933   sll s2,s4,a4
    2f64:  000b8593   mv a1,s7 (addi a1,s7,0)
    2f68:  00098513   mv a0,s3 (addi a0,s3,0)
    2f6c:  010a9a13   slli s4,s5,0x10
    2f70:  079000ef   jal ra,37e8 (2f70 + 0x878) <__udivsi3> 
    2f74:  010a5a13   srli s4,s4,0x10
    2f78:  00050593   mv a1,a0 (addi a1,a0,0)
    2f7c:  00050c13   mv s8,a0 (addi s8,a0,0)
    2f80:  000a0513   mv a0,s4 (addi a0,s4,0)
    2f84:  039000ef   jal ra,37bc (2f84 + 0x838) <__mulsi3> 
    2f88:  00050413   mv s0,a0 (addi s0,a0,0)
    2f8c:  000b8593   mv a1,s7 (addi a1,s7,0)
    2f90:  00098513   mv a0,s3 (addi a0,s3,0)
    2f94:  09d000ef   jal ra,3830 (2f94 + 0x89c) <__umodsi3> 
    2f98:  01051513   slli a0,a0,0x10
    2f9c:  010b5713   srli a4,s6,0x10
    2fa0:  00a76733   or a4,a4,a0
    2fa4:  000c0993   mv s3,s8 (addi s3,s8,0)
    2fa8:  00877e63   bgeu a4,s0,2fc4 (2fa8 + 0x1c)
    2fac:  00ea8733   add a4,s5,a4
    2fb0:  fffc0993   addi s3,s8,-1
    2fb4:  01576863   bltu a4,s5,2fc4 (2fb4 + 0x10)
    2fb8:  00877663   bgeu a4,s0,2fc4 (2fb8 + 0xc)
    2fbc:  ffec0993   addi s3,s8,-2
    2fc0:  01570733   add a4,a4,s5
    2fc4:  40870433   sub s0,a4,s0
    2fc8:  000b8593   mv a1,s7 (addi a1,s7,0)
    2fcc:  00040513   mv a0,s0 (addi a0,s0,0)
    2fd0:  019000ef   jal ra,37e8 (2fd0 + 0x818) <__udivsi3> 
    2fd4:  00050593   mv a1,a0 (addi a1,a0,0)
    2fd8:  00050c13   mv s8,a0 (addi s8,a0,0)
    2fdc:  000a0513   mv a0,s4 (addi a0,s4,0)
    2fe0:  7dc000ef   jal ra,37bc (2fe0 + 0x7dc) <__mulsi3> 
    2fe4:  00050a13   mv s4,a0 (addi s4,a0,0)
    2fe8:  000b8593   mv a1,s7 (addi a1,s7,0)
    2fec:  00040513   mv a0,s0 (addi a0,s0,0)
    2ff0:  041000ef   jal ra,3830 (2ff0 + 0x840) <__umodsi3> 
    2ff4:  010b1793   slli a5,s6,0x10
    2ff8:  01051513   slli a0,a0,0x10
    2ffc:  0107d793   srli a5,a5,0x10
    3000:  00a7e7b3   or a5,a5,a0
    3004:  000c0713   mv a4,s8 (addi a4,s8,0)
    3008:  0147fe63   bgeu a5,s4,3024 (3008 + 0x1c)
    300c:  00fa87b3   add a5,s5,a5
    3010:  fffc0713   addi a4,s8,-1
    3014:  0157e863   bltu a5,s5,3024 (3014 + 0x10)
    3018:  0147f663   bgeu a5,s4,3024 (3018 + 0xc)
    301c:  ffec0713   addi a4,s8,-2
    3020:  015787b3   add a5,a5,s5
    3024:  01099993   slli s3,s3,0x10
    3028:  41478a33   sub s4,a5,s4
    302c:  00e9e9b3   or s3,s3,a4
    3030:  de9ff06f   jal zero,2e18 (3030 - 0x218)
    3034:  1ed5ec63   bltu a1,a3,322c (3034 + 0x1f8)
    3038:  000107b7   lui a5,0x10
    303c:  04f6f463   bgeu a3,a5,3084 (303c + 0x48)
    3040:  1006b713   sltu a4,a3,256
    3044:  00173713   sltu a4,a4,1
    3048:  00371713   slli a4,a4,0x3
    304c:  000207b7   lui a5,0x20
    3050:  00e6d533   srl a0,a3,a4
    3054:  20078793   addi a5,a5,512
    3058:  00a787b3   add a5,a5,a0
    305c:  0007c803   lbu a6,0(a5)
    3060:  02000793   li a5,32 (addi a5,zero,32)
    3064:  00e80833   add a6,a6,a4
    3068:  410789b3   sub s3,a5,a6
    306c:  03079663   bne a5,a6,3098 (306c + 0x2c)
    3070:  00100793   li a5,1 (addi a5,zero,1)
    3074:  e6b6e6e3   bltu a3,a1,2ee0 (3074 - 0x194)
    3078:  00ca37b3   sltiu a5,s4,a2
    307c:  0017b793   sltu a5,a5,1
    3080:  e61ff06f   jal zero,2ee0 (3080 - 0x1a0)
    3084:  010007b7   lui a5,0x1000
    3088:  01800713   li a4,24 (addi a4,zero,24)
    308c:  fcf6f0e3   bgeu a3,a5,304c (308c - 0x40)
    3090:  01000713   li a4,16 (addi a4,zero,16)
    3094:  fb9ff06f   jal zero,304c (3094 - 0x48)
    3098:  013696b3   sll a3,a3,s3
    309c:  01065cb3   srl s9,a2,a6
    30a0:  00dcecb3   or s9,s9,a3
    30a4:  0105d933   srl s2,a1,a6
    30a8:  010cdb93   srli s7,s9,0x10
    30ac:  010a5833   srl a6,s4,a6
    30b0:  013595b3   sll a1,a1,s3
    30b4:  00b86ab3   or s5,a6,a1
    30b8:  00090513   mv a0,s2 (addi a0,s2,0)
    30bc:  000b8593   mv a1,s7 (addi a1,s7,0)
    30c0:  010c9c13   slli s8,s9,0x10
    30c4:  01361433   sll s0,a2,s3
    30c8:  010c5c13   srli s8,s8,0x10
    30cc:  71c000ef   jal ra,37e8 (30cc + 0x71c) <__udivsi3> 
    30d0:  00050593   mv a1,a0 (addi a1,a0,0)
    30d4:  00050d13   mv s10,a0 (addi s10,a0,0)
    30d8:  000c0513   mv a0,s8 (addi a0,s8,0)
    30dc:  6e0000ef   jal ra,37bc (30dc + 0x6e0) <__mulsi3> 
    30e0:  00050b13   mv s6,a0 (addi s6,a0,0)
    30e4:  000b8593   mv a1,s7 (addi a1,s7,0)
    30e8:  00090513   mv a0,s2 (addi a0,s2,0)
    30ec:  744000ef   jal ra,3830 (30ec + 0x744) <__umodsi3> 
    30f0:  01051513   slli a0,a0,0x10
    30f4:  010ad693   srli a3,s5,0x10
    30f8:  00a6e6b3   or a3,a3,a0
    30fc:  000d0913   mv s2,s10 (addi s2,s10,0)
    3100:  0166fe63   bgeu a3,s6,311c (3100 + 0x1c)
    3104:  00dc86b3   add a3,s9,a3
    3108:  fffd0913   addi s2,s10,-1
    310c:  0196e863   bltu a3,s9,311c (310c + 0x10)
    3110:  0166f663   bgeu a3,s6,311c (3110 + 0xc)
    3114:  ffed0913   addi s2,s10,-2
    3118:  019686b3   add a3,a3,s9
    311c:  41668b33   sub s6,a3,s6
    3120:  000b8593   mv a1,s7 (addi a1,s7,0)
    3124:  000b0513   mv a0,s6 (addi a0,s6,0)
    3128:  6c0000ef   jal ra,37e8 (3128 + 0x6c0) <__udivsi3> 
    312c:  00050593   mv a1,a0 (addi a1,a0,0)
    3130:  00050d13   mv s10,a0 (addi s10,a0,0)
    3134:  000c0513   mv a0,s8 (addi a0,s8,0)
    3138:  684000ef   jal ra,37bc (3138 + 0x684) <__mulsi3> 
    313c:  00050c13   mv s8,a0 (addi s8,a0,0)
    3140:  000b8593   mv a1,s7 (addi a1,s7,0)
    3144:  000b0513   mv a0,s6 (addi a0,s6,0)
    3148:  6e8000ef   jal ra,3830 (3148 + 0x6e8) <__umodsi3> 
    314c:  010a9713   slli a4,s5,0x10
    3150:  01051513   slli a0,a0,0x10
    3154:  01075713   srli a4,a4,0x10
    3158:  00a76733   or a4,a4,a0
    315c:  000d0693   mv a3,s10 (addi a3,s10,0)
    3160:  01877e63   bgeu a4,s8,317c (3160 + 0x1c)
    3164:  00ec8733   add a4,s9,a4
    3168:  fffd0693   addi a3,s10,-1
    316c:  01976863   bltu a4,s9,317c (316c + 0x10)
    3170:  01877663   bgeu a4,s8,317c (3170 + 0xc)
    3174:  ffed0693   addi a3,s10,-2
    3178:  01970733   add a4,a4,s9
    317c:  01091793   slli a5,s2,0x10
    3180:  01069813   slli a6,a3,0x10
    3184:  01041313   slli t1,s0,0x10
    3188:  00d7e7b3   or a5,a5,a3
    318c:  01085813   srli a6,a6,0x10
    3190:  01035313   srli t1,t1,0x10
    3194:  41870733   sub a4,a4,s8
    3198:  0107de13   srli t3,a5,0x10
    319c:  01045413   srli s0,s0,0x10
    31a0:  00080513   mv a0,a6 (addi a0,a6,0)
    31a4:  00030593   mv a1,t1 (addi a1,t1,0)
    31a8:  614000ef   jal ra,37bc (31a8 + 0x614) <__mulsi3> 
    31ac:  00050893   mv a7,a0 (addi a7,a0,0)
    31b0:  00040593   mv a1,s0 (addi a1,s0,0)
    31b4:  00080513   mv a0,a6 (addi a0,a6,0)
    31b8:  604000ef   jal ra,37bc (31b8 + 0x604) <__mulsi3> 
    31bc:  00050813   mv a6,a0 (addi a6,a0,0)
    31c0:  00030593   mv a1,t1 (addi a1,t1,0)
    31c4:  000e0513   mv a0,t3 (addi a0,t3,0)
    31c8:  5f4000ef   jal ra,37bc (31c8 + 0x5f4) <__mulsi3> 
    31cc:  00050313   mv t1,a0 (addi t1,a0,0)
    31d0:  00040593   mv a1,s0 (addi a1,s0,0)
    31d4:  000e0513   mv a0,t3 (addi a0,t3,0)
    31d8:  5e4000ef   jal ra,37bc (31d8 + 0x5e4) <__mulsi3> 
    31dc:  0108d693   srli a3,a7,0x10
    31e0:  00680833   add a6,a6,t1
    31e4:  010686b3   add a3,a3,a6
    31e8:  00050613   mv a2,a0 (addi a2,a0,0)
    31ec:  0066f663   bgeu a3,t1,31f8 (31ec + 0xc)
    31f0:  000105b7   lui a1,0x10
    31f4:  00b50633   add a2,a0,a1
    31f8:  0106d593   srli a1,a3,0x10
    31fc:  00c58633   add a2,a1,a2
    3200:  02c76263   bltu a4,a2,3224 (3200 + 0x24)
    3204:  bac71ce3   bne a4,a2,2dbc (3204 - 0x448)
    3208:  01089893   slli a7,a7,0x10
    320c:  01069693   slli a3,a3,0x10
    3210:  0108d893   srli a7,a7,0x10
    3214:  013a1733   sll a4,s4,s3
    3218:  011686b3   add a3,a3,a7
    321c:  00000993   li s3,0 (addi s3,zero,0)
    3220:  ccd770e3   bgeu a4,a3,2ee0 (3220 - 0x340)
    3224:  fff78793   addi a5,a5,-1
    3228:  b95ff06f   jal zero,2dbc (3228 - 0x46c)
    322c:  00000993   li s3,0 (addi s3,zero,0)
    3230:  00000793   li a5,0 (addi a5,zero,0)
    3234:  cadff06f   jal zero,2ee0 (3234 - 0x354)
=============== 00003238 : <__moddi3> =================================
    3238:  fc010113   addi sp,sp,-64
    323c:  02912a23   sw s1,52(sp)
    3240:  02112e23   sw ra,60(sp)
    3244:  02812c23   sw s0,56(sp)
    3248:  03212823   sw s2,48(sp)
    324c:  03312623   sw s3,44(sp)
    3250:  03412423   sw s4,40(sp)
    3254:  03512223   sw s5,36(sp)
    3258:  03612023   sw s6,32(sp)
    325c:  01712e23   sw s7,28(sp)
    3260:  01812c23   sw s8,24(sp)
    3264:  01912a23   sw s9,20(sp)
    3268:  01a12823   sw s10,16(sp)
    326c:  01b12623   sw s11,12(sp)
    3270:  00000493   li s1,0 (addi s1,zero,0)
    3274:  0005dc63   bge a1,zero,328c (3274 + 0x18)
    3278:  00a037b3   sltiu a5,zero,a0
    327c:  40b005b3   sub a1,zero,a1
    3280:  40f585b3   sub a1,a1,a5
    3284:  40a00533   sub a0,zero,a0
    3288:  fff00493   li s1,-1 (addi s1,zero,-1)
    328c:  0006da63   bge a3,zero,32a0 (328c + 0x14)
    3290:  00c037b3   sltiu a5,zero,a2
    3294:  40d006b3   sub a3,zero,a3
    3298:  40f686b3   sub a3,a3,a5
    329c:  40c00633   sub a2,zero,a2
    32a0:  00060a13   mv s4,a2 (addi s4,a2,0)
    32a4:  00050413   mv s0,a0 (addi s0,a0,0)
    32a8:  00058b13   mv s6,a1 (addi s6,a1,0)
    32ac:  2c069e63   bne a3,zero,3588 (32ac + 0x2dc)
    32b0:  000207b7   lui a5,0x20
    32b4:  20078793   addi a5,a5,512
    32b8:  14c5fa63   bgeu a1,a2,340c (32b8 + 0x154)
    32bc:  00010737   lui a4,0x10
    32c0:  12e67c63   bgeu a2,a4,33f8 (32c0 + 0x138)
    32c4:  10063713   sltu a4,a2,256
    32c8:  00173713   sltu a4,a4,1
    32cc:  00371713   slli a4,a4,0x3
    32d0:  00e656b3   srl a3,a2,a4
    32d4:  00d787b3   add a5,a5,a3
    32d8:  0007c783   lbu a5,0(a5)
    32dc:  00e787b3   add a5,a5,a4
    32e0:  02000713   li a4,32 (addi a4,zero,32)
    32e4:  40f709b3   sub s3,a4,a5
    32e8:  00f70c63   beq a4,a5,3300 (32e8 + 0x18)
    32ec:  013595b3   sll a1,a1,s3
    32f0:  00f557b3   srl a5,a0,a5
    32f4:  01361a33   sll s4,a2,s3
    32f8:  00b7eb33   or s6,a5,a1
    32fc:  01351433   sll s0,a0,s3
    3300:  010a5b93   srli s7,s4,0x10
    3304:  000b8593   mv a1,s7 (addi a1,s7,0)
    3308:  010a1a93   slli s5,s4,0x10
    330c:  000b0513   mv a0,s6 (addi a0,s6,0)
    3310:  4d8000ef   jal ra,37e8 (3310 + 0x4d8) <__udivsi3> 
    3314:  010ada93   srli s5,s5,0x10
    3318:  000a8593   mv a1,s5 (addi a1,s5,0)
    331c:  4a0000ef   jal ra,37bc (331c + 0x4a0) <__mulsi3> 
    3320:  00050913   mv s2,a0 (addi s2,a0,0)
    3324:  000b8593   mv a1,s7 (addi a1,s7,0)
    3328:  000b0513   mv a0,s6 (addi a0,s6,0)
    332c:  504000ef   jal ra,3830 (332c + 0x504) <__umodsi3> 
    3330:  01051513   slli a0,a0,0x10
    3334:  01045793   srli a5,s0,0x10
    3338:  00a7e7b3   or a5,a5,a0
    333c:  0127fa63   bgeu a5,s2,3350 (333c + 0x14)
    3340:  00fa07b3   add a5,s4,a5
    3344:  0147e663   bltu a5,s4,3350 (3344 + 0xc)
    3348:  0127f463   bgeu a5,s2,3350 (3348 + 0x8)
    334c:  014787b3   add a5,a5,s4
    3350:  41278933   sub s2,a5,s2
    3354:  000b8593   mv a1,s7 (addi a1,s7,0)
    3358:  00090513   mv a0,s2 (addi a0,s2,0)
    335c:  48c000ef   jal ra,37e8 (335c + 0x48c) <__udivsi3> 
    3360:  000a8593   mv a1,s5 (addi a1,s5,0)
    3364:  458000ef   jal ra,37bc (3364 + 0x458) <__mulsi3> 
    3368:  00050a93   mv s5,a0 (addi s5,a0,0)
    336c:  000b8593   mv a1,s7 (addi a1,s7,0)
    3370:  00090513   mv a0,s2 (addi a0,s2,0)
    3374:  4bc000ef   jal ra,3830 (3374 + 0x4bc) <__umodsi3> 
    3378:  01041413   slli s0,s0,0x10
    337c:  01051513   slli a0,a0,0x10
    3380:  01045413   srli s0,s0,0x10
    3384:  00a46433   or s0,s0,a0
    3388:  01547a63   bgeu s0,s5,339c (3388 + 0x14)
    338c:  008a0433   add s0,s4,s0
    3390:  01446663   bltu s0,s4,339c (3390 + 0xc)
    3394:  01547463   bgeu s0,s5,339c (3394 + 0x8)
    3398:  01440433   add s0,s0,s4
    339c:  41540433   sub s0,s0,s5
    33a0:  01345533   srl a0,s0,s3
    33a4:  00000593   li a1,0 (addi a1,zero,0)
    33a8:  00048a63   beq s1,zero,33bc (33a8 + 0x14)
    33ac:  00a037b3   sltiu a5,zero,a0
    33b0:  40b005b3   sub a1,zero,a1
    33b4:  40f585b3   sub a1,a1,a5
    33b8:  40a00533   sub a0,zero,a0
    33bc:  03c12083   lw ra,60(sp)
    33c0:  03812403   lw s0,56(sp)
    33c4:  03412483   lw s1,52(sp)
    33c8:  03012903   lw s2,48(sp)
    33cc:  02c12983   lw s3,44(sp)
    33d0:  02812a03   lw s4,40(sp)
    33d4:  02412a83   lw s5,36(sp)
    33d8:  02012b03   lw s6,32(sp)
    33dc:  01c12b83   lw s7,28(sp)
    33e0:  01812c03   lw s8,24(sp)
    33e4:  01412c83   lw s9,20(sp)
    33e8:  01012d03   lw s10,16(sp)
    33ec:  00c12d83   lw s11,12(sp)
    33f0:  04010113   addi sp,sp,64
    33f4:  00008067   ret : jalr zero,0(ra)
    33f8:  010006b7   lui a3,0x1000
    33fc:  01800713   li a4,24 (addi a4,zero,24)
    3400:  ecd678e3   bgeu a2,a3,32d0 (3400 - 0x130)
    3404:  01000713   li a4,16 (addi a4,zero,16)
    3408:  ec9ff06f   jal zero,32d0 (3408 - 0x138)
    340c:  00000713   li a4,0 (addi a4,zero,0)
    3410:  00060c63   beq a2,zero,3428 (3410 + 0x18)
    3414:  00010737   lui a4,0x10
    3418:  14e67e63   bgeu a2,a4,3574 (3418 + 0x15c)
    341c:  10063713   sltu a4,a2,256
    3420:  00173713   sltu a4,a4,1
    3424:  00371713   slli a4,a4,0x3
    3428:  00e656b3   srl a3,a2,a4
    342c:  00d787b3   add a5,a5,a3
    3430:  0007c783   lbu a5,0(a5)
    3434:  40c58933   sub s2,a1,a2
    3438:  00e787b3   add a5,a5,a4
    343c:  02000713   li a4,32 (addi a4,zero,32)
    3440:  40f709b3   sub s3,a4,a5
    3444:  0af70e63   beq a4,a5,3500 (3444 + 0xbc)
    3448:  01361a33   sll s4,a2,s3
    344c:  00f5d933   srl s2,a1,a5
    3450:  010a5b93   srli s7,s4,0x10
    3454:  00f557b3   srl a5,a0,a5
    3458:  013595b3   sll a1,a1,s3
    345c:  00b7eab3   or s5,a5,a1
    3460:  01351433   sll s0,a0,s3
    3464:  000b8593   mv a1,s7 (addi a1,s7,0)
    3468:  010a1b13   slli s6,s4,0x10
    346c:  00090513   mv a0,s2 (addi a0,s2,0)
    3470:  378000ef   jal ra,37e8 (3470 + 0x378) <__udivsi3> 
    3474:  010b5b13   srli s6,s6,0x10
    3478:  000b0593   mv a1,s6 (addi a1,s6,0)
    347c:  340000ef   jal ra,37bc (347c + 0x340) <__mulsi3> 
    3480:  00050c13   mv s8,a0 (addi s8,a0,0)
    3484:  000b8593   mv a1,s7 (addi a1,s7,0)
    3488:  00090513   mv a0,s2 (addi a0,s2,0)
    348c:  3a4000ef   jal ra,3830 (348c + 0x3a4) <__umodsi3> 
    3490:  01051513   slli a0,a0,0x10
    3494:  010ad713   srli a4,s5,0x10
    3498:  00a76733   or a4,a4,a0
    349c:  01877a63   bgeu a4,s8,34b0 (349c + 0x14)
    34a0:  00ea0733   add a4,s4,a4
    34a4:  01476663   bltu a4,s4,34b0 (34a4 + 0xc)
    34a8:  01877463   bgeu a4,s8,34b0 (34a8 + 0x8)
    34ac:  01470733   add a4,a4,s4
    34b0:  41870c33   sub s8,a4,s8
    34b4:  000b8593   mv a1,s7 (addi a1,s7,0)
    34b8:  000c0513   mv a0,s8 (addi a0,s8,0)
    34bc:  32c000ef   jal ra,37e8 (34bc + 0x32c) <__udivsi3> 
    34c0:  000b0593   mv a1,s6 (addi a1,s6,0)
    34c4:  2f8000ef   jal ra,37bc (34c4 + 0x2f8) <__mulsi3> 
    34c8:  00050b13   mv s6,a0 (addi s6,a0,0)
    34cc:  000b8593   mv a1,s7 (addi a1,s7,0)
    34d0:  000c0513   mv a0,s8 (addi a0,s8,0)
    34d4:  35c000ef   jal ra,3830 (34d4 + 0x35c) <__umodsi3> 
    34d8:  010a9793   slli a5,s5,0x10
    34dc:  01051513   slli a0,a0,0x10
    34e0:  0107d793   srli a5,a5,0x10
    34e4:  00a7e7b3   or a5,a5,a0
    34e8:  0167fa63   bgeu a5,s6,34fc (34e8 + 0x14)
    34ec:  00fa07b3   add a5,s4,a5
    34f0:  0147e663   bltu a5,s4,34fc (34f0 + 0xc)
    34f4:  0167f463   bgeu a5,s6,34fc (34f4 + 0x8)
    34f8:  014787b3   add a5,a5,s4
    34fc:  41678933   sub s2,a5,s6
    3500:  010a5b13   srli s6,s4,0x10
    3504:  000b0593   mv a1,s6 (addi a1,s6,0)
    3508:  010a1b93   slli s7,s4,0x10
    350c:  00090513   mv a0,s2 (addi a0,s2,0)
    3510:  2d8000ef   jal ra,37e8 (3510 + 0x2d8) <__udivsi3> 
    3514:  010bdb93   srli s7,s7,0x10
    3518:  000b8593   mv a1,s7 (addi a1,s7,0)
    351c:  2a0000ef   jal ra,37bc (351c + 0x2a0) <__mulsi3> 
    3520:  00050a93   mv s5,a0 (addi s5,a0,0)
    3524:  000b0593   mv a1,s6 (addi a1,s6,0)
    3528:  00090513   mv a0,s2 (addi a0,s2,0)
    352c:  304000ef   jal ra,3830 (352c + 0x304) <__umodsi3> 
    3530:  01051513   slli a0,a0,0x10
    3534:  01045793   srli a5,s0,0x10
    3538:  00a7e7b3   or a5,a5,a0
    353c:  0157fa63   bgeu a5,s5,3550 (353c + 0x14)
    3540:  00fa07b3   add a5,s4,a5
    3544:  0147e663   bltu a5,s4,3550 (3544 + 0xc)
    3548:  0157f463   bgeu a5,s5,3550 (3548 + 0x8)
    354c:  014787b3   add a5,a5,s4
    3550:  41578933   sub s2,a5,s5
    3554:  000b0593   mv a1,s6 (addi a1,s6,0)
    3558:  00090513   mv a0,s2 (addi a0,s2,0)
    355c:  28c000ef   jal ra,37e8 (355c + 0x28c) <__udivsi3> 
    3560:  000b8593   mv a1,s7 (addi a1,s7,0)
    3564:  258000ef   jal ra,37bc (3564 + 0x258) <__mulsi3> 
    3568:  00050a93   mv s5,a0 (addi s5,a0,0)
    356c:  000b0593   mv a1,s6 (addi a1,s6,0)
    3570:  e01ff06f   jal zero,3370 (3570 - 0x200)
    3574:  010006b7   lui a3,0x1000
    3578:  01800713   li a4,24 (addi a4,zero,24)
    357c:  ead676e3   bgeu a2,a3,3428 (357c - 0x154)
    3580:  01000713   li a4,16 (addi a4,zero,16)
    3584:  ea5ff06f   jal zero,3428 (3584 - 0x15c)
    3588:  e2d5e0e3   bltu a1,a3,33a8 (3588 - 0x1e0)
    358c:  000107b7   lui a5,0x10
    3590:  04f6fe63   bgeu a3,a5,35ec (3590 + 0x5c)
    3594:  1006b793   sltu a5,a3,256
    3598:  0017b793   sltu a5,a5,1
    359c:  00379793   slli a5,a5,0x3
    35a0:  00020737   lui a4,0x20
    35a4:  00f6d833   srl a6,a3,a5
    35a8:  20070713   addi a4,a4,512
    35ac:  01070733   add a4,a4,a6
    35b0:  00074a83   lbu s5,0(a4)
    35b4:  00fa8ab3   add s5,s5,a5
    35b8:  02000793   li a5,32 (addi a5,zero,32)
    35bc:  41578a33   sub s4,a5,s5
    35c0:  05579063   bne a5,s5,3600 (35c0 + 0x40)
    35c4:  00b6e463   bltu a3,a1,35cc (35c4 + 0x8)
    35c8:  00c56c63   bltu a0,a2,35e0 (35c8 + 0x18)
    35cc:  40c50933   sub s2,a0,a2
    35d0:  40d586b3   sub a3,a1,a3
    35d4:  012535b3   sltiu a1,a0,s2
    35d8:  00090413   mv s0,s2 (addi s0,s2,0)
    35dc:  40b68b33   sub s6,a3,a1
    35e0:  00040513   mv a0,s0 (addi a0,s0,0)
    35e4:  000b0593   mv a1,s6 (addi a1,s6,0)
    35e8:  dc1ff06f   jal zero,33a8 (35e8 - 0x240)
    35ec:  01000737   lui a4,0x1000
    35f0:  01800793   li a5,24 (addi a5,zero,24)
    35f4:  fae6f6e3   bgeu a3,a4,35a0 (35f4 - 0x54)
    35f8:  01000793   li a5,16 (addi a5,zero,16)
    35fc:  fa5ff06f   jal zero,35a0 (35fc - 0x5c)
    3600:  014696b3   sll a3,a3,s4
    3604:  01565b33   srl s6,a2,s5
    3608:  00db6b33   or s6,s6,a3
    360c:  0155dcb3   srl s9,a1,s5
    3610:  01555433   srl s0,a0,s5
    3614:  014595b3   sll a1,a1,s4
    3618:  010b5b93   srli s7,s6,0x10
    361c:  00b46433   or s0,s0,a1
    3620:  014519b3   sll s3,a0,s4
    3624:  000b8593   mv a1,s7 (addi a1,s7,0)
    3628:  000c8513   mv a0,s9 (addi a0,s9,0)
    362c:  010b1c13   slli s8,s6,0x10
    3630:  01461933   sll s2,a2,s4
    3634:  010c5c13   srli s8,s8,0x10
    3638:  1b0000ef   jal ra,37e8 (3638 + 0x1b0) <__udivsi3> 
    363c:  00050593   mv a1,a0 (addi a1,a0,0)
    3640:  00050d93   mv s11,a0 (addi s11,a0,0)
    3644:  000c0513   mv a0,s8 (addi a0,s8,0)
    3648:  174000ef   jal ra,37bc (3648 + 0x174) <__mulsi3> 
    364c:  00050d13   mv s10,a0 (addi s10,a0,0)
    3650:  000b8593   mv a1,s7 (addi a1,s7,0)
    3654:  000c8513   mv a0,s9 (addi a0,s9,0)
    3658:  1d8000ef   jal ra,3830 (3658 + 0x1d8) <__umodsi3> 
    365c:  01051513   slli a0,a0,0x10
    3660:  01045793   srli a5,s0,0x10
    3664:  00a7e7b3   or a5,a5,a0
    3668:  000d8c93   mv s9,s11 (addi s9,s11,0)
    366c:  01a7fe63   bgeu a5,s10,3688 (366c + 0x1c)
    3670:  00fb07b3   add a5,s6,a5
    3674:  fffd8c93   addi s9,s11,-1
    3678:  0167e863   bltu a5,s6,3688 (3678 + 0x10)
    367c:  01a7f663   bgeu a5,s10,3688 (367c + 0xc)
    3680:  ffed8c93   addi s9,s11,-2
    3684:  016787b3   add a5,a5,s6
    3688:  41a78d33   sub s10,a5,s10
    368c:  000b8593   mv a1,s7 (addi a1,s7,0)
    3690:  000d0513   mv a0,s10 (addi a0,s10,0)
    3694:  154000ef   jal ra,37e8 (3694 + 0x154) <__udivsi3> 
    3698:  00050593   mv a1,a0 (addi a1,a0,0)
    369c:  00050d93   mv s11,a0 (addi s11,a0,0)
    36a0:  000c0513   mv a0,s8 (addi a0,s8,0)
    36a4:  118000ef   jal ra,37bc (36a4 + 0x118) <__mulsi3> 
    36a8:  000b8593   mv a1,s7 (addi a1,s7,0)
    36ac:  00050c13   mv s8,a0 (addi s8,a0,0)
    36b0:  000d0513   mv a0,s10 (addi a0,s10,0)
    36b4:  17c000ef   jal ra,3830 (36b4 + 0x17c) <__umodsi3> 
    36b8:  01041593   slli a1,s0,0x10
    36bc:  01051513   slli a0,a0,0x10
    36c0:  0105d593   srli a1,a1,0x10
    36c4:  00a5e5b3   or a1,a1,a0
    36c8:  000d8793   mv a5,s11 (addi a5,s11,0)
    36cc:  0185fe63   bgeu a1,s8,36e8 (36cc + 0x1c)
    36d0:  00bb05b3   add a1,s6,a1
    36d4:  fffd8793   addi a5,s11,-1
    36d8:  0165e863   bltu a1,s6,36e8 (36d8 + 0x10)
    36dc:  0185f663   bgeu a1,s8,36e8 (36dc + 0xc)
    36e0:  ffed8793   addi a5,s11,-2
    36e4:  016585b3   add a1,a1,s6
    36e8:  010c9c93   slli s9,s9,0x10
    36ec:  00fcecb3   or s9,s9,a5
    36f0:  01091313   slli t1,s2,0x10
    36f4:  01079793   slli a5,a5,0x10
    36f8:  0107d793   srli a5,a5,0x10
    36fc:  01035313   srli t1,t1,0x10
    3700:  41858733   sub a4,a1,s8
    3704:  010cdc93   srli s9,s9,0x10
    3708:  01095893   srli a7,s2,0x10
    370c:  00078513   mv a0,a5 (addi a0,a5,0)
    3710:  00030593   mv a1,t1 (addi a1,t1,0)
    3714:  0a8000ef   jal ra,37bc (3714 + 0xa8) <__mulsi3> 
    3718:  00050813   mv a6,a0 (addi a6,a0,0)
    371c:  00088593   mv a1,a7 (addi a1,a7,0)
    3720:  00078513   mv a0,a5 (addi a0,a5,0)
    3724:  098000ef   jal ra,37bc (3724 + 0x98) <__mulsi3> 
    3728:  00050413   mv s0,a0 (addi s0,a0,0)
    372c:  00030593   mv a1,t1 (addi a1,t1,0)
    3730:  000c8513   mv a0,s9 (addi a0,s9,0)
    3734:  088000ef   jal ra,37bc (3734 + 0x88) <__mulsi3> 
    3738:  00050793   mv a5,a0 (addi a5,a0,0)
    373c:  00088593   mv a1,a7 (addi a1,a7,0)
    3740:  000c8513   mv a0,s9 (addi a0,s9,0)
    3744:  078000ef   jal ra,37bc (3744 + 0x78) <__mulsi3> 
    3748:  00f40433   add s0,s0,a5
    374c:  01085693   srli a3,a6,0x10
    3750:  00d40433   add s0,s0,a3
    3754:  00f47663   bgeu s0,a5,3760 (3754 + 0xc)
    3758:  000107b7   lui a5,0x10
    375c:  00f50533   add a0,a0,a5
    3760:  01045793   srli a5,s0,0x10
    3764:  01081813   slli a6,a6,0x10
    3768:  01041413   slli s0,s0,0x10
    376c:  01085813   srli a6,a6,0x10
    3770:  00a787b3   add a5,a5,a0
    3774:  01040433   add s0,s0,a6
    3778:  00f76663   bltu a4,a5,3784 (3778 + 0xc)
    377c:  00f71e63   bne a4,a5,3798 (377c + 0x1c)
    3780:  0089fc63   bgeu s3,s0,3798 (3780 + 0x18)
    3784:  41240933   sub s2,s0,s2
    3788:  012436b3   sltiu a3,s0,s2
    378c:  016686b3   add a3,a3,s6
    3790:  00090413   mv s0,s2 (addi s0,s2,0)
    3794:  40d787b3   sub a5,a5,a3
    3798:  40898433   sub s0,s3,s0
    379c:  0089b9b3   sltiu s3,s3,s0
    37a0:  40f705b3   sub a1,a4,a5
    37a4:  413585b3   sub a1,a1,s3
    37a8:  01559ab3   sll s5,a1,s5
    37ac:  01445433   srl s0,s0,s4
    37b0:  008ae533   or a0,s5,s0
    37b4:  0145d5b3   srl a1,a1,s4
    37b8:  bf1ff06f   jal zero,33a8 (37b8 - 0x410)
=============== 000037bc : <__mulsi3> =================================
    37bc:  00050613   mv a2,a0 (addi a2,a0,0)
    37c0:  00000513   li a0,0 (addi a0,zero,0)
    37c4:  0015f693   andi a3,a1,1
    37c8:  00068463   beq a3,zero,37d0 (37c8 + 0x8)
    37cc:  00c50533   add a0,a0,a2
    37d0:  0015d593   srli a1,a1,0x1
    37d4:  00161613   slli a2,a2,0x1
    37d8:  fe0596e3   bne a1,zero,37c4 (37d8 - 0x14)
    37dc:  00008067   ret : jalr zero,0(ra)
=============== 000037e0 : <__divsi3> =================================
    37e0:  06054063   blt a0,zero,3840 (37e0 + 0x60)
    37e4:  0605c663   blt a1,zero,3850 (37e4 + 0x6c)
=============== 000037e8 : <__udivsi3> =================================
    37e8:  00058613   mv a2,a1 (addi a2,a1,0)
    37ec:  00050593   mv a1,a0 (addi a1,a0,0)
    37f0:  fff00513   li a0,-1 (addi a0,zero,-1)
    37f4:  02060c63   beq a2,zero,382c (37f4 + 0x38)
    37f8:  00100693   li a3,1 (addi a3,zero,1)
    37fc:  00b67a63   bgeu a2,a1,3810 (37fc + 0x14)
    3800:  00c05863   bge zero,a2,3810 (3800 + 0x10)
    3804:  00161613   slli a2,a2,0x1
    3808:  00169693   slli a3,a3,0x1
    380c:  feb66ae3   bltu a2,a1,3800 (380c - 0xc)
    3810:  00000513   li a0,0 (addi a0,zero,0)
    3814:  00c5e663   bltu a1,a2,3820 (3814 + 0xc)
    3818:  40c585b3   sub a1,a1,a2
    381c:  00d56533   or a0,a0,a3
    3820:  0016d693   srli a3,a3,0x1
    3824:  00165613   srli a2,a2,0x1
    3828:  fe0696e3   bne a3,zero,3814 (3828 - 0x14)
    382c:  00008067   ret : jalr zero,0(ra)
=============== 00003830 : <__umodsi3> =================================
    3830:  00008293   mv t0,ra (addi t0,ra,0)
    3834:  fb5ff0ef   jal ra,37e8 (3834 - 0x4c) <__udivsi3> 
    3838:  00058513   mv a0,a1 (addi a0,a1,0)
    383c:  00028067   jalr zero,0(t0)
    3840:  40a00533   sub a0,zero,a0
    3844:  00b04863   blt zero,a1,3854 (3844 + 0x10)
    3848:  40b005b3   sub a1,zero,a1
    384c:  f9dff06f   jal zero,37e8 (384c - 0x64) <__udivsi3> 
    3850:  40b005b3   sub a1,zero,a1
    3854:  00008293   mv t0,ra (addi t0,ra,0)
    3858:  f91ff0ef   jal ra,37e8 (3858 - 0x70) <__udivsi3> 
    385c:  40a00533   sub a0,zero,a0
    3860:  00028067   jalr zero,0(t0)
=============== 00003864 : <__modsi3> =================================
    3864:  00008293   mv t0,ra (addi t0,ra,0)
    3868:  0005ca63   blt a1,zero,387c (3868 + 0x14)
    386c:  00054c63   blt a0,zero,3884 (386c + 0x18)
    3870:  f79ff0ef   jal ra,37e8 (3870 - 0x88) <__udivsi3> 
    3874:  00058513   mv a0,a1 (addi a0,a1,0)
    3878:  00028067   jalr zero,0(t0)
    387c:  40b005b3   sub a1,zero,a1
    3880:  fe0558e3   bge a0,zero,3870 (3880 - 0x10)
    3884:  40a00533   sub a0,zero,a0
    3888:  f61ff0ef   jal ra,37e8 (3888 - 0xa0) <__udivsi3> 
    388c:  40b00533   sub a0,zero,a1
    3890:  00028067   jalr zero,0(t0)
----------- Symbol Table -----------
00001000 : <_start>
00001044 : <main>
000010a0 : <putline>
00001100 : <puts>
00001144 : <putchar>
00001188 : <puthex>
000012c0 : <putdec>
000013f8 : <printf>
000017f0 : <_io_init>
0000183c : <_io_fini>
00001864 : <set_uart_ID>
000018a4 : <_io_putch>
00001910 : <_UARTBuf_putch>
000019d8 : <_io_getch>
00001a3c : <_UARTBuf_getch>
00001ab8 : <UARTBuf_consume_new_line>
00001afc : <enter_critical_section>
00001b54 : <leave_critical_section>
00001bb0 : <UARTBuf_reset>
00001c08 : <UARTBuf_update>
00001d0c : <UARTBuf_buffered_size>
00001d64 : <UARTBuf_write>
00001dc8 : <UARTBuf_read>
00001e2c : <UARTBuf_read_last>
00001ea4 : <flush_UART>
00001f5c : <UARTBuf_reset_all>
00001fb0 : <enable_BUTTON_interrupt>
0000200c : <enable_UART_interrupt>
0000208c : <disable_UART_interrupt>
0000212c : <UARTintr_handler>
00002270 : <ext_intr_handler>
000022f8 : <mhandler>
000023c4 : <set_gpio_string>
0000241c : <convert_char_seg7>
000025b8 : <convert_hex_char>
0000260c : <convert_unsigned_hex_str>
000026bc : <set_gpio_error>
000029c4 : <set_mtimer_interval>
00002a1c : <mtime_to_microsec>
00002a5c : <enable_timer_interrupt>
00002a98 : <start_profiler>
00002aec : <end_profiler>
00002c28 : <__divdi3>
00003238 : <__moddi3>
000037bc : <__mulsi3>
000037e0 : <__divsi3>
000037e8 : <__udivsi3>
00003830 : <__umodsi3>
00003864 : <__modsi3>
=============== 00001000 : <_start> =================================
[     0:     2]     1000:  00023117   auipc sp,0x23 : sp(00024000)
[     1:     5]     1004:  00010113   mv sp,sp (addi sp,sp,0) : sp(00024000)
[     2:     8]     1008:  00020297   auipc t0,0x20 : t0(00021008)
[     3:    11]     100c:  03828293   addi t0,t0,56 : t0(00021040)
[     4:    14]     1010:  00021317   auipc t1,0x21 : t1(00022010)
[     5:    17]     1014:  ff030313   addi t1,t1,-16 : t1(00022000)
[     6:    21]     1018:  00628863   beq t0,t1,1028 (1018 + 0x10)
[     7:    24]     101c:  0002a023   sw zero,0(t0)
[     8:    27]     1020:  00428293   addi t0,t0,4 : t0(00021044)
[     9:    31]     1024:  fe629ce3   bne t0,t1,101c (1024 - 0x8)
--------------------------------------------------------
[    10:    34]     101c:  0002a023   sw zero,0(t0)
[    11:    37]     1020:  00428293   addi t0,t0,4 : t0(00021048)
[    12:    41]     1024:  fe629ce3   bne t0,t1,101c (1024 - 0x8)
--------------------------------------------------------
[    13:    44]     101c:  0002a023   sw zero,0(t0)
[    14:    47]     1020:  00428293   addi t0,t0,4 : t0(0002104c)
[    15:    51]     1024:  fe629ce3   bne t0,t1,101c (1024 - 0x8)
--------------------------------------------------------
[    16:    54]     101c:  0002a023   sw zero,0(t0)
[    17:    57]     1020:  00428293   addi t0,t0,4 : t0(00021050)
[    18:    61]     1024:  fe629ce3   bne t0,t1,101c (1024 - 0x8)
--------------------------------------------------------
[    19:    64]     101c:  0002a023   sw zero,0(t0)
[    20:    67]     1020:  00428293   addi t0,t0,4 : t0(00021054)
[    21:    71]     1024:  fe629ce3   bne t0,t1,101c (1024 - 0x8)
--------------------------------------------------------
[    22:    74]     101c:  0002a023   sw zero,0(t0)
[    23:    77]     1020:  00428293   addi t0,t0,4 : t0(00021058)
[    24:    81]     1024:  fe629ce3   bne t0,t1,101c (1024 - 0x8)
--------------------------------------------------------
[    25:    84]     101c:  0002a023   sw zero,0(t0)
[    26:    87]     1020:  00428293   addi t0,t0,4 : t0(0002105c)
[    27:    91]     1024:  fe629ce3   bne t0,t1,101c (1024 - 0x8)
--------------------------------------------------------
[    28:    94]     101c:  0002a023   sw zero,0(t0)
[    29:    97]     1020:  00428293   addi t0,t0,4 : t0(00021060)
[    30:   101]     1024:  fe629ce3   bne t0,t1,101c (1024 - 0x8)
--------------------------------------------------------
[    31:   104]     101c:  0002a023   sw zero,0(t0)
[    32:   107]     1020:  00428293   addi t0,t0,4 : t0(00021064)
[    33:   111]     1024:  fe629ce3   bne t0,t1,101c (1024 - 0x8)
--------------------------------------------------------
[    34:   114]     101c:  0002a023   sw zero,0(t0)
[    35:   117]     1020:  00428293   addi t0,t0,4 : t0(00021068)
[    36:   121]     1024:  fe629ce3   bne t0,t1,101c (1024 - 0x8)
--------------------------------------------------------
[    37:   124]     101c:  0002a023   sw zero,0(t0)
[    38:   127]     1020:  00428293   addi t0,t0,4 : t0(0002106c)
[    39:   131]     1024:  fe629ce3   bne t0,t1,101c (1024 - 0x8)
--------------------------------------------------------
[    40:   134]     101c:  0002a023   sw zero,0(t0)
[    41:   137]     1020:  00428293   addi t0,t0,4 : t0(00021070)
[    42:   141]     1024:  fe629ce3   bne t0,t1,101c (1024 - 0x8)
--------------------------------------------------------
[    43:   144]     101c:  0002a023   sw zero,0(t0)
[    44:   147]     1020:  00428293   addi t0,t0,4 : t0(00021074)
[    45:   151]     1024:  fe629ce3   bne t0,t1,101c (1024 - 0x8)
--------------------------------------------------------
[    46:   154]     101c:  0002a023   sw zero,0(t0)
[    47:   157]     1020:  00428293   addi t0,t0,4 : t0(00021078)
[    48:   161]     1024:  fe629ce3   bne t0,t1,101c (1024 - 0x8)
--------------------------------------------------------
[    49:   164]     101c:  0002a023   sw zero,0(t0)
[    50:   167]     1020:  00428293   addi t0,t0,4 : t0(0002107c)
[    51:   171]     1024:  fe629ce3   bne t0,t1,101c (1024 - 0x8)
--------------------------------------------------------
[    52:   174]     101c:  0002a023   sw zero,0(t0)
[    53:   177]     1020:  00428293   addi t0,t0,4 : t0(00021080)
[    54:   181]     1024:  fe629ce3   bne t0,t1,101c (1024 - 0x8)
--------------------------------------------------------
[    55:   184]     101c:  0002a023   sw zero,0(t0)
[    56:   187]     1020:  00428293   addi t0,t0,4 : t0(00021084)
[    57:   191]     1024:  fe629ce3   bne t0,t1,101c (1024 - 0x8)
--------------------------------------------------------
[    58:   194]     101c:  0002a023   sw zero,0(t0)
[    59:   197]     1020:  00428293   addi t0,t0,4 : t0(00021088)
[    60:   201]     1024:  fe629ce3   bne t0,t1,101c (1024 - 0x8)
--------------------------------------------------------
[    61:   204]     101c:  0002a023   sw zero,0(t0)
[    62:   207]     1020:  00428293   addi t0,t0,4 : t0(0002108c)
[    63:   211]     1024:  fe629ce3   bne t0,t1,101c (1024 - 0x8)
--------------------------------------------------------
[    64:   214]     101c:  0002a023   sw zero,0(t0)
[    65:   217]     1020:  00428293   addi t0,t0,4 : t0(00021090)
[    66:   221]     1024:  fe629ce3   bne t0,t1,101c (1024 - 0x8)
--------------------------------------------------------
[    67:   224]     101c:  0002a023   sw zero,0(t0)
[    68:   227]     1020:  00428293   addi t0,t0,4 : t0(00021094)
[    69:   231]     1024:  fe629ce3   bne t0,t1,101c (1024 - 0x8)
--------------------------------------------------------
[    70:   234]     101c:  0002a023   sw zero,0(t0)
[    71:   237]     1020:  00428293   addi t0,t0,4 : t0(00021098)
[    72:   241]     1024:  fe629ce3   bne t0,t1,101c (1024 - 0x8)
--------------------------------------------------------
[    73:   244]     101c:  0002a023   sw zero,0(t0)
[    74:   247]     1020:  00428293   addi t0,t0,4 : t0(0002109c)
[    75:   251]     1024:  fe629ce3   bne t0,t1,101c (1024 - 0x8)
--------------------------------------------------------
[    76:   254]     101c:  0002a023   sw zero,0(t0)
[    77:   257]     1020:  00428293   addi t0,t0,4 : t0(000210a0)
[    78:   261]     1024:  fe629ce3   bne t0,t1,101c (1024 - 0x8)
--------------------------------------------------------
[    79:   264]     101c:  0002a023   sw zero,0(t0)
[    80:   267]     1020:  00428293   addi t0,t0,4 : t0(000210a4)
[    81:   271]     1024:  fe629ce3   bne t0,t1,101c (1024 - 0x8)
--------------------------------------------------------
[    82:   274]     101c:  0002a023   sw zero,0(t0)
[    83:   277]     1020:  00428293   addi t0,t0,4 : t0(000210a8)
[    84:   281]     1024:  fe629ce3   bne t0,t1,101c (1024 - 0x8)
--------------------------------------------------------
[    85:   284]     101c:  0002a023   sw zero,0(t0)
[    86:   287]     1020:  00428293   addi t0,t0,4 : t0(000210ac)
[    87:   291]     1024:  fe629ce3   bne t0,t1,101c (1024 - 0x8)
--------------------------------------------------------
[    88:   294]     101c:  0002a023   sw zero,0(t0)
[    89:   297]     1020:  00428293   addi t0,t0,4 : t0(000210b0)
[    90:   301]     1024:  fe629ce3   bne t0,t1,101c (1024 - 0x8)
--------------------------------------------------------
[    91:   304]     101c:  0002a023   sw zero,0(t0)
[    92:   307]     1020:  00428293   addi t0,t0,4 : t0(000210b4)
[    93:   311]     1024:  fe629ce3   bne t0,t1,101c (1024 - 0x8)
--------------------------------------------------------
[    94:   314]     101c:  0002a023   sw zero,0(t0)
[    95:   317]     1020:  00428293   addi t0,t0,4 : t0(000210b8)
[    96:   321]     1024:  fe629ce3   bne t0,t1,101c (1024 - 0x8)
--------------------------------------------------------
[    97:   324]     101c:  0002a023   sw zero,0(t0)
[    98:   327]     1020:  00428293   addi t0,t0,4 : t0(000210bc)
[    99:   331]     1024:  fe629ce3   bne t0,t1,101c (1024 - 0x8)
--------------------------------------------------------
[   100:   334]     101c:  0002a023   sw zero,0(t0)
[   101:   337]     1020:  00428293   addi t0,t0,4 : t0(000210c0)
[   102:   341]     1024:  fe629ce3   bne t0,t1,101c (1024 - 0x8)
--------------------------------------------------------
[   103:   344]     101c:  0002a023   sw zero,0(t0)
[   104:   347]     1020:  00428293   addi t0,t0,4 : t0(000210c4)
[   105:   351]     1024:  fe629ce3   bne t0,t1,101c (1024 - 0x8)
--------------------------------------------------------
[   106:   354]     101c:  0002a023   sw zero,0(t0)
[   107:   357]     1020:  00428293   addi t0,t0,4 : t0(000210c8)
[   108:   361]     1024:  fe629ce3   bne t0,t1,101c (1024 - 0x8)
--------------------------------------------------------
[   109:   364]     101c:  0002a023   sw zero,0(t0)
[   110:   367]     1020:  00428293   addi t0,t0,4 : t0(000210cc)
[   111:   371]     1024:  fe629ce3   bne t0,t1,101c (1024 - 0x8)
--------------------------------------------------------
[   112:   374]     101c:  0002a023   sw zero,0(t0)
[   113:   377]     1020:  00428293   addi t0,t0,4 : t0(000210d0)
[   114:   381]     1024:  fe629ce3   bne t0,t1,101c (1024 - 0x8)
--------------------------------------------------------
[   115:   384]     101c:  0002a023   sw zero,0(t0)
[   116:   387]     1020:  00428293   addi t0,t0,4 : t0(000210d4)
[   117:   391]     1024:  fe629ce3   bne t0,t1,101c (1024 - 0x8)
--------------------------------------------------------
[   118:   394]     101c:  0002a023   sw zero,0(t0)
[   119:   397]     1020:  00428293   addi t0,t0,4 : t0(000210d8)
[   120:   401]     1024:  fe629ce3   bne t0,t1,101c (1024 - 0x8)
--------------------------------------------------------
[   121:   404]     101c:  0002a023   sw zero,0(t0)
[   122:   407]     1020:  00428293   addi t0,t0,4 : t0(000210dc)
[   123:   411]     1024:  fe629ce3   bne t0,t1,101c (1024 - 0x8)
--------------------------------------------------------
[   124:   414]     101c:  0002a023   sw zero,0(t0)
[   125:   417]     1020:  00428293   addi t0,t0,4 : t0(000210e0)
[   126:   421]     1024:  fe629ce3   bne t0,t1,101c (1024 - 0x8)
--------------------------------------------------------
[   127:   424]     101c:  0002a023   sw zero,0(t0)
[   128:   427]     1020:  00428293   addi t0,t0,4 : t0(000210e4)
[   129:   431]     1024:  fe629ce3   bne t0,t1,101c (1024 - 0x8)
--------------------------------------------------------
[   130:   434]     101c:  0002a023   sw zero,0(t0)
[   131:   437]     1020:  00428293   addi t0,t0,4 : t0(000210e8)
[   132:   441]     1024:  fe629ce3   bne t0,t1,101c (1024 - 0x8)
--------------------------------------------------------
[   133:   444]     101c:  0002a023   sw zero,0(t0)
[   134:   447]     1020:  00428293   addi t0,t0,4 : t0(000210ec)
[   135:   451]     1024:  fe629ce3   bne t0,t1,101c (1024 - 0x8)
--------------------------------------------------------
[   136:   454]     101c:  0002a023   sw zero,0(t0)
[   137:   457]     1020:  00428293   addi t0,t0,4 : t0(000210f0)
[   138:   461]     1024:  fe629ce3   bne t0,t1,101c (1024 - 0x8)
--------------------------------------------------------
[   139:   464]     101c:  0002a023   sw zero,0(t0)
[   140:   467]     1020:  00428293   addi t0,t0,4 : t0(000210f4)
[   141:   471]     1024:  fe629ce3   bne t0,t1,101c (1024 - 0x8)
--------------------------------------------------------
[   142:   474]     101c:  0002a023   sw zero,0(t0)
[   143:   477]     1020:  00428293   addi t0,t0,4 : t0(000210f8)
[   144:   481]     1024:  fe629ce3   bne t0,t1,101c (1024 - 0x8)
--------------------------------------------------------
[   145:   484]     101c:  0002a023   sw zero,0(t0)
[   146:   487]     1020:  00428293   addi t0,t0,4 : t0(000210fc)
[   147:   491]     1024:  fe629ce3   bne t0,t1,101c (1024 - 0x8)
--------------------------------------------------------
[   148:   494]     101c:  0002a023   sw zero,0(t0)
[   149:   497]     1020:  00428293   addi t0,t0,4 : t0(00021100)
[   150:   501]     1024:  fe629ce3   bne t0,t1,101c (1024 - 0x8)
--------------------------------------------------------
[   151:   504]     101c:  0002a023   sw zero,0(t0)
[   152:   507]     1020:  00428293   addi t0,t0,4 : t0(00021104)
[   153:   511]     1024:  fe629ce3   bne t0,t1,101c (1024 - 0x8)
--------------------------------------------------------
[   154:   514]     101c:  0002a023   sw zero,0(t0)
[   155:   517]     1020:  00428293   addi t0,t0,4 : t0(00021108)
[   156:   521]     1024:  fe629ce3   bne t0,t1,101c (1024 - 0x8)
--------------------------------------------------------
[   157:   524]     101c:  0002a023   sw zero,0(t0)
[   158:   527]     1020:  00428293   addi t0,t0,4 : t0(0002110c)
[   159:   531]     1024:  fe629ce3   bne t0,t1,101c (1024 - 0x8)
--------------------------------------------------------
[   160:   534]     101c:  0002a023   sw zero,0(t0)
[   161:   537]     1020:  00428293   addi t0,t0,4 : t0(00021110)
[   162:   541]     1024:  fe629ce3   bne t0,t1,101c (1024 - 0x8)
--------------------------------------------------------
[   163:   544]     101c:  0002a023   sw zero,0(t0)
[   164:   547]     1020:  00428293   addi t0,t0,4 : t0(00021114)
[   165:   551]     1024:  fe629ce3   bne t0,t1,101c (1024 - 0x8)
--------------------------------------------------------
[   166:   554]     101c:  0002a023   sw zero,0(t0)
[   167:   557]     1020:  00428293   addi t0,t0,4 : t0(00021118)
[   168:   561]     1024:  fe629ce3   bne t0,t1,101c (1024 - 0x8)
--------------------------------------------------------
[   169:   564]     101c:  0002a023   sw zero,0(t0)
[   170:   567]     1020:  00428293   addi t0,t0,4 : t0(0002111c)
[   171:   571]     1024:  fe629ce3   bne t0,t1,101c (1024 - 0x8)
--------------------------------------------------------
[   172:   574]     101c:  0002a023   sw zero,0(t0)
[   173:   577]     1020:  00428293   addi t0,t0,4 : t0(00021120)
[   174:   581]     1024:  fe629ce3   bne t0,t1,101c (1024 - 0x8)
--------------------------------------------------------
[   175:   584]     101c:  0002a023   sw zero,0(t0)
[   176:   587]     1020:  00428293   addi t0,t0,4 : t0(00021124)
[   177:   591]     1024:  fe629ce3   bne t0,t1,101c (1024 - 0x8)
--------------------------------------------------------
[   178:   594]     101c:  0002a023   sw zero,0(t0)
[   179:   597]     1020:  00428293   addi t0,t0,4 : t0(00021128)
[   180:   601]     1024:  fe629ce3   bne t0,t1,101c (1024 - 0x8)
--------------------------------------------------------
[   181:   604]     101c:  0002a023   sw zero,0(t0)
[   182:   607]     1020:  00428293   addi t0,t0,4 : t0(0002112c)
[   183:   611]     1024:  fe629ce3   bne t0,t1,101c (1024 - 0x8)
--------------------------------------------------------
[   184:   614]     101c:  0002a023   sw zero,0(t0)
[   185:   617]     1020:  00428293   addi t0,t0,4 : t0(00021130)
[   186:   621]     1024:  fe629ce3   bne t0,t1,101c (1024 - 0x8)
--------------------------------------------------------
[   187:   624]     101c:  0002a023   sw zero,0(t0)
[   188:   627]     1020:  00428293   addi t0,t0,4 : t0(00021134)
[   189:   631]     1024:  fe629ce3   bne t0,t1,101c (1024 - 0x8)
--------------------------------------------------------
[   190:   634]     101c:  0002a023   sw zero,0(t0)
[   191:   637]     1020:  00428293   addi t0,t0,4 : t0(00021138)
[   192:   641]     1024:  fe629ce3   bne t0,t1,101c (1024 - 0x8)
--------------------------------------------------------
[   193:   644]     101c:  0002a023   sw zero,0(t0)
[   194:   647]     1020:  00428293   addi t0,t0,4 : t0(0002113c)
[   195:   651]     1024:  fe629ce3   bne t0,t1,101c (1024 - 0x8)
--------------------------------------------------------
[   196:   654]     101c:  0002a023   sw zero,0(t0)
[   197:   657]     1020:  00428293   addi t0,t0,4 : t0(00021140)
[   198:   661]     1024:  fe629ce3   bne t0,t1,101c (1024 - 0x8)
--------------------------------------------------------
[   199:   664]     101c:  0002a023   sw zero,0(t0)
[   200:   667]     1020:  00428293   addi t0,t0,4 : t0(00021144)
[   201:   671]     1024:  fe629ce3   bne t0,t1,101c (1024 - 0x8)
--------------------------------------------------------
[   202:   674]     101c:  0002a023   sw zero,0(t0)
[   203:   677]     1020:  00428293   addi t0,t0,4 : t0(00021148)
[   204:   681]     1024:  fe629ce3   bne t0,t1,101c (1024 - 0x8)
--------------------------------------------------------
[   205:   684]     101c:  0002a023   sw zero,0(t0)
[   206:   687]     1020:  00428293   addi t0,t0,4 : t0(0002114c)
[   207:   691]     1024:  fe629ce3   bne t0,t1,101c (1024 - 0x8)
--------------------------------------------------------
[   208:   694]     101c:  0002a023   sw zero,0(t0)
[   209:   697]     1020:  00428293   addi t0,t0,4 : t0(00021150)
[   210:   701]     1024:  fe629ce3   bne t0,t1,101c (1024 - 0x8)
--------------------------------------------------------
[   211:   704]     101c:  0002a023   sw zero,0(t0)
[   212:   707]     1020:  00428293   addi t0,t0,4 : t0(00021154)
[   213:   711]     1024:  fe629ce3   bne t0,t1,101c (1024 - 0x8)
--------------------------------------------------------
[   214:   714]     101c:  0002a023   sw zero,0(t0)
[   215:   717]     1020:  00428293   addi t0,t0,4 : t0(00021158)
[   216:   721]     1024:  fe629ce3   bne t0,t1,101c (1024 - 0x8)
--------------------------------------------------------
[   217:   724]     101c:  0002a023   sw zero,0(t0)
[   218:   727]     1020:  00428293   addi t0,t0,4 : t0(0002115c)
[   219:   731]     1024:  fe629ce3   bne t0,t1,101c (1024 - 0x8)
--------------------------------------------------------
[   220:   734]     101c:  0002a023   sw zero,0(t0)
[   221:   737]     1020:  00428293   addi t0,t0,4 : t0(00021160)
[   222:   741]     1024:  fe629ce3   bne t0,t1,101c (1024 - 0x8)
--------------------------------------------------------
[   223:   744]     101c:  0002a023   sw zero,0(t0)
[   224:   747]     1020:  00428293   addi t0,t0,4 : t0(00021164)
[   225:   751]     1024:  fe629ce3   bne t0,t1,101c (1024 - 0x8)
--------------------------------------------------------
[   226:   754]     101c:  0002a023   sw zero,0(t0)
[   227:   757]     1020:  00428293   addi t0,t0,4 : t0(00021168)
[   228:   761]     1024:  fe629ce3   bne t0,t1,101c (1024 - 0x8)
--------------------------------------------------------
[   229:   764]     101c:  0002a023   sw zero,0(t0)
[   230:   767]     1020:  00428293   addi t0,t0,4 : t0(0002116c)
[   231:   771]     1024:  fe629ce3   bne t0,t1,101c (1024 - 0x8)
--------------------------------------------------------
[   232:   774]     101c:  0002a023   sw zero,0(t0)
[   233:   777]     1020:  00428293   addi t0,t0,4 : t0(00021170)
[   234:   781]     1024:  fe629ce3   bne t0,t1,101c (1024 - 0x8)
--------------------------------------------------------
[   235:   784]     101c:  0002a023   sw zero,0(t0)
[   236:   787]     1020:  00428293   addi t0,t0,4 : t0(00021174)
[   237:   791]     1024:  fe629ce3   bne t0,t1,101c (1024 - 0x8)
--------------------------------------------------------
[   238:   794]     101c:  0002a023   sw zero,0(t0)
[   239:   797]     1020:  00428293   addi t0,t0,4 : t0(00021178)
[   240:   801]     1024:  fe629ce3   bne t0,t1,101c (1024 - 0x8)
--------------------------------------------------------
[   241:   804]     101c:  0002a023   sw zero,0(t0)
[   242:   807]     1020:  00428293   addi t0,t0,4 : t0(0002117c)
[   243:   811]     1024:  fe629ce3   bne t0,t1,101c (1024 - 0x8)
--------------------------------------------------------
[   244:   814]     101c:  0002a023   sw zero,0(t0)
[   245:   817]     1020:  00428293   addi t0,t0,4 : t0(00021180)
[   246:   821]     1024:  fe629ce3   bne t0,t1,101c (1024 - 0x8)
--------------------------------------------------------
[   247:   824]     101c:  0002a023   sw zero,0(t0)
[   248:   827]     1020:  00428293   addi t0,t0,4 : t0(00021184)
[   249:   831]     1024:  fe629ce3   bne t0,t1,101c (1024 - 0x8)
--------------------------------------------------------
[   250:   834]     101c:  0002a023   sw zero,0(t0)
[   251:   837]     1020:  00428293   addi t0,t0,4 : t0(00021188)
[   252:   841]     1024:  fe629ce3   bne t0,t1,101c (1024 - 0x8)
--------------------------------------------------------
[   253:   844]     101c:  0002a023   sw zero,0(t0)
[   254:   847]     1020:  00428293   addi t0,t0,4 : t0(0002118c)
[   255:   851]     1024:  fe629ce3   bne t0,t1,101c (1024 - 0x8)
--------------------------------------------------------
[   256:   854]     101c:  0002a023   sw zero,0(t0)
[   257:   857]     1020:  00428293   addi t0,t0,4 : t0(00021190)
[   258:   861]     1024:  fe629ce3   bne t0,t1,101c (1024 - 0x8)
--------------------------------------------------------
[   259:   864]     101c:  0002a023   sw zero,0(t0)
[   260:   867]     1020:  00428293   addi t0,t0,4 : t0(00021194)
[   261:   871]     1024:  fe629ce3   bne t0,t1,101c (1024 - 0x8)
--------------------------------------------------------
[   262:   874]     101c:  0002a023   sw zero,0(t0)
[   263:   877]     1020:  00428293   addi t0,t0,4 : t0(00021198)
[   264:   881]     1024:  fe629ce3   bne t0,t1,101c (1024 - 0x8)
--------------------------------------------------------
[   265:   884]     101c:  0002a023   sw zero,0(t0)
[   266:   887]     1020:  00428293   addi t0,t0,4 : t0(0002119c)
[   267:   891]     1024:  fe629ce3   bne t0,t1,101c (1024 - 0x8)
--------------------------------------------------------
[   268:   894]     101c:  0002a023   sw zero,0(t0)
[   269:   897]     1020:  00428293   addi t0,t0,4 : t0(000211a0)
[   270:   901]     1024:  fe629ce3   bne t0,t1,101c (1024 - 0x8)
--------------------------------------------------------
[   271:   904]     101c:  0002a023   sw zero,0(t0)
[   272:   907]     1020:  00428293   addi t0,t0,4 : t0(000211a4)
[   273:   911]     1024:  fe629ce3   bne t0,t1,101c (1024 - 0x8)
--------------------------------------------------------
[   274:   914]     101c:  0002a023   sw zero,0(t0)
[   275:   917]     1020:  00428293   addi t0,t0,4 : t0(000211a8)
[   276:   921]     1024:  fe629ce3   bne t0,t1,101c (1024 - 0x8)
--------------------------------------------------------
[   277:   924]     101c:  0002a023   sw zero,0(t0)
[   278:   927]     1020:  00428293   addi t0,t0,4 : t0(000211ac)
[   279:   931]     1024:  fe629ce3   bne t0,t1,101c (1024 - 0x8)
--------------------------------------------------------
[   280:   934]     101c:  0002a023   sw zero,0(t0)
[   281:   937]     1020:  00428293   addi t0,t0,4 : t0(000211b0)
[   282:   941]     1024:  fe629ce3   bne t0,t1,101c (1024 - 0x8)
--------------------------------------------------------
[   283:   944]     101c:  0002a023   sw zero,0(t0)
[   284:   947]     1020:  00428293   addi t0,t0,4 : t0(000211b4)
[   285:   951]     1024:  fe629ce3   bne t0,t1,101c (1024 - 0x8)
--------------------------------------------------------
[   286:   954]     101c:  0002a023   sw zero,0(t0)
[   287:   957]     1020:  00428293   addi t0,t0,4 : t0(000211b8)
[   288:   961]     1024:  fe629ce3   bne t0,t1,101c (1024 - 0x8)
--------------------------------------------------------
[   289:   964]     101c:  0002a023   sw zero,0(t0)
[   290:   967]     1020:  00428293   addi t0,t0,4 : t0(000211bc)
[   291:   971]     1024:  fe629ce3   bne t0,t1,101c (1024 - 0x8)
--------------------------------------------------------
[   292:   974]     101c:  0002a023   sw zero,0(t0)
[   293:   977]     1020:  00428293   addi t0,t0,4 : t0(000211c0)
[   294:   981]     1024:  fe629ce3   bne t0,t1,101c (1024 - 0x8)
--------------------------------------------------------
[   295:   984]     101c:  0002a023   sw zero,0(t0)
[   296:   987]     1020:  00428293   addi t0,t0,4 : t0(000211c4)
[   297:   991]     1024:  fe629ce3   bne t0,t1,101c (1024 - 0x8)
--------------------------------------------------------
[   298:   994]     101c:  0002a023   sw zero,0(t0)
[   299:   997]     1020:  00428293   addi t0,t0,4 : t0(000211c8)
[   300:  1001]     1024:  fe629ce3   bne t0,t1,101c (1024 - 0x8)
--------------------------------------------------------
[   301:  1004]     101c:  0002a023   sw zero,0(t0)
[   302:  1007]     1020:  00428293   addi t0,t0,4 : t0(000211cc)
[   303:  1011]     1024:  fe629ce3   bne t0,t1,101c (1024 - 0x8)
--------------------------------------------------------
[   304:  1014]     101c:  0002a023   sw zero,0(t0)
[   305:  1017]     1020:  00428293   addi t0,t0,4 : t0(000211d0)
[   306:  1021]     1024:  fe629ce3   bne t0,t1,101c (1024 - 0x8)
--------------------------------------------------------
[   307:  1024]     101c:  0002a023   sw zero,0(t0)
[   308:  1027]     1020:  00428293   addi t0,t0,4 : t0(000211d4)
[   309:  1031]     1024:  fe629ce3   bne t0,t1,101c (1024 - 0x8)
--------------------------------------------------------
[   310:  1034]     101c:  0002a023   sw zero,0(t0)
[   311:  1037]     1020:  00428293   addi t0,t0,4 : t0(000211d8)
[   312:  1041]     1024:  fe629ce3   bne t0,t1,101c (1024 - 0x8)
--------------------------------------------------------
[   313:  1044]     101c:  0002a023   sw zero,0(t0)
[   314:  1047]     1020:  00428293   addi t0,t0,4 : t0(000211dc)
[   315:  1051]     1024:  fe629ce3   bne t0,t1,101c (1024 - 0x8)
--------------------------------------------------------
[   316:  1054]     101c:  0002a023   sw zero,0(t0)
[   317:  1057]     1020:  00428293   addi t0,t0,4 : t0(000211e0)
[   318:  1061]     1024:  fe629ce3   bne t0,t1,101c (1024 - 0x8)
--------------------------------------------------------
[   319:  1064]     101c:  0002a023   sw zero,0(t0)
[   320:  1067]     1020:  00428293   addi t0,t0,4 : t0(000211e4)
[   321:  1071]     1024:  fe629ce3   bne t0,t1,101c (1024 - 0x8)
--------------------------------------------------------
[   322:  1074]     101c:  0002a023   sw zero,0(t0)
[   323:  1077]     1020:  00428293   addi t0,t0,4 : t0(000211e8)
[   324:  1081]     1024:  fe629ce3   bne t0,t1,101c (1024 - 0x8)
--------------------------------------------------------
[   325:  1084]     101c:  0002a023   sw zero,0(t0)
[   326:  1087]     1020:  00428293   addi t0,t0,4 : t0(000211ec)
[   327:  1091]     1024:  fe629ce3   bne t0,t1,101c (1024 - 0x8)
--------------------------------------------------------
[   328:  1094]     101c:  0002a023   sw zero,0(t0)
[   329:  1097]     1020:  00428293   addi t0,t0,4 : t0(000211f0)
[   330:  1101]     1024:  fe629ce3   bne t0,t1,101c (1024 - 0x8)
--------------------------------------------------------
[   331:  1104]     101c:  0002a023   sw zero,0(t0)
[   332:  1107]     1020:  00428293   addi t0,t0,4 : t0(000211f4)
[   333:  1111]     1024:  fe629ce3   bne t0,t1,101c (1024 - 0x8)
--------------------------------------------------------
[   334:  1114]     101c:  0002a023   sw zero,0(t0)
[   335:  1117]     1020:  00428293   addi t0,t0,4 : t0(000211f8)
[   336:  1121]     1024:  fe629ce3   bne t0,t1,101c (1024 - 0x8)
--------------------------------------------------------
[   337:  1124]     101c:  0002a023   sw zero,0(t0)
[   338:  1127]     1020:  00428293   addi t0,t0,4 : t0(000211fc)
[   339:  1131]     1024:  fe629ce3   bne t0,t1,101c (1024 - 0x8)
--------------------------------------------------------
[   340:  1134]     101c:  0002a023   sw zero,0(t0)
[   341:  1137]     1020:  00428293   addi t0,t0,4 : t0(00021200)
[   342:  1141]     1024:  fe629ce3   bne t0,t1,101c (1024 - 0x8)
--------------------------------------------------------
[   343:  1144]     101c:  0002a023   sw zero,0(t0)
[   344:  1147]     1020:  00428293   addi t0,t0,4 : t0(00021204)
[   345:  1151]     1024:  fe629ce3   bne t0,t1,101c (1024 - 0x8)
--------------------------------------------------------
[   346:  1154]     101c:  0002a023   sw zero,0(t0)
[   347:  1157]     1020:  00428293   addi t0,t0,4 : t0(00021208)
[   348:  1161]     1024:  fe629ce3   bne t0,t1,101c (1024 - 0x8)
--------------------------------------------------------
[   349:  1164]     101c:  0002a023   sw zero,0(t0)
[   350:  1167]     1020:  00428293   addi t0,t0,4 : t0(0002120c)
[   351:  1171]     1024:  fe629ce3   bne t0,t1,101c (1024 - 0x8)
--------------------------------------------------------
[   352:  1174]     101c:  0002a023   sw zero,0(t0)
[   353:  1177]     1020:  00428293   addi t0,t0,4 : t0(00021210)
[   354:  1181]     1024:  fe629ce3   bne t0,t1,101c (1024 - 0x8)
--------------------------------------------------------
[   355:  1184]     101c:  0002a023   sw zero,0(t0)
[   356:  1187]     1020:  00428293   addi t0,t0,4 : t0(00021214)
[   357:  1191]     1024:  fe629ce3   bne t0,t1,101c (1024 - 0x8)
--------------------------------------------------------
[   358:  1194]     101c:  0002a023   sw zero,0(t0)
[   359:  1197]     1020:  00428293   addi t0,t0,4 : t0(00021218)
[   360:  1201]     1024:  fe629ce3   bne t0,t1,101c (1024 - 0x8)
--------------------------------------------------------
[   361:  1204]     101c:  0002a023   sw zero,0(t0)
[   362:  1207]     1020:  00428293   addi t0,t0,4 : t0(0002121c)
[   363:  1211]     1024:  fe629ce3   bne t0,t1,101c (1024 - 0x8)
--------------------------------------------------------
[   364:  1214]     101c:  0002a023   sw zero,0(t0)
[   365:  1217]     1020:  00428293   addi t0,t0,4 : t0(00021220)
[   366:  1221]     1024:  fe629ce3   bne t0,t1,101c (1024 - 0x8)
--------------------------------------------------------
[   367:  1224]     101c:  0002a023   sw zero,0(t0)
[   368:  1227]     1020:  00428293   addi t0,t0,4 : t0(00021224)
[   369:  1231]     1024:  fe629ce3   bne t0,t1,101c (1024 - 0x8)
--------------------------------------------------------
[   370:  1234]     101c:  0002a023   sw zero,0(t0)
[   371:  1237]     1020:  00428293   addi t0,t0,4 : t0(00021228)
[   372:  1241]     1024:  fe629ce3   bne t0,t1,101c (1024 - 0x8)
--------------------------------------------------------
[   373:  1244]     101c:  0002a023   sw zero,0(t0)
[   374:  1247]     1020:  00428293   addi t0,t0,4 : t0(0002122c)
[   375:  1251]     1024:  fe629ce3   bne t0,t1,101c (1024 - 0x8)
--------------------------------------------------------
[   376:  1254]     101c:  0002a023   sw zero,0(t0)
[   377:  1257]     1020:  00428293   addi t0,t0,4 : t0(00021230)
[   378:  1261]     1024:  fe629ce3   bne t0,t1,101c (1024 - 0x8)
--------------------------------------------------------
[   379:  1264]     101c:  0002a023   sw zero,0(t0)
[   380:  1267]     1020:  00428293   addi t0,t0,4 : t0(00021234)
[   381:  1271]     1024:  fe629ce3   bne t0,t1,101c (1024 - 0x8)
--------------------------------------------------------
[   382:  1274]     101c:  0002a023   sw zero,0(t0)
[   383:  1277]     1020:  00428293   addi t0,t0,4 : t0(00021238)
[   384:  1281]     1024:  fe629ce3   bne t0,t1,101c (1024 - 0x8)
--------------------------------------------------------
[   385:  1284]     101c:  0002a023   sw zero,0(t0)
[   386:  1287]     1020:  00428293   addi t0,t0,4 : t0(0002123c)
[   387:  1291]     1024:  fe629ce3   bne t0,t1,101c (1024 - 0x8)
--------------------------------------------------------
[   388:  1294]     101c:  0002a023   sw zero,0(t0)
[   389:  1297]     1020:  00428293   addi t0,t0,4 : t0(00021240)
[   390:  1301]     1024:  fe629ce3   bne t0,t1,101c (1024 - 0x8)
--------------------------------------------------------
[   391:  1304]     101c:  0002a023   sw zero,0(t0)
[   392:  1307]     1020:  00428293   addi t0,t0,4 : t0(00021244)
[   393:  1311]     1024:  fe629ce3   bne t0,t1,101c (1024 - 0x8)
--------------------------------------------------------
[   394:  1314]     101c:  0002a023   sw zero,0(t0)
[   395:  1317]     1020:  00428293   addi t0,t0,4 : t0(00021248)
[   396:  1321]     1024:  fe629ce3   bne t0,t1,101c (1024 - 0x8)
--------------------------------------------------------
[   397:  1324]     101c:  0002a023   sw zero,0(t0)
[   398:  1327]     1020:  00428293   addi t0,t0,4 : t0(0002124c)
[   399:  1331]     1024:  fe629ce3   bne t0,t1,101c (1024 - 0x8)
--------------------------------------------------------
[   400:  1334]     101c:  0002a023   sw zero,0(t0)
[   401:  1337]     1020:  00428293   addi t0,t0,4 : t0(00021250)
[   402:  1341]     1024:  fe629ce3   bne t0,t1,101c (1024 - 0x8)
--------------------------------------------------------
[   403:  1344]     101c:  0002a023   sw zero,0(t0)
[   404:  1347]     1020:  00428293   addi t0,t0,4 : t0(00021254)
[   405:  1351]     1024:  fe629ce3   bne t0,t1,101c (1024 - 0x8)
--------------------------------------------------------
[   406:  1354]     101c:  0002a023   sw zero,0(t0)
[   407:  1357]     1020:  00428293   addi t0,t0,4 : t0(00021258)
[   408:  1361]     1024:  fe629ce3   bne t0,t1,101c (1024 - 0x8)
--------------------------------------------------------
[   409:  1364]     101c:  0002a023   sw zero,0(t0)
[   410:  1367]     1020:  00428293   addi t0,t0,4 : t0(0002125c)
[   411:  1371]     1024:  fe629ce3   bne t0,t1,101c (1024 - 0x8)
--------------------------------------------------------
[   412:  1374]     101c:  0002a023   sw zero,0(t0)
[   413:  1377]     1020:  00428293   addi t0,t0,4 : t0(00021260)
[   414:  1381]     1024:  fe629ce3   bne t0,t1,101c (1024 - 0x8)
--------------------------------------------------------
[   415:  1384]     101c:  0002a023   sw zero,0(t0)
[   416:  1387]     1020:  00428293   addi t0,t0,4 : t0(00021264)
[   417:  1391]     1024:  fe629ce3   bne t0,t1,101c (1024 - 0x8)
--------------------------------------------------------
[   418:  1394]     101c:  0002a023   sw zero,0(t0)
[   419:  1397]     1020:  00428293   addi t0,t0,4 : t0(00021268)
[   420:  1401]     1024:  fe629ce3   bne t0,t1,101c (1024 - 0x8)
--------------------------------------------------------
[   421:  1404]     101c:  0002a023   sw zero,0(t0)
[   422:  1407]     1020:  00428293   addi t0,t0,4 : t0(0002126c)
[   423:  1411]     1024:  fe629ce3   bne t0,t1,101c (1024 - 0x8)
--------------------------------------------------------
[   424:  1414]     101c:  0002a023   sw zero,0(t0)
[   425:  1417]     1020:  00428293   addi t0,t0,4 : t0(00021270)
[   426:  1421]     1024:  fe629ce3   bne t0,t1,101c (1024 - 0x8)
--------------------------------------------------------
[   427:  1424]     101c:  0002a023   sw zero,0(t0)
[   428:  1427]     1020:  00428293   addi t0,t0,4 : t0(00021274)
[   429:  1431]     1024:  fe629ce3   bne t0,t1,101c (1024 - 0x8)
--------------------------------------------------------
[   430:  1434]     101c:  0002a023   sw zero,0(t0)
[   431:  1437]     1020:  00428293   addi t0,t0,4 : t0(00021278)
[   432:  1441]     1024:  fe629ce3   bne t0,t1,101c (1024 - 0x8)
--------------------------------------------------------
[   433:  1444]     101c:  0002a023   sw zero,0(t0)
[   434:  1447]     1020:  00428293   addi t0,t0,4 : t0(0002127c)
[   435:  1451]     1024:  fe629ce3   bne t0,t1,101c (1024 - 0x8)
--------------------------------------------------------
[   436:  1454]     101c:  0002a023   sw zero,0(t0)
[   437:  1457]     1020:  00428293   addi t0,t0,4 : t0(00021280)
[   438:  1461]     1024:  fe629ce3   bne t0,t1,101c (1024 - 0x8)
--------------------------------------------------------
[   439:  1464]     101c:  0002a023   sw zero,0(t0)
[   440:  1467]     1020:  00428293   addi t0,t0,4 : t0(00021284)
[   441:  1471]     1024:  fe629ce3   bne t0,t1,101c (1024 - 0x8)
--------------------------------------------------------
[   442:  1474]     101c:  0002a023   sw zero,0(t0)
[   443:  1477]     1020:  00428293   addi t0,t0,4 : t0(00021288)
[   444:  1481]     1024:  fe629ce3   bne t0,t1,101c (1024 - 0x8)
--------------------------------------------------------
[   445:  1484]     101c:  0002a023   sw zero,0(t0)
[   446:  1487]     1020:  00428293   addi t0,t0,4 : t0(0002128c)
[   447:  1491]     1024:  fe629ce3   bne t0,t1,101c (1024 - 0x8)
--------------------------------------------------------
[   448:  1494]     101c:  0002a023   sw zero,0(t0)
[   449:  1497]     1020:  00428293   addi t0,t0,4 : t0(00021290)
[   450:  1501]     1024:  fe629ce3   bne t0,t1,101c (1024 - 0x8)
--------------------------------------------------------
[   451:  1504]     101c:  0002a023   sw zero,0(t0)
[   452:  1507]     1020:  00428293   addi t0,t0,4 : t0(00021294)
[   453:  1511]     1024:  fe629ce3   bne t0,t1,101c (1024 - 0x8)
--------------------------------------------------------
[   454:  1514]     101c:  0002a023   sw zero,0(t0)
[   455:  1517]     1020:  00428293   addi t0,t0,4 : t0(00021298)
[   456:  1521]     1024:  fe629ce3   bne t0,t1,101c (1024 - 0x8)
--------------------------------------------------------
[   457:  1524]     101c:  0002a023   sw zero,0(t0)
[   458:  1527]     1020:  00428293   addi t0,t0,4 : t0(0002129c)
[   459:  1531]     1024:  fe629ce3   bne t0,t1,101c (1024 - 0x8)
--------------------------------------------------------
[   460:  1534]     101c:  0002a023   sw zero,0(t0)
[   461:  1537]     1020:  00428293   addi t0,t0,4 : t0(000212a0)
[   462:  1541]     1024:  fe629ce3   bne t0,t1,101c (1024 - 0x8)
--------------------------------------------------------
[   463:  1544]     101c:  0002a023   sw zero,0(t0)
[   464:  1547]     1020:  00428293   addi t0,t0,4 : t0(000212a4)
[   465:  1551]     1024:  fe629ce3   bne t0,t1,101c (1024 - 0x8)
--------------------------------------------------------
[   466:  1554]     101c:  0002a023   sw zero,0(t0)
[   467:  1557]     1020:  00428293   addi t0,t0,4 : t0(000212a8)
[   468:  1561]     1024:  fe629ce3   bne t0,t1,101c (1024 - 0x8)
--------------------------------------------------------
[   469:  1564]     101c:  0002a023   sw zero,0(t0)
[   470:  1567]     1020:  00428293   addi t0,t0,4 : t0(000212ac)
[   471:  1571]     1024:  fe629ce3   bne t0,t1,101c (1024 - 0x8)
--------------------------------------------------------
[   472:  1574]     101c:  0002a023   sw zero,0(t0)
[   473:  1577]     1020:  00428293   addi t0,t0,4 : t0(000212b0)
[   474:  1581]     1024:  fe629ce3   bne t0,t1,101c (1024 - 0x8)
--------------------------------------------------------
[   475:  1584]     101c:  0002a023   sw zero,0(t0)
[   476:  1587]     1020:  00428293   addi t0,t0,4 : t0(000212b4)
[   477:  1591]     1024:  fe629ce3   bne t0,t1,101c (1024 - 0x8)
--------------------------------------------------------
[   478:  1594]     101c:  0002a023   sw zero,0(t0)
[   479:  1597]     1020:  00428293   addi t0,t0,4 : t0(000212b8)
[   480:  1601]     1024:  fe629ce3   bne t0,t1,101c (1024 - 0x8)
--------------------------------------------------------
[   481:  1604]     101c:  0002a023   sw zero,0(t0)
[   482:  1607]     1020:  00428293   addi t0,t0,4 : t0(000212bc)
[   483:  1611]     1024:  fe629ce3   bne t0,t1,101c (1024 - 0x8)
--------------------------------------------------------
[   484:  1614]     101c:  0002a023   sw zero,0(t0)
[   485:  1617]     1020:  00428293   addi t0,t0,4 : t0(000212c0)
[   486:  1621]     1024:  fe629ce3   bne t0,t1,101c (1024 - 0x8)
--------------------------------------------------------
[   487:  1624]     101c:  0002a023   sw zero,0(t0)
[   488:  1627]     1020:  00428293   addi t0,t0,4 : t0(000212c4)
[   489:  1631]     1024:  fe629ce3   bne t0,t1,101c (1024 - 0x8)
--------------------------------------------------------
[   490:  1634]     101c:  0002a023   sw zero,0(t0)
[   491:  1637]     1020:  00428293   addi t0,t0,4 : t0(000212c8)
[   492:  1641]     1024:  fe629ce3   bne t0,t1,101c (1024 - 0x8)
--------------------------------------------------------
[   493:  1644]     101c:  0002a023   sw zero,0(t0)
[   494:  1647]     1020:  00428293   addi t0,t0,4 : t0(000212cc)
[   495:  1651]     1024:  fe629ce3   bne t0,t1,101c (1024 - 0x8)
--------------------------------------------------------
[   496:  1654]     101c:  0002a023   sw zero,0(t0)
[   497:  1657]     1020:  00428293   addi t0,t0,4 : t0(000212d0)
[   498:  1661]     1024:  fe629ce3   bne t0,t1,101c (1024 - 0x8)
--------------------------------------------------------
[   499:  1664]     101c:  0002a023   sw zero,0(t0)
[   500:  1667]     1020:  00428293   addi t0,t0,4 : t0(000212d4)
[   501:  1671]     1024:  fe629ce3   bne t0,t1,101c (1024 - 0x8)
--------------------------------------------------------
[   502:  1674]     101c:  0002a023   sw zero,0(t0)
[   503:  1677]     1020:  00428293   addi t0,t0,4 : t0(000212d8)
[   504:  1681]     1024:  fe629ce3   bne t0,t1,101c (1024 - 0x8)
--------------------------------------------------------
[   505:  1684]     101c:  0002a023   sw zero,0(t0)
[   506:  1687]     1020:  00428293   addi t0,t0,4 : t0(000212dc)
[   507:  1691]     1024:  fe629ce3   bne t0,t1,101c (1024 - 0x8)
--------------------------------------------------------
[   508:  1694]     101c:  0002a023   sw zero,0(t0)
[   509:  1697]     1020:  00428293   addi t0,t0,4 : t0(000212e0)
[   510:  1701]     1024:  fe629ce3   bne t0,t1,101c (1024 - 0x8)
--------------------------------------------------------
[   511:  1704]     101c:  0002a023   sw zero,0(t0)
[   512:  1707]     1020:  00428293   addi t0,t0,4 : t0(000212e4)
[   513:  1711]     1024:  fe629ce3   bne t0,t1,101c (1024 - 0x8)
--------------------------------------------------------
[   514:  1714]     101c:  0002a023   sw zero,0(t0)
[   515:  1717]     1020:  00428293   addi t0,t0,4 : t0(000212e8)
[   516:  1721]     1024:  fe629ce3   bne t0,t1,101c (1024 - 0x8)
--------------------------------------------------------
[   517:  1724]     101c:  0002a023   sw zero,0(t0)
[   518:  1727]     1020:  00428293   addi t0,t0,4 : t0(000212ec)
[   519:  1731]     1024:  fe629ce3   bne t0,t1,101c (1024 - 0x8)
--------------------------------------------------------
[   520:  1734]     101c:  0002a023   sw zero,0(t0)
[   521:  1737]     1020:  00428293   addi t0,t0,4 : t0(000212f0)
[   522:  1741]     1024:  fe629ce3   bne t0,t1,101c (1024 - 0x8)
--------------------------------------------------------
[   523:  1744]     101c:  0002a023   sw zero,0(t0)
[   524:  1747]     1020:  00428293   addi t0,t0,4 : t0(000212f4)
[   525:  1751]     1024:  fe629ce3   bne t0,t1,101c (1024 - 0x8)
--------------------------------------------------------
[   526:  1754]     101c:  0002a023   sw zero,0(t0)
[   527:  1757]     1020:  00428293   addi t0,t0,4 : t0(000212f8)
[   528:  1761]     1024:  fe629ce3   bne t0,t1,101c (1024 - 0x8)
--------------------------------------------------------
[   529:  1764]     101c:  0002a023   sw zero,0(t0)
[   530:  1767]     1020:  00428293   addi t0,t0,4 : t0(000212fc)
[   531:  1771]     1024:  fe629ce3   bne t0,t1,101c (1024 - 0x8)
--------------------------------------------------------
[   532:  1774]     101c:  0002a023   sw zero,0(t0)
[   533:  1777]     1020:  00428293   addi t0,t0,4 : t0(00021300)
[   534:  1781]     1024:  fe629ce3   bne t0,t1,101c (1024 - 0x8)
--------------------------------------------------------
[   535:  1784]     101c:  0002a023   sw zero,0(t0)
[   536:  1787]     1020:  00428293   addi t0,t0,4 : t0(00021304)
[   537:  1791]     1024:  fe629ce3   bne t0,t1,101c (1024 - 0x8)
--------------------------------------------------------
[   538:  1794]     101c:  0002a023   sw zero,0(t0)
[   539:  1797]     1020:  00428293   addi t0,t0,4 : t0(00021308)
[   540:  1801]     1024:  fe629ce3   bne t0,t1,101c (1024 - 0x8)
--------------------------------------------------------
[   541:  1804]     101c:  0002a023   sw zero,0(t0)
[   542:  1807]     1020:  00428293   addi t0,t0,4 : t0(0002130c)
[   543:  1811]     1024:  fe629ce3   bne t0,t1,101c (1024 - 0x8)
--------------------------------------------------------
[   544:  1814]     101c:  0002a023   sw zero,0(t0)
[   545:  1817]     1020:  00428293   addi t0,t0,4 : t0(00021310)
[   546:  1821]     1024:  fe629ce3   bne t0,t1,101c (1024 - 0x8)
--------------------------------------------------------
[   547:  1824]     101c:  0002a023   sw zero,0(t0)
[   548:  1827]     1020:  00428293   addi t0,t0,4 : t0(00021314)
[   549:  1831]     1024:  fe629ce3   bne t0,t1,101c (1024 - 0x8)
--------------------------------------------------------
[   550:  1834]     101c:  0002a023   sw zero,0(t0)
[   551:  1837]     1020:  00428293   addi t0,t0,4 : t0(00021318)
[   552:  1841]     1024:  fe629ce3   bne t0,t1,101c (1024 - 0x8)
--------------------------------------------------------
[   553:  1844]     101c:  0002a023   sw zero,0(t0)
[   554:  1847]     1020:  00428293   addi t0,t0,4 : t0(0002131c)
[   555:  1851]     1024:  fe629ce3   bne t0,t1,101c (1024 - 0x8)
--------------------------------------------------------
[   556:  1854]     101c:  0002a023   sw zero,0(t0)
[   557:  1857]     1020:  00428293   addi t0,t0,4 : t0(00021320)
[   558:  1861]     1024:  fe629ce3   bne t0,t1,101c (1024 - 0x8)
--------------------------------------------------------
[   559:  1864]     101c:  0002a023   sw zero,0(t0)
[   560:  1867]     1020:  00428293   addi t0,t0,4 : t0(00021324)
[   561:  1871]     1024:  fe629ce3   bne t0,t1,101c (1024 - 0x8)
--------------------------------------------------------
[   562:  1874]     101c:  0002a023   sw zero,0(t0)
[   563:  1877]     1020:  00428293   addi t0,t0,4 : t0(00021328)
[   564:  1881]     1024:  fe629ce3   bne t0,t1,101c (1024 - 0x8)
--------------------------------------------------------
[   565:  1884]     101c:  0002a023   sw zero,0(t0)
[   566:  1887]     1020:  00428293   addi t0,t0,4 : t0(0002132c)
[   567:  1891]     1024:  fe629ce3   bne t0,t1,101c (1024 - 0x8)
--------------------------------------------------------
[   568:  1894]     101c:  0002a023   sw zero,0(t0)
[   569:  1897]     1020:  00428293   addi t0,t0,4 : t0(00021330)
[   570:  1901]     1024:  fe629ce3   bne t0,t1,101c (1024 - 0x8)
--------------------------------------------------------
[   571:  1904]     101c:  0002a023   sw zero,0(t0)
[   572:  1907]     1020:  00428293   addi t0,t0,4 : t0(00021334)
[   573:  1911]     1024:  fe629ce3   bne t0,t1,101c (1024 - 0x8)
--------------------------------------------------------
[   574:  1914]     101c:  0002a023   sw zero,0(t0)
[   575:  1917]     1020:  00428293   addi t0,t0,4 : t0(00021338)
[   576:  1921]     1024:  fe629ce3   bne t0,t1,101c (1024 - 0x8)
--------------------------------------------------------
[   577:  1924]     101c:  0002a023   sw zero,0(t0)
[   578:  1927]     1020:  00428293   addi t0,t0,4 : t0(0002133c)
[   579:  1931]     1024:  fe629ce3   bne t0,t1,101c (1024 - 0x8)
--------------------------------------------------------
[   580:  1934]     101c:  0002a023   sw zero,0(t0)
[   581:  1937]     1020:  00428293   addi t0,t0,4 : t0(00021340)
[   582:  1941]     1024:  fe629ce3   bne t0,t1,101c (1024 - 0x8)
--------------------------------------------------------
[   583:  1944]     101c:  0002a023   sw zero,0(t0)
[   584:  1947]     1020:  00428293   addi t0,t0,4 : t0(00021344)
[   585:  1951]     1024:  fe629ce3   bne t0,t1,101c (1024 - 0x8)
--------------------------------------------------------
[   586:  1954]     101c:  0002a023   sw zero,0(t0)
[   587:  1957]     1020:  00428293   addi t0,t0,4 : t0(00021348)
[   588:  1961]     1024:  fe629ce3   bne t0,t1,101c (1024 - 0x8)
--------------------------------------------------------
[   589:  1964]     101c:  0002a023   sw zero,0(t0)
[   590:  1967]     1020:  00428293   addi t0,t0,4 : t0(0002134c)
[   591:  1971]     1024:  fe629ce3   bne t0,t1,101c (1024 - 0x8)
--------------------------------------------------------
[   592:  1974]     101c:  0002a023   sw zero,0(t0)
[   593:  1977]     1020:  00428293   addi t0,t0,4 : t0(00021350)
[   594:  1981]     1024:  fe629ce3   bne t0,t1,101c (1024 - 0x8)
--------------------------------------------------------
[   595:  1984]     101c:  0002a023   sw zero,0(t0)
[   596:  1987]     1020:  00428293   addi t0,t0,4 : t0(00021354)
[   597:  1991]     1024:  fe629ce3   bne t0,t1,101c (1024 - 0x8)
--------------------------------------------------------
[   598:  1994]     101c:  0002a023   sw zero,0(t0)
[   599:  1997]     1020:  00428293   addi t0,t0,4 : t0(00021358)
[   600:  2001]     1024:  fe629ce3   bne t0,t1,101c (1024 - 0x8)
--------------------------------------------------------
[   601:  2004]     101c:  0002a023   sw zero,0(t0)
[   602:  2007]     1020:  00428293   addi t0,t0,4 : t0(0002135c)
[   603:  2011]     1024:  fe629ce3   bne t0,t1,101c (1024 - 0x8)
--------------------------------------------------------
[   604:  2014]     101c:  0002a023   sw zero,0(t0)
[   605:  2017]     1020:  00428293   addi t0,t0,4 : t0(00021360)
[   606:  2021]     1024:  fe629ce3   bne t0,t1,101c (1024 - 0x8)
--------------------------------------------------------
[   607:  2024]     101c:  0002a023   sw zero,0(t0)
[   608:  2027]     1020:  00428293   addi t0,t0,4 : t0(00021364)
[   609:  2031]     1024:  fe629ce3   bne t0,t1,101c (1024 - 0x8)
--------------------------------------------------------
[   610:  2034]     101c:  0002a023   sw zero,0(t0)
[   611:  2037]     1020:  00428293   addi t0,t0,4 : t0(00021368)
[   612:  2041]     1024:  fe629ce3   bne t0,t1,101c (1024 - 0x8)
--------------------------------------------------------
[   613:  2044]     101c:  0002a023   sw zero,0(t0)
[   614:  2047]     1020:  00428293   addi t0,t0,4 : t0(0002136c)
[   615:  2051]     1024:  fe629ce3   bne t0,t1,101c (1024 - 0x8)
--------------------------------------------------------
[   616:  2054]     101c:  0002a023   sw zero,0(t0)
[   617:  2057]     1020:  00428293   addi t0,t0,4 : t0(00021370)
[   618:  2061]     1024:  fe629ce3   bne t0,t1,101c (1024 - 0x8)
--------------------------------------------------------
[   619:  2064]     101c:  0002a023   sw zero,0(t0)
[   620:  2067]     1020:  00428293   addi t0,t0,4 : t0(00021374)
[   621:  2071]     1024:  fe629ce3   bne t0,t1,101c (1024 - 0x8)
--------------------------------------------------------
[   622:  2074]     101c:  0002a023   sw zero,0(t0)
[   623:  2077]     1020:  00428293   addi t0,t0,4 : t0(00021378)
[   624:  2081]     1024:  fe629ce3   bne t0,t1,101c (1024 - 0x8)
--------------------------------------------------------
[   625:  2084]     101c:  0002a023   sw zero,0(t0)
[   626:  2087]     1020:  00428293   addi t0,t0,4 : t0(0002137c)
[   627:  2091]     1024:  fe629ce3   bne t0,t1,101c (1024 - 0x8)
--------------------------------------------------------
[   628:  2094]     101c:  0002a023   sw zero,0(t0)
[   629:  2097]     1020:  00428293   addi t0,t0,4 : t0(00021380)
[   630:  2101]     1024:  fe629ce3   bne t0,t1,101c (1024 - 0x8)
--------------------------------------------------------
[   631:  2104]     101c:  0002a023   sw zero,0(t0)
[   632:  2107]     1020:  00428293   addi t0,t0,4 : t0(00021384)
[   633:  2111]     1024:  fe629ce3   bne t0,t1,101c (1024 - 0x8)
--------------------------------------------------------
[   634:  2114]     101c:  0002a023   sw zero,0(t0)
[   635:  2117]     1020:  00428293   addi t0,t0,4 : t0(00021388)
[   636:  2121]     1024:  fe629ce3   bne t0,t1,101c (1024 - 0x8)
--------------------------------------------------------
[   637:  2124]     101c:  0002a023   sw zero,0(t0)
[   638:  2127]     1020:  00428293   addi t0,t0,4 : t0(0002138c)
[   639:  2131]     1024:  fe629ce3   bne t0,t1,101c (1024 - 0x8)
--------------------------------------------------------
[   640:  2134]     101c:  0002a023   sw zero,0(t0)
[   641:  2137]     1020:  00428293   addi t0,t0,4 : t0(00021390)
[   642:  2141]     1024:  fe629ce3   bne t0,t1,101c (1024 - 0x8)
--------------------------------------------------------
[   643:  2144]     101c:  0002a023   sw zero,0(t0)
[   644:  2147]     1020:  00428293   addi t0,t0,4 : t0(00021394)
[   645:  2151]     1024:  fe629ce3   bne t0,t1,101c (1024 - 0x8)
--------------------------------------------------------
[   646:  2154]     101c:  0002a023   sw zero,0(t0)
[   647:  2157]     1020:  00428293   addi t0,t0,4 : t0(00021398)
[   648:  2161]     1024:  fe629ce3   bne t0,t1,101c (1024 - 0x8)
--------------------------------------------------------
[   649:  2164]     101c:  0002a023   sw zero,0(t0)
[   650:  2167]     1020:  00428293   addi t0,t0,4 : t0(0002139c)
[   651:  2171]     1024:  fe629ce3   bne t0,t1,101c (1024 - 0x8)
--------------------------------------------------------
[   652:  2174]     101c:  0002a023   sw zero,0(t0)
[   653:  2177]     1020:  00428293   addi t0,t0,4 : t0(000213a0)
[   654:  2181]     1024:  fe629ce3   bne t0,t1,101c (1024 - 0x8)
--------------------------------------------------------
[   655:  2184]     101c:  0002a023   sw zero,0(t0)
[   656:  2187]     1020:  00428293   addi t0,t0,4 : t0(000213a4)
[   657:  2191]     1024:  fe629ce3   bne t0,t1,101c (1024 - 0x8)
--------------------------------------------------------
[   658:  2194]     101c:  0002a023   sw zero,0(t0)
[   659:  2197]     1020:  00428293   addi t0,t0,4 : t0(000213a8)
[   660:  2201]     1024:  fe629ce3   bne t0,t1,101c (1024 - 0x8)
--------------------------------------------------------
[   661:  2204]     101c:  0002a023   sw zero,0(t0)
[   662:  2207]     1020:  00428293   addi t0,t0,4 : t0(000213ac)
[   663:  2211]     1024:  fe629ce3   bne t0,t1,101c (1024 - 0x8)
--------------------------------------------------------
[   664:  2214]     101c:  0002a023   sw zero,0(t0)
[   665:  2217]     1020:  00428293   addi t0,t0,4 : t0(000213b0)
[   666:  2221]     1024:  fe629ce3   bne t0,t1,101c (1024 - 0x8)
--------------------------------------------------------
[   667:  2224]     101c:  0002a023   sw zero,0(t0)
[   668:  2227]     1020:  00428293   addi t0,t0,4 : t0(000213b4)
[   669:  2231]     1024:  fe629ce3   bne t0,t1,101c (1024 - 0x8)
--------------------------------------------------------
[   670:  2234]     101c:  0002a023   sw zero,0(t0)
[   671:  2237]     1020:  00428293   addi t0,t0,4 : t0(000213b8)
[   672:  2241]     1024:  fe629ce3   bne t0,t1,101c (1024 - 0x8)
--------------------------------------------------------
[   673:  2244]     101c:  0002a023   sw zero,0(t0)
[   674:  2247]     1020:  00428293   addi t0,t0,4 : t0(000213bc)
[   675:  2251]     1024:  fe629ce3   bne t0,t1,101c (1024 - 0x8)
--------------------------------------------------------
[   676:  2254]     101c:  0002a023   sw zero,0(t0)
[   677:  2257]     1020:  00428293   addi t0,t0,4 : t0(000213c0)
[   678:  2261]     1024:  fe629ce3   bne t0,t1,101c (1024 - 0x8)
--------------------------------------------------------
[   679:  2264]     101c:  0002a023   sw zero,0(t0)
[   680:  2267]     1020:  00428293   addi t0,t0,4 : t0(000213c4)
[   681:  2271]     1024:  fe629ce3   bne t0,t1,101c (1024 - 0x8)
--------------------------------------------------------
[   682:  2274]     101c:  0002a023   sw zero,0(t0)
[   683:  2277]     1020:  00428293   addi t0,t0,4 : t0(000213c8)
[   684:  2281]     1024:  fe629ce3   bne t0,t1,101c (1024 - 0x8)
--------------------------------------------------------
[   685:  2284]     101c:  0002a023   sw zero,0(t0)
[   686:  2287]     1020:  00428293   addi t0,t0,4 : t0(000213cc)
[   687:  2291]     1024:  fe629ce3   bne t0,t1,101c (1024 - 0x8)
--------------------------------------------------------
[   688:  2294]     101c:  0002a023   sw zero,0(t0)
[   689:  2297]     1020:  00428293   addi t0,t0,4 : t0(000213d0)
[   690:  2301]     1024:  fe629ce3   bne t0,t1,101c (1024 - 0x8)
--------------------------------------------------------
[   691:  2304]     101c:  0002a023   sw zero,0(t0)
[   692:  2307]     1020:  00428293   addi t0,t0,4 : t0(000213d4)
[   693:  2311]     1024:  fe629ce3   bne t0,t1,101c (1024 - 0x8)
--------------------------------------------------------
[   694:  2314]     101c:  0002a023   sw zero,0(t0)
[   695:  2317]     1020:  00428293   addi t0,t0,4 : t0(000213d8)
[   696:  2321]     1024:  fe629ce3   bne t0,t1,101c (1024 - 0x8)
--------------------------------------------------------
[   697:  2324]     101c:  0002a023   sw zero,0(t0)
[   698:  2327]     1020:  00428293   addi t0,t0,4 : t0(000213dc)
[   699:  2331]     1024:  fe629ce3   bne t0,t1,101c (1024 - 0x8)
--------------------------------------------------------
[   700:  2334]     101c:  0002a023   sw zero,0(t0)
[   701:  2337]     1020:  00428293   addi t0,t0,4 : t0(000213e0)
[   702:  2341]     1024:  fe629ce3   bne t0,t1,101c (1024 - 0x8)
--------------------------------------------------------
[   703:  2344]     101c:  0002a023   sw zero,0(t0)
[   704:  2347]     1020:  00428293   addi t0,t0,4 : t0(000213e4)
[   705:  2351]     1024:  fe629ce3   bne t0,t1,101c (1024 - 0x8)
--------------------------------------------------------
[   706:  2354]     101c:  0002a023   sw zero,0(t0)
[   707:  2357]     1020:  00428293   addi t0,t0,4 : t0(000213e8)
[   708:  2361]     1024:  fe629ce3   bne t0,t1,101c (1024 - 0x8)
--------------------------------------------------------
[   709:  2364]     101c:  0002a023   sw zero,0(t0)
[   710:  2367]     1020:  00428293   addi t0,t0,4 : t0(000213ec)
[   711:  2371]     1024:  fe629ce3   bne t0,t1,101c (1024 - 0x8)
--------------------------------------------------------
[   712:  2374]     101c:  0002a023   sw zero,0(t0)
[   713:  2377]     1020:  00428293   addi t0,t0,4 : t0(000213f0)
[   714:  2381]     1024:  fe629ce3   bne t0,t1,101c (1024 - 0x8)
--------------------------------------------------------
[   715:  2384]     101c:  0002a023   sw zero,0(t0)
[   716:  2387]     1020:  00428293   addi t0,t0,4 : t0(000213f4)
[   717:  2391]     1024:  fe629ce3   bne t0,t1,101c (1024 - 0x8)
--------------------------------------------------------
[   718:  2394]     101c:  0002a023   sw zero,0(t0)
[   719:  2397]     1020:  00428293   addi t0,t0,4 : t0(000213f8)
[   720:  2401]     1024:  fe629ce3   bne t0,t1,101c (1024 - 0x8)
--------------------------------------------------------
[   721:  2404]     101c:  0002a023   sw zero,0(t0)
[   722:  2407]     1020:  00428293   addi t0,t0,4 : t0(000213fc)
[   723:  2411]     1024:  fe629ce3   bne t0,t1,101c (1024 - 0x8)
--------------------------------------------------------
[   724:  2414]     101c:  0002a023   sw zero,0(t0)
[   725:  2417]     1020:  00428293   addi t0,t0,4 : t0(00021400)
[   726:  2421]     1024:  fe629ce3   bne t0,t1,101c (1024 - 0x8)
--------------------------------------------------------
[   727:  2424]     101c:  0002a023   sw zero,0(t0)
[   728:  2427]     1020:  00428293   addi t0,t0,4 : t0(00021404)
[   729:  2431]     1024:  fe629ce3   bne t0,t1,101c (1024 - 0x8)
--------------------------------------------------------
[   730:  2434]     101c:  0002a023   sw zero,0(t0)
[   731:  2437]     1020:  00428293   addi t0,t0,4 : t0(00021408)
[   732:  2441]     1024:  fe629ce3   bne t0,t1,101c (1024 - 0x8)
--------------------------------------------------------
[   733:  2444]     101c:  0002a023   sw zero,0(t0)
[   734:  2447]     1020:  00428293   addi t0,t0,4 : t0(0002140c)
[   735:  2451]     1024:  fe629ce3   bne t0,t1,101c (1024 - 0x8)
--------------------------------------------------------
[   736:  2454]     101c:  0002a023   sw zero,0(t0)
[   737:  2457]     1020:  00428293   addi t0,t0,4 : t0(00021410)
[   738:  2461]     1024:  fe629ce3   bne t0,t1,101c (1024 - 0x8)
--------------------------------------------------------
[   739:  2464]     101c:  0002a023   sw zero,0(t0)
[   740:  2467]     1020:  00428293   addi t0,t0,4 : t0(00021414)
[   741:  2471]     1024:  fe629ce3   bne t0,t1,101c (1024 - 0x8)
--------------------------------------------------------
[   742:  2474]     101c:  0002a023   sw zero,0(t0)
[   743:  2477]     1020:  00428293   addi t0,t0,4 : t0(00021418)
[   744:  2481]     1024:  fe629ce3   bne t0,t1,101c (1024 - 0x8)
--------------------------------------------------------
[   745:  2484]     101c:  0002a023   sw zero,0(t0)
[   746:  2487]     1020:  00428293   addi t0,t0,4 : t0(0002141c)
[   747:  2491]     1024:  fe629ce3   bne t0,t1,101c (1024 - 0x8)
--------------------------------------------------------
[   748:  2494]     101c:  0002a023   sw zero,0(t0)
[   749:  2497]     1020:  00428293   addi t0,t0,4 : t0(00021420)
[   750:  2501]     1024:  fe629ce3   bne t0,t1,101c (1024 - 0x8)
--------------------------------------------------------
[   751:  2504]     101c:  0002a023   sw zero,0(t0)
[   752:  2507]     1020:  00428293   addi t0,t0,4 : t0(00021424)
[   753:  2511]     1024:  fe629ce3   bne t0,t1,101c (1024 - 0x8)
--------------------------------------------------------
[   754:  2514]     101c:  0002a023   sw zero,0(t0)
[   755:  2517]     1020:  00428293   addi t0,t0,4 : t0(00021428)
[   756:  2521]     1024:  fe629ce3   bne t0,t1,101c (1024 - 0x8)
--------------------------------------------------------
[   757:  2524]     101c:  0002a023   sw zero,0(t0)
[   758:  2527]     1020:  00428293   addi t0,t0,4 : t0(0002142c)
[   759:  2531]     1024:  fe629ce3   bne t0,t1,101c (1024 - 0x8)
--------------------------------------------------------
[   760:  2534]     101c:  0002a023   sw zero,0(t0)
[   761:  2537]     1020:  00428293   addi t0,t0,4 : t0(00021430)
[   762:  2541]     1024:  fe629ce3   bne t0,t1,101c (1024 - 0x8)
--------------------------------------------------------
[   763:  2544]     101c:  0002a023   sw zero,0(t0)
[   764:  2547]     1020:  00428293   addi t0,t0,4 : t0(00021434)
[   765:  2551]     1024:  fe629ce3   bne t0,t1,101c (1024 - 0x8)
--------------------------------------------------------
[   766:  2554]     101c:  0002a023   sw zero,0(t0)
[   767:  2557]     1020:  00428293   addi t0,t0,4 : t0(00021438)
[   768:  2561]     1024:  fe629ce3   bne t0,t1,101c (1024 - 0x8)
--------------------------------------------------------
[   769:  2564]     101c:  0002a023   sw zero,0(t0)
[   770:  2567]     1020:  00428293   addi t0,t0,4 : t0(0002143c)
[   771:  2571]     1024:  fe629ce3   bne t0,t1,101c (1024 - 0x8)
--------------------------------------------------------
[   772:  2574]     101c:  0002a023   sw zero,0(t0)
[   773:  2577]     1020:  00428293   addi t0,t0,4 : t0(00021440)
[   774:  2581]     1024:  fe629ce3   bne t0,t1,101c (1024 - 0x8)
--------------------------------------------------------
[   775:  2584]     101c:  0002a023   sw zero,0(t0)
[   776:  2587]     1020:  00428293   addi t0,t0,4 : t0(00021444)
[   777:  2591]     1024:  fe629ce3   bne t0,t1,101c (1024 - 0x8)
--------------------------------------------------------
[   778:  2594]     101c:  0002a023   sw zero,0(t0)
[   779:  2597]     1020:  00428293   addi t0,t0,4 : t0(00021448)
[   780:  2601]     1024:  fe629ce3   bne t0,t1,101c (1024 - 0x8)
--------------------------------------------------------
[   781:  2604]     101c:  0002a023   sw zero,0(t0)
[   782:  2607]     1020:  00428293   addi t0,t0,4 : t0(0002144c)
[   783:  2611]     1024:  fe629ce3   bne t0,t1,101c (1024 - 0x8)
--------------------------------------------------------
[   784:  2614]     101c:  0002a023   sw zero,0(t0)
[   785:  2617]     1020:  00428293   addi t0,t0,4 : t0(00021450)
[   786:  2621]     1024:  fe629ce3   bne t0,t1,101c (1024 - 0x8)
--------------------------------------------------------
[   787:  2624]     101c:  0002a023   sw zero,0(t0)
[   788:  2627]     1020:  00428293   addi t0,t0,4 : t0(00021454)
[   789:  2631]     1024:  fe629ce3   bne t0,t1,101c (1024 - 0x8)
--------------------------------------------------------
[   790:  2634]     101c:  0002a023   sw zero,0(t0)
[   791:  2637]     1020:  00428293   addi t0,t0,4 : t0(00021458)
[   792:  2641]     1024:  fe629ce3   bne t0,t1,101c (1024 - 0x8)
--------------------------------------------------------
[   793:  2644]     101c:  0002a023   sw zero,0(t0)
[   794:  2647]     1020:  00428293   addi t0,t0,4 : t0(0002145c)
[   795:  2651]     1024:  fe629ce3   bne t0,t1,101c (1024 - 0x8)
--------------------------------------------------------
[   796:  2654]     101c:  0002a023   sw zero,0(t0)
[   797:  2657]     1020:  00428293   addi t0,t0,4 : t0(00021460)
[   798:  2661]     1024:  fe629ce3   bne t0,t1,101c (1024 - 0x8)
--------------------------------------------------------
[   799:  2664]     101c:  0002a023   sw zero,0(t0)
[   800:  2667]     1020:  00428293   addi t0,t0,4 : t0(00021464)
[   801:  2671]     1024:  fe629ce3   bne t0,t1,101c (1024 - 0x8)
--------------------------------------------------------
[   802:  2674]     101c:  0002a023   sw zero,0(t0)
[   803:  2677]     1020:  00428293   addi t0,t0,4 : t0(00021468)
[   804:  2681]     1024:  fe629ce3   bne t0,t1,101c (1024 - 0x8)
--------------------------------------------------------
[   805:  2684]     101c:  0002a023   sw zero,0(t0)
[   806:  2687]     1020:  00428293   addi t0,t0,4 : t0(0002146c)
[   807:  2691]     1024:  fe629ce3   bne t0,t1,101c (1024 - 0x8)
--------------------------------------------------------
[   808:  2694]     101c:  0002a023   sw zero,0(t0)
[   809:  2697]     1020:  00428293   addi t0,t0,4 : t0(00021470)
[   810:  2701]     1024:  fe629ce3   bne t0,t1,101c (1024 - 0x8)
--------------------------------------------------------
[   811:  2704]     101c:  0002a023   sw zero,0(t0)
[   812:  2707]     1020:  00428293   addi t0,t0,4 : t0(00021474)
[   813:  2711]     1024:  fe629ce3   bne t0,t1,101c (1024 - 0x8)
--------------------------------------------------------
[   814:  2714]     101c:  0002a023   sw zero,0(t0)
[   815:  2717]     1020:  00428293   addi t0,t0,4 : t0(00021478)
[   816:  2721]     1024:  fe629ce3   bne t0,t1,101c (1024 - 0x8)
--------------------------------------------------------
[   817:  2724]     101c:  0002a023   sw zero,0(t0)
[   818:  2727]     1020:  00428293   addi t0,t0,4 : t0(0002147c)
[   819:  2731]     1024:  fe629ce3   bne t0,t1,101c (1024 - 0x8)
--------------------------------------------------------
[   820:  2734]     101c:  0002a023   sw zero,0(t0)
[   821:  2737]     1020:  00428293   addi t0,t0,4 : t0(00021480)
[   822:  2741]     1024:  fe629ce3   bne t0,t1,101c (1024 - 0x8)
--------------------------------------------------------
[   823:  2744]     101c:  0002a023   sw zero,0(t0)
[   824:  2747]     1020:  00428293   addi t0,t0,4 : t0(00021484)
[   825:  2751]     1024:  fe629ce3   bne t0,t1,101c (1024 - 0x8)
--------------------------------------------------------
[   826:  2754]     101c:  0002a023   sw zero,0(t0)
[   827:  2757]     1020:  00428293   addi t0,t0,4 : t0(00021488)
[   828:  2761]     1024:  fe629ce3   bne t0,t1,101c (1024 - 0x8)
--------------------------------------------------------
[   829:  2764]     101c:  0002a023   sw zero,0(t0)
[   830:  2767]     1020:  00428293   addi t0,t0,4 : t0(0002148c)
[   831:  2771]     1024:  fe629ce3   bne t0,t1,101c (1024 - 0x8)
--------------------------------------------------------
[   832:  2774]     101c:  0002a023   sw zero,0(t0)
[   833:  2777]     1020:  00428293   addi t0,t0,4 : t0(00021490)
[   834:  2781]     1024:  fe629ce3   bne t0,t1,101c (1024 - 0x8)
--------------------------------------------------------
[   835:  2784]     101c:  0002a023   sw zero,0(t0)
[   836:  2787]     1020:  00428293   addi t0,t0,4 : t0(00021494)
[   837:  2791]     1024:  fe629ce3   bne t0,t1,101c (1024 - 0x8)
--------------------------------------------------------
[   838:  2794]     101c:  0002a023   sw zero,0(t0)
[   839:  2797]     1020:  00428293   addi t0,t0,4 : t0(00021498)
[   840:  2801]     1024:  fe629ce3   bne t0,t1,101c (1024 - 0x8)
--------------------------------------------------------
[   841:  2804]     101c:  0002a023   sw zero,0(t0)
[   842:  2807]     1020:  00428293   addi t0,t0,4 : t0(0002149c)
[   843:  2811]     1024:  fe629ce3   bne t0,t1,101c (1024 - 0x8)
--------------------------------------------------------
[   844:  2814]     101c:  0002a023   sw zero,0(t0)
[   845:  2817]     1020:  00428293   addi t0,t0,4 : t0(000214a0)
[   846:  2821]     1024:  fe629ce3   bne t0,t1,101c (1024 - 0x8)
--------------------------------------------------------
[   847:  2824]     101c:  0002a023   sw zero,0(t0)
[   848:  2827]     1020:  00428293   addi t0,t0,4 : t0(000214a4)
[   849:  2831]     1024:  fe629ce3   bne t0,t1,101c (1024 - 0x8)
--------------------------------------------------------
[   850:  2834]     101c:  0002a023   sw zero,0(t0)
[   851:  2837]     1020:  00428293   addi t0,t0,4 : t0(000214a8)
[   852:  2841]     1024:  fe629ce3   bne t0,t1,101c (1024 - 0x8)
--------------------------------------------------------
[   853:  2844]     101c:  0002a023   sw zero,0(t0)
[   854:  2847]     1020:  00428293   addi t0,t0,4 : t0(000214ac)
[   855:  2851]     1024:  fe629ce3   bne t0,t1,101c (1024 - 0x8)
--------------------------------------------------------
[   856:  2854]     101c:  0002a023   sw zero,0(t0)
[   857:  2857]     1020:  00428293   addi t0,t0,4 : t0(000214b0)
[   858:  2861]     1024:  fe629ce3   bne t0,t1,101c (1024 - 0x8)
--------------------------------------------------------
[   859:  2864]     101c:  0002a023   sw zero,0(t0)
[   860:  2867]     1020:  00428293   addi t0,t0,4 : t0(000214b4)
[   861:  2871]     1024:  fe629ce3   bne t0,t1,101c (1024 - 0x8)
--------------------------------------------------------
[   862:  2874]     101c:  0002a023   sw zero,0(t0)
[   863:  2877]     1020:  00428293   addi t0,t0,4 : t0(000214b8)
[   864:  2881]     1024:  fe629ce3   bne t0,t1,101c (1024 - 0x8)
--------------------------------------------------------
[   865:  2884]     101c:  0002a023   sw zero,0(t0)
[   866:  2887]     1020:  00428293   addi t0,t0,4 : t0(000214bc)
[   867:  2891]     1024:  fe629ce3   bne t0,t1,101c (1024 - 0x8)
--------------------------------------------------------
[   868:  2894]     101c:  0002a023   sw zero,0(t0)
[   869:  2897]     1020:  00428293   addi t0,t0,4 : t0(000214c0)
[   870:  2901]     1024:  fe629ce3   bne t0,t1,101c (1024 - 0x8)
--------------------------------------------------------
[   871:  2904]     101c:  0002a023   sw zero,0(t0)
[   872:  2907]     1020:  00428293   addi t0,t0,4 : t0(000214c4)
[   873:  2911]     1024:  fe629ce3   bne t0,t1,101c (1024 - 0x8)
--------------------------------------------------------
[   874:  2914]     101c:  0002a023   sw zero,0(t0)
[   875:  2917]     1020:  00428293   addi t0,t0,4 : t0(000214c8)
[   876:  2921]     1024:  fe629ce3   bne t0,t1,101c (1024 - 0x8)
--------------------------------------------------------
[   877:  2924]     101c:  0002a023   sw zero,0(t0)
[   878:  2927]     1020:  00428293   addi t0,t0,4 : t0(000214cc)
[   879:  2931]     1024:  fe629ce3   bne t0,t1,101c (1024 - 0x8)
--------------------------------------------------------
[   880:  2934]     101c:  0002a023   sw zero,0(t0)
[   881:  2937]     1020:  00428293   addi t0,t0,4 : t0(000214d0)
[   882:  2941]     1024:  fe629ce3   bne t0,t1,101c (1024 - 0x8)
--------------------------------------------------------
[   883:  2944]     101c:  0002a023   sw zero,0(t0)
[   884:  2947]     1020:  00428293   addi t0,t0,4 : t0(000214d4)
[   885:  2951]     1024:  fe629ce3   bne t0,t1,101c (1024 - 0x8)
--------------------------------------------------------
[   886:  2954]     101c:  0002a023   sw zero,0(t0)
[   887:  2957]     1020:  00428293   addi t0,t0,4 : t0(000214d8)
[   888:  2961]     1024:  fe629ce3   bne t0,t1,101c (1024 - 0x8)
--------------------------------------------------------
[   889:  2964]     101c:  0002a023   sw zero,0(t0)
[   890:  2967]     1020:  00428293   addi t0,t0,4 : t0(000214dc)
[   891:  2971]     1024:  fe629ce3   bne t0,t1,101c (1024 - 0x8)
--------------------------------------------------------
[   892:  2974]     101c:  0002a023   sw zero,0(t0)
[   893:  2977]     1020:  00428293   addi t0,t0,4 : t0(000214e0)
[   894:  2981]     1024:  fe629ce3   bne t0,t1,101c (1024 - 0x8)
--------------------------------------------------------
[   895:  2984]     101c:  0002a023   sw zero,0(t0)
[   896:  2987]     1020:  00428293   addi t0,t0,4 : t0(000214e4)
[   897:  2991]     1024:  fe629ce3   bne t0,t1,101c (1024 - 0x8)
--------------------------------------------------------
[   898:  2994]     101c:  0002a023   sw zero,0(t0)
[   899:  2997]     1020:  00428293   addi t0,t0,4 : t0(000214e8)
[   900:  3001]     1024:  fe629ce3   bne t0,t1,101c (1024 - 0x8)
--------------------------------------------------------
[   901:  3004]     101c:  0002a023   sw zero,0(t0)
[   902:  3007]     1020:  00428293   addi t0,t0,4 : t0(000214ec)
[   903:  3011]     1024:  fe629ce3   bne t0,t1,101c (1024 - 0x8)
--------------------------------------------------------
[   904:  3014]     101c:  0002a023   sw zero,0(t0)
[   905:  3017]     1020:  00428293   addi t0,t0,4 : t0(000214f0)
[   906:  3021]     1024:  fe629ce3   bne t0,t1,101c (1024 - 0x8)
--------------------------------------------------------
[   907:  3024]     101c:  0002a023   sw zero,0(t0)
[   908:  3027]     1020:  00428293   addi t0,t0,4 : t0(000214f4)
[   909:  3031]     1024:  fe629ce3   bne t0,t1,101c (1024 - 0x8)
--------------------------------------------------------
[   910:  3034]     101c:  0002a023   sw zero,0(t0)
[   911:  3037]     1020:  00428293   addi t0,t0,4 : t0(000214f8)
[   912:  3041]     1024:  fe629ce3   bne t0,t1,101c (1024 - 0x8)
--------------------------------------------------------
[   913:  3044]     101c:  0002a023   sw zero,0(t0)
[   914:  3047]     1020:  00428293   addi t0,t0,4 : t0(000214fc)
[   915:  3051]     1024:  fe629ce3   bne t0,t1,101c (1024 - 0x8)
--------------------------------------------------------
[   916:  3054]     101c:  0002a023   sw zero,0(t0)
[   917:  3057]     1020:  00428293   addi t0,t0,4 : t0(00021500)
[   918:  3061]     1024:  fe629ce3   bne t0,t1,101c (1024 - 0x8)
--------------------------------------------------------
[   919:  3064]     101c:  0002a023   sw zero,0(t0)
[   920:  3067]     1020:  00428293   addi t0,t0,4 : t0(00021504)
[   921:  3071]     1024:  fe629ce3   bne t0,t1,101c (1024 - 0x8)
--------------------------------------------------------
[   922:  3074]     101c:  0002a023   sw zero,0(t0)
[   923:  3077]     1020:  00428293   addi t0,t0,4 : t0(00021508)
[   924:  3081]     1024:  fe629ce3   bne t0,t1,101c (1024 - 0x8)
--------------------------------------------------------
[   925:  3084]     101c:  0002a023   sw zero,0(t0)
[   926:  3087]     1020:  00428293   addi t0,t0,4 : t0(0002150c)
[   927:  3091]     1024:  fe629ce3   bne t0,t1,101c (1024 - 0x8)
--------------------------------------------------------
[   928:  3094]     101c:  0002a023   sw zero,0(t0)
[   929:  3097]     1020:  00428293   addi t0,t0,4 : t0(00021510)
[   930:  3101]     1024:  fe629ce3   bne t0,t1,101c (1024 - 0x8)
--------------------------------------------------------
[   931:  3104]     101c:  0002a023   sw zero,0(t0)
[   932:  3107]     1020:  00428293   addi t0,t0,4 : t0(00021514)
[   933:  3111]     1024:  fe629ce3   bne t0,t1,101c (1024 - 0x8)
--------------------------------------------------------
[   934:  3114]     101c:  0002a023   sw zero,0(t0)
[   935:  3117]     1020:  00428293   addi t0,t0,4 : t0(00021518)
[   936:  3121]     1024:  fe629ce3   bne t0,t1,101c (1024 - 0x8)
--------------------------------------------------------
[   937:  3124]     101c:  0002a023   sw zero,0(t0)
[   938:  3127]     1020:  00428293   addi t0,t0,4 : t0(0002151c)
[   939:  3131]     1024:  fe629ce3   bne t0,t1,101c (1024 - 0x8)
--------------------------------------------------------
[   940:  3134]     101c:  0002a023   sw zero,0(t0)
[   941:  3137]     1020:  00428293   addi t0,t0,4 : t0(00021520)
[   942:  3141]     1024:  fe629ce3   bne t0,t1,101c (1024 - 0x8)
--------------------------------------------------------
[   943:  3144]     101c:  0002a023   sw zero,0(t0)
[   944:  3147]     1020:  00428293   addi t0,t0,4 : t0(00021524)
[   945:  3151]     1024:  fe629ce3   bne t0,t1,101c (1024 - 0x8)
--------------------------------------------------------
[   946:  3154]     101c:  0002a023   sw zero,0(t0)
[   947:  3157]     1020:  00428293   addi t0,t0,4 : t0(00021528)
[   948:  3161]     1024:  fe629ce3   bne t0,t1,101c (1024 - 0x8)
--------------------------------------------------------
[   949:  3164]     101c:  0002a023   sw zero,0(t0)
[   950:  3167]     1020:  00428293   addi t0,t0,4 : t0(0002152c)
[   951:  3171]     1024:  fe629ce3   bne t0,t1,101c (1024 - 0x8)
--------------------------------------------------------
[   952:  3174]     101c:  0002a023   sw zero,0(t0)
[   953:  3177]     1020:  00428293   addi t0,t0,4 : t0(00021530)
[   954:  3181]     1024:  fe629ce3   bne t0,t1,101c (1024 - 0x8)
--------------------------------------------------------
[   955:  3184]     101c:  0002a023   sw zero,0(t0)
[   956:  3187]     1020:  00428293   addi t0,t0,4 : t0(00021534)
[   957:  3191]     1024:  fe629ce3   bne t0,t1,101c (1024 - 0x8)
--------------------------------------------------------
[   958:  3194]     101c:  0002a023   sw zero,0(t0)
[   959:  3197]     1020:  00428293   addi t0,t0,4 : t0(00021538)
[   960:  3201]     1024:  fe629ce3   bne t0,t1,101c (1024 - 0x8)
--------------------------------------------------------
[   961:  3204]     101c:  0002a023   sw zero,0(t0)
[   962:  3207]     1020:  00428293   addi t0,t0,4 : t0(0002153c)
[   963:  3211]     1024:  fe629ce3   bne t0,t1,101c (1024 - 0x8)
--------------------------------------------------------
[   964:  3214]     101c:  0002a023   sw zero,0(t0)
[   965:  3217]     1020:  00428293   addi t0,t0,4 : t0(00021540)
[   966:  3221]     1024:  fe629ce3   bne t0,t1,101c (1024 - 0x8)
--------------------------------------------------------
[   967:  3224]     101c:  0002a023   sw zero,0(t0)
[   968:  3227]     1020:  00428293   addi t0,t0,4 : t0(00021544)
[   969:  3231]     1024:  fe629ce3   bne t0,t1,101c (1024 - 0x8)
--------------------------------------------------------
[   970:  3234]     101c:  0002a023   sw zero,0(t0)
[   971:  3237]     1020:  00428293   addi t0,t0,4 : t0(00021548)
[   972:  3241]     1024:  fe629ce3   bne t0,t1,101c (1024 - 0x8)
--------------------------------------------------------
[   973:  3244]     101c:  0002a023   sw zero,0(t0)
[   974:  3247]     1020:  00428293   addi t0,t0,4 : t0(0002154c)
[   975:  3251]     1024:  fe629ce3   bne t0,t1,101c (1024 - 0x8)
--------------------------------------------------------
[   976:  3254]     101c:  0002a023   sw zero,0(t0)
[   977:  3257]     1020:  00428293   addi t0,t0,4 : t0(00021550)
[   978:  3261]     1024:  fe629ce3   bne t0,t1,101c (1024 - 0x8)
--------------------------------------------------------
[   979:  3264]     101c:  0002a023   sw zero,0(t0)
[   980:  3267]     1020:  00428293   addi t0,t0,4 : t0(00021554)
[   981:  3271]     1024:  fe629ce3   bne t0,t1,101c (1024 - 0x8)
--------------------------------------------------------
[   982:  3274]     101c:  0002a023   sw zero,0(t0)
[   983:  3277]     1020:  00428293   addi t0,t0,4 : t0(00021558)
[   984:  3281]     1024:  fe629ce3   bne t0,t1,101c (1024 - 0x8)
--------------------------------------------------------
[   985:  3284]     101c:  0002a023   sw zero,0(t0)
[   986:  3287]     1020:  00428293   addi t0,t0,4 : t0(0002155c)
[   987:  3291]     1024:  fe629ce3   bne t0,t1,101c (1024 - 0x8)
--------------------------------------------------------
[   988:  3294]     101c:  0002a023   sw zero,0(t0)
[   989:  3297]     1020:  00428293   addi t0,t0,4 : t0(00021560)
[   990:  3301]     1024:  fe629ce3   bne t0,t1,101c (1024 - 0x8)
--------------------------------------------------------
[   991:  3304]     101c:  0002a023   sw zero,0(t0)
[   992:  3307]     1020:  00428293   addi t0,t0,4 : t0(00021564)
[   993:  3311]     1024:  fe629ce3   bne t0,t1,101c (1024 - 0x8)
--------------------------------------------------------
[   994:  3314]     101c:  0002a023   sw zero,0(t0)
[   995:  3317]     1020:  00428293   addi t0,t0,4 : t0(00021568)
[   996:  3321]     1024:  fe629ce3   bne t0,t1,101c (1024 - 0x8)
--------------------------------------------------------
[   997:  3324]     101c:  0002a023   sw zero,0(t0)
[   998:  3327]     1020:  00428293   addi t0,t0,4 : t0(0002156c)
[   999:  3331]     1024:  fe629ce3   bne t0,t1,101c (1024 - 0x8)
--------------------------------------------------------
[  1000:  3334]     101c:  0002a023   sw zero,0(t0)
[  1001:  3337]     1020:  00428293   addi t0,t0,4 : t0(00021570)
[  1002:  3341]     1024:  fe629ce3   bne t0,t1,101c (1024 - 0x8)
--------------------------------------------------------
[  1003:  3344]     101c:  0002a023   sw zero,0(t0)
[  1004:  3347]     1020:  00428293   addi t0,t0,4 : t0(00021574)
[  1005:  3351]     1024:  fe629ce3   bne t0,t1,101c (1024 - 0x8)
--------------------------------------------------------
[  1006:  3354]     101c:  0002a023   sw zero,0(t0)
[  1007:  3357]     1020:  00428293   addi t0,t0,4 : t0(00021578)
[  1008:  3361]     1024:  fe629ce3   bne t0,t1,101c (1024 - 0x8)
--------------------------------------------------------
[  1009:  3364]     101c:  0002a023   sw zero,0(t0)
[  1010:  3367]     1020:  00428293   addi t0,t0,4 : t0(0002157c)
[  1011:  3371]     1024:  fe629ce3   bne t0,t1,101c (1024 - 0x8)
--------------------------------------------------------
[  1012:  3374]     101c:  0002a023   sw zero,0(t0)
[  1013:  3377]     1020:  00428293   addi t0,t0,4 : t0(00021580)
[  1014:  3381]     1024:  fe629ce3   bne t0,t1,101c (1024 - 0x8)
--------------------------------------------------------
[  1015:  3384]     101c:  0002a023   sw zero,0(t0)
[  1016:  3387]     1020:  00428293   addi t0,t0,4 : t0(00021584)
[  1017:  3391]     1024:  fe629ce3   bne t0,t1,101c (1024 - 0x8)
--------------------------------------------------------
[  1018:  3394]     101c:  0002a023   sw zero,0(t0)
[  1019:  3397]     1020:  00428293   addi t0,t0,4 : t0(00021588)
[  1020:  3401]     1024:  fe629ce3   bne t0,t1,101c (1024 - 0x8)
--------------------------------------------------------
[  1021:  3404]     101c:  0002a023   sw zero,0(t0)
[  1022:  3407]     1020:  00428293   addi t0,t0,4 : t0(0002158c)
[  1023:  3411]     1024:  fe629ce3   bne t0,t1,101c (1024 - 0x8)
--------------------------------------------------------
[  1024:  3414]     101c:  0002a023   sw zero,0(t0)
[  1025:  3417]     1020:  00428293   addi t0,t0,4 : t0(00021590)
[  1026:  3421]     1024:  fe629ce3   bne t0,t1,101c (1024 - 0x8)
--------------------------------------------------------
[  1027:  3424]     101c:  0002a023   sw zero,0(t0)
[  1028:  3427]     1020:  00428293   addi t0,t0,4 : t0(00021594)
[  1029:  3431]     1024:  fe629ce3   bne t0,t1,101c (1024 - 0x8)
--------------------------------------------------------
[  1030:  3434]     101c:  0002a023   sw zero,0(t0)
[  1031:  3437]     1020:  00428293   addi t0,t0,4 : t0(00021598)
[  1032:  3441]     1024:  fe629ce3   bne t0,t1,101c (1024 - 0x8)
--------------------------------------------------------
[  1033:  3444]     101c:  0002a023   sw zero,0(t0)
[  1034:  3447]     1020:  00428293   addi t0,t0,4 : t0(0002159c)
[  1035:  3451]     1024:  fe629ce3   bne t0,t1,101c (1024 - 0x8)
--------------------------------------------------------
[  1036:  3454]     101c:  0002a023   sw zero,0(t0)
[  1037:  3457]     1020:  00428293   addi t0,t0,4 : t0(000215a0)
[  1038:  3461]     1024:  fe629ce3   bne t0,t1,101c (1024 - 0x8)
--------------------------------------------------------
[  1039:  3464]     101c:  0002a023   sw zero,0(t0)
[  1040:  3467]     1020:  00428293   addi t0,t0,4 : t0(000215a4)
[  1041:  3471]     1024:  fe629ce3   bne t0,t1,101c (1024 - 0x8)
--------------------------------------------------------
[  1042:  3474]     101c:  0002a023   sw zero,0(t0)
[  1043:  3477]     1020:  00428293   addi t0,t0,4 : t0(000215a8)
[  1044:  3481]     1024:  fe629ce3   bne t0,t1,101c (1024 - 0x8)
--------------------------------------------------------
[  1045:  3484]     101c:  0002a023   sw zero,0(t0)
[  1046:  3487]     1020:  00428293   addi t0,t0,4 : t0(000215ac)
[  1047:  3491]     1024:  fe629ce3   bne t0,t1,101c (1024 - 0x8)
--------------------------------------------------------
[  1048:  3494]     101c:  0002a023   sw zero,0(t0)
[  1049:  3497]     1020:  00428293   addi t0,t0,4 : t0(000215b0)
[  1050:  3501]     1024:  fe629ce3   bne t0,t1,101c (1024 - 0x8)
--------------------------------------------------------
[  1051:  3504]     101c:  0002a023   sw zero,0(t0)
[  1052:  3507]     1020:  00428293   addi t0,t0,4 : t0(000215b4)
[  1053:  3511]     1024:  fe629ce3   bne t0,t1,101c (1024 - 0x8)
--------------------------------------------------------
[  1054:  3514]     101c:  0002a023   sw zero,0(t0)
[  1055:  3517]     1020:  00428293   addi t0,t0,4 : t0(000215b8)
[  1056:  3521]     1024:  fe629ce3   bne t0,t1,101c (1024 - 0x8)
--------------------------------------------------------
[  1057:  3524]     101c:  0002a023   sw zero,0(t0)
[  1058:  3527]     1020:  00428293   addi t0,t0,4 : t0(000215bc)
[  1059:  3531]     1024:  fe629ce3   bne t0,t1,101c (1024 - 0x8)
--------------------------------------------------------
[  1060:  3534]     101c:  0002a023   sw zero,0(t0)
[  1061:  3537]     1020:  00428293   addi t0,t0,4 : t0(000215c0)
[  1062:  3541]     1024:  fe629ce3   bne t0,t1,101c (1024 - 0x8)
--------------------------------------------------------
[  1063:  3544]     101c:  0002a023   sw zero,0(t0)
[  1064:  3547]     1020:  00428293   addi t0,t0,4 : t0(000215c4)
[  1065:  3551]     1024:  fe629ce3   bne t0,t1,101c (1024 - 0x8)
--------------------------------------------------------
[  1066:  3554]     101c:  0002a023   sw zero,0(t0)
[  1067:  3557]     1020:  00428293   addi t0,t0,4 : t0(000215c8)
[  1068:  3561]     1024:  fe629ce3   bne t0,t1,101c (1024 - 0x8)
--------------------------------------------------------
[  1069:  3564]     101c:  0002a023   sw zero,0(t0)
[  1070:  3567]     1020:  00428293   addi t0,t0,4 : t0(000215cc)
[  1071:  3571]     1024:  fe629ce3   bne t0,t1,101c (1024 - 0x8)
--------------------------------------------------------
[  1072:  3574]     101c:  0002a023   sw zero,0(t0)
[  1073:  3577]     1020:  00428293   addi t0,t0,4 : t0(000215d0)
[  1074:  3581]     1024:  fe629ce3   bne t0,t1,101c (1024 - 0x8)
--------------------------------------------------------
[  1075:  3584]     101c:  0002a023   sw zero,0(t0)
[  1076:  3587]     1020:  00428293   addi t0,t0,4 : t0(000215d4)
[  1077:  3591]     1024:  fe629ce3   bne t0,t1,101c (1024 - 0x8)
--------------------------------------------------------
[  1078:  3594]     101c:  0002a023   sw zero,0(t0)
[  1079:  3597]     1020:  00428293   addi t0,t0,4 : t0(000215d8)
[  1080:  3601]     1024:  fe629ce3   bne t0,t1,101c (1024 - 0x8)
--------------------------------------------------------
[  1081:  3604]     101c:  0002a023   sw zero,0(t0)
[  1082:  3607]     1020:  00428293   addi t0,t0,4 : t0(000215dc)
[  1083:  3611]     1024:  fe629ce3   bne t0,t1,101c (1024 - 0x8)
--------------------------------------------------------
[  1084:  3614]     101c:  0002a023   sw zero,0(t0)
[  1085:  3617]     1020:  00428293   addi t0,t0,4 : t0(000215e0)
[  1086:  3621]     1024:  fe629ce3   bne t0,t1,101c (1024 - 0x8)
--------------------------------------------------------
[  1087:  3624]     101c:  0002a023   sw zero,0(t0)
[  1088:  3627]     1020:  00428293   addi t0,t0,4 : t0(000215e4)
[  1089:  3631]     1024:  fe629ce3   bne t0,t1,101c (1024 - 0x8)
--------------------------------------------------------
[  1090:  3634]     101c:  0002a023   sw zero,0(t0)
[  1091:  3637]     1020:  00428293   addi t0,t0,4 : t0(000215e8)
[  1092:  3641]     1024:  fe629ce3   bne t0,t1,101c (1024 - 0x8)
--------------------------------------------------------
[  1093:  3644]     101c:  0002a023   sw zero,0(t0)
[  1094:  3647]     1020:  00428293   addi t0,t0,4 : t0(000215ec)
[  1095:  3651]     1024:  fe629ce3   bne t0,t1,101c (1024 - 0x8)
--------------------------------------------------------
[  1096:  3654]     101c:  0002a023   sw zero,0(t0)
[  1097:  3657]     1020:  00428293   addi t0,t0,4 : t0(000215f0)
[  1098:  3661]     1024:  fe629ce3   bne t0,t1,101c (1024 - 0x8)
--------------------------------------------------------
[  1099:  3664]     101c:  0002a023   sw zero,0(t0)
[  1100:  3667]     1020:  00428293   addi t0,t0,4 : t0(000215f4)
[  1101:  3671]     1024:  fe629ce3   bne t0,t1,101c (1024 - 0x8)
--------------------------------------------------------
[  1102:  3674]     101c:  0002a023   sw zero,0(t0)
[  1103:  3677]     1020:  00428293   addi t0,t0,4 : t0(000215f8)
[  1104:  3681]     1024:  fe629ce3   bne t0,t1,101c (1024 - 0x8)
--------------------------------------------------------
[  1105:  3684]     101c:  0002a023   sw zero,0(t0)
[  1106:  3687]     1020:  00428293   addi t0,t0,4 : t0(000215fc)
[  1107:  3691]     1024:  fe629ce3   bne t0,t1,101c (1024 - 0x8)
--------------------------------------------------------
[  1108:  3694]     101c:  0002a023   sw zero,0(t0)
[  1109:  3697]     1020:  00428293   addi t0,t0,4 : t0(00021600)
[  1110:  3701]     1024:  fe629ce3   bne t0,t1,101c (1024 - 0x8)
--------------------------------------------------------
[  1111:  3704]     101c:  0002a023   sw zero,0(t0)
[  1112:  3707]     1020:  00428293   addi t0,t0,4 : t0(00021604)
[  1113:  3711]     1024:  fe629ce3   bne t0,t1,101c (1024 - 0x8)
--------------------------------------------------------
[  1114:  3714]     101c:  0002a023   sw zero,0(t0)
[  1115:  3717]     1020:  00428293   addi t0,t0,4 : t0(00021608)
[  1116:  3721]     1024:  fe629ce3   bne t0,t1,101c (1024 - 0x8)
--------------------------------------------------------
[  1117:  3724]     101c:  0002a023   sw zero,0(t0)
[  1118:  3727]     1020:  00428293   addi t0,t0,4 : t0(0002160c)
[  1119:  3731]     1024:  fe629ce3   bne t0,t1,101c (1024 - 0x8)
--------------------------------------------------------
[  1120:  3734]     101c:  0002a023   sw zero,0(t0)
[  1121:  3737]     1020:  00428293   addi t0,t0,4 : t0(00021610)
[  1122:  3741]     1024:  fe629ce3   bne t0,t1,101c (1024 - 0x8)
--------------------------------------------------------
[  1123:  3744]     101c:  0002a023   sw zero,0(t0)
[  1124:  3747]     1020:  00428293   addi t0,t0,4 : t0(00021614)
[  1125:  3751]     1024:  fe629ce3   bne t0,t1,101c (1024 - 0x8)
--------------------------------------------------------
[  1126:  3754]     101c:  0002a023   sw zero,0(t0)
[  1127:  3757]     1020:  00428293   addi t0,t0,4 : t0(00021618)
[  1128:  3761]     1024:  fe629ce3   bne t0,t1,101c (1024 - 0x8)
--------------------------------------------------------
[  1129:  3764]     101c:  0002a023   sw zero,0(t0)
[  1130:  3767]     1020:  00428293   addi t0,t0,4 : t0(0002161c)
[  1131:  3771]     1024:  fe629ce3   bne t0,t1,101c (1024 - 0x8)
--------------------------------------------------------
[  1132:  3774]     101c:  0002a023   sw zero,0(t0)
[  1133:  3777]     1020:  00428293   addi t0,t0,4 : t0(00021620)
[  1134:  3781]     1024:  fe629ce3   bne t0,t1,101c (1024 - 0x8)
--------------------------------------------------------
[  1135:  3784]     101c:  0002a023   sw zero,0(t0)
[  1136:  3787]     1020:  00428293   addi t0,t0,4 : t0(00021624)
[  1137:  3791]     1024:  fe629ce3   bne t0,t1,101c (1024 - 0x8)
--------------------------------------------------------
[  1138:  3794]     101c:  0002a023   sw zero,0(t0)
[  1139:  3797]     1020:  00428293   addi t0,t0,4 : t0(00021628)
[  1140:  3801]     1024:  fe629ce3   bne t0,t1,101c (1024 - 0x8)
--------------------------------------------------------
[  1141:  3804]     101c:  0002a023   sw zero,0(t0)
[  1142:  3807]     1020:  00428293   addi t0,t0,4 : t0(0002162c)
[  1143:  3811]     1024:  fe629ce3   bne t0,t1,101c (1024 - 0x8)
--------------------------------------------------------
[  1144:  3814]     101c:  0002a023   sw zero,0(t0)
[  1145:  3817]     1020:  00428293   addi t0,t0,4 : t0(00021630)
[  1146:  3821]     1024:  fe629ce3   bne t0,t1,101c (1024 - 0x8)
--------------------------------------------------------
[  1147:  3824]     101c:  0002a023   sw zero,0(t0)
[  1148:  3827]     1020:  00428293   addi t0,t0,4 : t0(00021634)
[  1149:  3831]     1024:  fe629ce3   bne t0,t1,101c (1024 - 0x8)
--------------------------------------------------------
[  1150:  3834]     101c:  0002a023   sw zero,0(t0)
[  1151:  3837]     1020:  00428293   addi t0,t0,4 : t0(00021638)
[  1152:  3841]     1024:  fe629ce3   bne t0,t1,101c (1024 - 0x8)
--------------------------------------------------------
[  1153:  3844]     101c:  0002a023   sw zero,0(t0)
[  1154:  3847]     1020:  00428293   addi t0,t0,4 : t0(0002163c)
[  1155:  3851]     1024:  fe629ce3   bne t0,t1,101c (1024 - 0x8)
--------------------------------------------------------
[  1156:  3854]     101c:  0002a023   sw zero,0(t0)
[  1157:  3857]     1020:  00428293   addi t0,t0,4 : t0(00021640)
[  1158:  3861]     1024:  fe629ce3   bne t0,t1,101c (1024 - 0x8)
--------------------------------------------------------
[  1159:  3864]     101c:  0002a023   sw zero,0(t0)
[  1160:  3867]     1020:  00428293   addi t0,t0,4 : t0(00021644)
[  1161:  3871]     1024:  fe629ce3   bne t0,t1,101c (1024 - 0x8)
--------------------------------------------------------
[  1162:  3874]     101c:  0002a023   sw zero,0(t0)
[  1163:  3877]     1020:  00428293   addi t0,t0,4 : t0(00021648)
[  1164:  3881]     1024:  fe629ce3   bne t0,t1,101c (1024 - 0x8)
--------------------------------------------------------
[  1165:  3884]     101c:  0002a023   sw zero,0(t0)
[  1166:  3887]     1020:  00428293   addi t0,t0,4 : t0(0002164c)
[  1167:  3891]     1024:  fe629ce3   bne t0,t1,101c (1024 - 0x8)
--------------------------------------------------------
[  1168:  3894]     101c:  0002a023   sw zero,0(t0)
[  1169:  3897]     1020:  00428293   addi t0,t0,4 : t0(00021650)
[  1170:  3901]     1024:  fe629ce3   bne t0,t1,101c (1024 - 0x8)
--------------------------------------------------------
[  1171:  3904]     101c:  0002a023   sw zero,0(t0)
[  1172:  3907]     1020:  00428293   addi t0,t0,4 : t0(00021654)
[  1173:  3911]     1024:  fe629ce3   bne t0,t1,101c (1024 - 0x8)
--------------------------------------------------------
[  1174:  3914]     101c:  0002a023   sw zero,0(t0)
[  1175:  3917]     1020:  00428293   addi t0,t0,4 : t0(00021658)
[  1176:  3921]     1024:  fe629ce3   bne t0,t1,101c (1024 - 0x8)
--------------------------------------------------------
[  1177:  3924]     101c:  0002a023   sw zero,0(t0)
[  1178:  3927]     1020:  00428293   addi t0,t0,4 : t0(0002165c)
[  1179:  3931]     1024:  fe629ce3   bne t0,t1,101c (1024 - 0x8)
--------------------------------------------------------
[  1180:  3934]     101c:  0002a023   sw zero,0(t0)
[  1181:  3937]     1020:  00428293   addi t0,t0,4 : t0(00021660)
[  1182:  3941]     1024:  fe629ce3   bne t0,t1,101c (1024 - 0x8)
--------------------------------------------------------
[  1183:  3944]     101c:  0002a023   sw zero,0(t0)
[  1184:  3947]     1020:  00428293   addi t0,t0,4 : t0(00021664)
[  1185:  3951]     1024:  fe629ce3   bne t0,t1,101c (1024 - 0x8)
--------------------------------------------------------
[  1186:  3954]     101c:  0002a023   sw zero,0(t0)
[  1187:  3957]     1020:  00428293   addi t0,t0,4 : t0(00021668)
[  1188:  3961]     1024:  fe629ce3   bne t0,t1,101c (1024 - 0x8)
--------------------------------------------------------
[  1189:  3964]     101c:  0002a023   sw zero,0(t0)
[  1190:  3967]     1020:  00428293   addi t0,t0,4 : t0(0002166c)
[  1191:  3971]     1024:  fe629ce3   bne t0,t1,101c (1024 - 0x8)
--------------------------------------------------------
[  1192:  3974]     101c:  0002a023   sw zero,0(t0)
[  1193:  3977]     1020:  00428293   addi t0,t0,4 : t0(00021670)
[  1194:  3981]     1024:  fe629ce3   bne t0,t1,101c (1024 - 0x8)
--------------------------------------------------------
[  1195:  3984]     101c:  0002a023   sw zero,0(t0)
[  1196:  3987]     1020:  00428293   addi t0,t0,4 : t0(00021674)
[  1197:  3991]     1024:  fe629ce3   bne t0,t1,101c (1024 - 0x8)
--------------------------------------------------------
[  1198:  3994]     101c:  0002a023   sw zero,0(t0)
[  1199:  3997]     1020:  00428293   addi t0,t0,4 : t0(00021678)
[  1200:  4001]     1024:  fe629ce3   bne t0,t1,101c (1024 - 0x8)
--------------------------------------------------------
[  1201:  4004]     101c:  0002a023   sw zero,0(t0)
[  1202:  4007]     1020:  00428293   addi t0,t0,4 : t0(0002167c)
[  1203:  4011]     1024:  fe629ce3   bne t0,t1,101c (1024 - 0x8)
--------------------------------------------------------
[  1204:  4014]     101c:  0002a023   sw zero,0(t0)
[  1205:  4017]     1020:  00428293   addi t0,t0,4 : t0(00021680)
[  1206:  4021]     1024:  fe629ce3   bne t0,t1,101c (1024 - 0x8)
--------------------------------------------------------
[  1207:  4024]     101c:  0002a023   sw zero,0(t0)
[  1208:  4027]     1020:  00428293   addi t0,t0,4 : t0(00021684)
[  1209:  4031]     1024:  fe629ce3   bne t0,t1,101c (1024 - 0x8)
--------------------------------------------------------
[  1210:  4034]     101c:  0002a023   sw zero,0(t0)
[  1211:  4037]     1020:  00428293   addi t0,t0,4 : t0(00021688)
[  1212:  4041]     1024:  fe629ce3   bne t0,t1,101c (1024 - 0x8)
--------------------------------------------------------
[  1213:  4044]     101c:  0002a023   sw zero,0(t0)
[  1214:  4047]     1020:  00428293   addi t0,t0,4 : t0(0002168c)
[  1215:  4051]     1024:  fe629ce3   bne t0,t1,101c (1024 - 0x8)
--------------------------------------------------------
[  1216:  4054]     101c:  0002a023   sw zero,0(t0)
[  1217:  4057]     1020:  00428293   addi t0,t0,4 : t0(00021690)
[  1218:  4061]     1024:  fe629ce3   bne t0,t1,101c (1024 - 0x8)
--------------------------------------------------------
[  1219:  4064]     101c:  0002a023   sw zero,0(t0)
[  1220:  4067]     1020:  00428293   addi t0,t0,4 : t0(00021694)
[  1221:  4071]     1024:  fe629ce3   bne t0,t1,101c (1024 - 0x8)
--------------------------------------------------------
[  1222:  4074]     101c:  0002a023   sw zero,0(t0)
[  1223:  4077]     1020:  00428293   addi t0,t0,4 : t0(00021698)
[  1224:  4081]     1024:  fe629ce3   bne t0,t1,101c (1024 - 0x8)
--------------------------------------------------------
[  1225:  4084]     101c:  0002a023   sw zero,0(t0)
[  1226:  4087]     1020:  00428293   addi t0,t0,4 : t0(0002169c)
[  1227:  4091]     1024:  fe629ce3   bne t0,t1,101c (1024 - 0x8)
--------------------------------------------------------
[  1228:  4094]     101c:  0002a023   sw zero,0(t0)
[  1229:  4097]     1020:  00428293   addi t0,t0,4 : t0(000216a0)
[  1230:  4101]     1024:  fe629ce3   bne t0,t1,101c (1024 - 0x8)
--------------------------------------------------------
[  1231:  4104]     101c:  0002a023   sw zero,0(t0)
[  1232:  4107]     1020:  00428293   addi t0,t0,4 : t0(000216a4)
[  1233:  4111]     1024:  fe629ce3   bne t0,t1,101c (1024 - 0x8)
--------------------------------------------------------
[  1234:  4114]     101c:  0002a023   sw zero,0(t0)
[  1235:  4117]     1020:  00428293   addi t0,t0,4 : t0(000216a8)
[  1236:  4121]     1024:  fe629ce3   bne t0,t1,101c (1024 - 0x8)
--------------------------------------------------------
[  1237:  4124]     101c:  0002a023   sw zero,0(t0)
[  1238:  4127]     1020:  00428293   addi t0,t0,4 : t0(000216ac)
[  1239:  4131]     1024:  fe629ce3   bne t0,t1,101c (1024 - 0x8)
--------------------------------------------------------
[  1240:  4134]     101c:  0002a023   sw zero,0(t0)
[  1241:  4137]     1020:  00428293   addi t0,t0,4 : t0(000216b0)
[  1242:  4141]     1024:  fe629ce3   bne t0,t1,101c (1024 - 0x8)
--------------------------------------------------------
[  1243:  4144]     101c:  0002a023   sw zero,0(t0)
[  1244:  4147]     1020:  00428293   addi t0,t0,4 : t0(000216b4)
[  1245:  4151]     1024:  fe629ce3   bne t0,t1,101c (1024 - 0x8)
--------------------------------------------------------
[  1246:  4154]     101c:  0002a023   sw zero,0(t0)
[  1247:  4157]     1020:  00428293   addi t0,t0,4 : t0(000216b8)
[  1248:  4161]     1024:  fe629ce3   bne t0,t1,101c (1024 - 0x8)
--------------------------------------------------------
[  1249:  4164]     101c:  0002a023   sw zero,0(t0)
[  1250:  4167]     1020:  00428293   addi t0,t0,4 : t0(000216bc)
[  1251:  4171]     1024:  fe629ce3   bne t0,t1,101c (1024 - 0x8)
--------------------------------------------------------
[  1252:  4174]     101c:  0002a023   sw zero,0(t0)
[  1253:  4177]     1020:  00428293   addi t0,t0,4 : t0(000216c0)
[  1254:  4181]     1024:  fe629ce3   bne t0,t1,101c (1024 - 0x8)
--------------------------------------------------------
[  1255:  4184]     101c:  0002a023   sw zero,0(t0)
[  1256:  4187]     1020:  00428293   addi t0,t0,4 : t0(000216c4)
[  1257:  4191]     1024:  fe629ce3   bne t0,t1,101c (1024 - 0x8)
--------------------------------------------------------
[  1258:  4194]     101c:  0002a023   sw zero,0(t0)
[  1259:  4197]     1020:  00428293   addi t0,t0,4 : t0(000216c8)
[  1260:  4201]     1024:  fe629ce3   bne t0,t1,101c (1024 - 0x8)
--------------------------------------------------------
[  1261:  4204]     101c:  0002a023   sw zero,0(t0)
[  1262:  4207]     1020:  00428293   addi t0,t0,4 : t0(000216cc)
[  1263:  4211]     1024:  fe629ce3   bne t0,t1,101c (1024 - 0x8)
--------------------------------------------------------
[  1264:  4214]     101c:  0002a023   sw zero,0(t0)
[  1265:  4217]     1020:  00428293   addi t0,t0,4 : t0(000216d0)
[  1266:  4221]     1024:  fe629ce3   bne t0,t1,101c (1024 - 0x8)
--------------------------------------------------------
[  1267:  4224]     101c:  0002a023   sw zero,0(t0)
[  1268:  4227]     1020:  00428293   addi t0,t0,4 : t0(000216d4)
[  1269:  4231]     1024:  fe629ce3   bne t0,t1,101c (1024 - 0x8)
--------------------------------------------------------
[  1270:  4234]     101c:  0002a023   sw zero,0(t0)
[  1271:  4237]     1020:  00428293   addi t0,t0,4 : t0(000216d8)
[  1272:  4241]     1024:  fe629ce3   bne t0,t1,101c (1024 - 0x8)
--------------------------------------------------------
[  1273:  4244]     101c:  0002a023   sw zero,0(t0)
[  1274:  4247]     1020:  00428293   addi t0,t0,4 : t0(000216dc)
[  1275:  4251]     1024:  fe629ce3   bne t0,t1,101c (1024 - 0x8)
--------------------------------------------------------
[  1276:  4254]     101c:  0002a023   sw zero,0(t0)
[  1277:  4257]     1020:  00428293   addi t0,t0,4 : t0(000216e0)
[  1278:  4261]     1024:  fe629ce3   bne t0,t1,101c (1024 - 0x8)
--------------------------------------------------------
[  1279:  4264]     101c:  0002a023   sw zero,0(t0)
[  1280:  4267]     1020:  00428293   addi t0,t0,4 : t0(000216e4)
[  1281:  4271]     1024:  fe629ce3   bne t0,t1,101c (1024 - 0x8)
--------------------------------------------------------
[  1282:  4274]     101c:  0002a023   sw zero,0(t0)
[  1283:  4277]     1020:  00428293   addi t0,t0,4 : t0(000216e8)
[  1284:  4281]     1024:  fe629ce3   bne t0,t1,101c (1024 - 0x8)
--------------------------------------------------------
[  1285:  4284]     101c:  0002a023   sw zero,0(t0)
[  1286:  4287]     1020:  00428293   addi t0,t0,4 : t0(000216ec)
[  1287:  4291]     1024:  fe629ce3   bne t0,t1,101c (1024 - 0x8)
--------------------------------------------------------
[  1288:  4294]     101c:  0002a023   sw zero,0(t0)
[  1289:  4297]     1020:  00428293   addi t0,t0,4 : t0(000216f0)
[  1290:  4301]     1024:  fe629ce3   bne t0,t1,101c (1024 - 0x8)
--------------------------------------------------------
[  1291:  4304]     101c:  0002a023   sw zero,0(t0)
[  1292:  4307]     1020:  00428293   addi t0,t0,4 : t0(000216f4)
[  1293:  4311]     1024:  fe629ce3   bne t0,t1,101c (1024 - 0x8)
--------------------------------------------------------
[  1294:  4314]     101c:  0002a023   sw zero,0(t0)
[  1295:  4317]     1020:  00428293   addi t0,t0,4 : t0(000216f8)
[  1296:  4321]     1024:  fe629ce3   bne t0,t1,101c (1024 - 0x8)
--------------------------------------------------------
[  1297:  4324]     101c:  0002a023   sw zero,0(t0)
[  1298:  4327]     1020:  00428293   addi t0,t0,4 : t0(000216fc)
[  1299:  4331]     1024:  fe629ce3   bne t0,t1,101c (1024 - 0x8)
--------------------------------------------------------
[  1300:  4334]     101c:  0002a023   sw zero,0(t0)
[  1301:  4337]     1020:  00428293   addi t0,t0,4 : t0(00021700)
[  1302:  4341]     1024:  fe629ce3   bne t0,t1,101c (1024 - 0x8)
--------------------------------------------------------
[  1303:  4344]     101c:  0002a023   sw zero,0(t0)
[  1304:  4347]     1020:  00428293   addi t0,t0,4 : t0(00021704)
[  1305:  4351]     1024:  fe629ce3   bne t0,t1,101c (1024 - 0x8)
--------------------------------------------------------
[  1306:  4354]     101c:  0002a023   sw zero,0(t0)
[  1307:  4357]     1020:  00428293   addi t0,t0,4 : t0(00021708)
[  1308:  4361]     1024:  fe629ce3   bne t0,t1,101c (1024 - 0x8)
--------------------------------------------------------
[  1309:  4364]     101c:  0002a023   sw zero,0(t0)
[  1310:  4367]     1020:  00428293   addi t0,t0,4 : t0(0002170c)
[  1311:  4371]     1024:  fe629ce3   bne t0,t1,101c (1024 - 0x8)
--------------------------------------------------------
[  1312:  4374]     101c:  0002a023   sw zero,0(t0)
[  1313:  4377]     1020:  00428293   addi t0,t0,4 : t0(00021710)
[  1314:  4381]     1024:  fe629ce3   bne t0,t1,101c (1024 - 0x8)
--------------------------------------------------------
[  1315:  4384]     101c:  0002a023   sw zero,0(t0)
[  1316:  4387]     1020:  00428293   addi t0,t0,4 : t0(00021714)
[  1317:  4391]     1024:  fe629ce3   bne t0,t1,101c (1024 - 0x8)
--------------------------------------------------------
[  1318:  4394]     101c:  0002a023   sw zero,0(t0)
[  1319:  4397]     1020:  00428293   addi t0,t0,4 : t0(00021718)
[  1320:  4401]     1024:  fe629ce3   bne t0,t1,101c (1024 - 0x8)
--------------------------------------------------------
[  1321:  4404]     101c:  0002a023   sw zero,0(t0)
[  1322:  4407]     1020:  00428293   addi t0,t0,4 : t0(0002171c)
[  1323:  4411]     1024:  fe629ce3   bne t0,t1,101c (1024 - 0x8)
--------------------------------------------------------
[  1324:  4414]     101c:  0002a023   sw zero,0(t0)
[  1325:  4417]     1020:  00428293   addi t0,t0,4 : t0(00021720)
[  1326:  4421]     1024:  fe629ce3   bne t0,t1,101c (1024 - 0x8)
--------------------------------------------------------
[  1327:  4424]     101c:  0002a023   sw zero,0(t0)
[  1328:  4427]     1020:  00428293   addi t0,t0,4 : t0(00021724)
[  1329:  4431]     1024:  fe629ce3   bne t0,t1,101c (1024 - 0x8)
--------------------------------------------------------
[  1330:  4434]     101c:  0002a023   sw zero,0(t0)
[  1331:  4437]     1020:  00428293   addi t0,t0,4 : t0(00021728)
[  1332:  4441]     1024:  fe629ce3   bne t0,t1,101c (1024 - 0x8)
--------------------------------------------------------
[  1333:  4444]     101c:  0002a023   sw zero,0(t0)
[  1334:  4447]     1020:  00428293   addi t0,t0,4 : t0(0002172c)
[  1335:  4451]     1024:  fe629ce3   bne t0,t1,101c (1024 - 0x8)
--------------------------------------------------------
[  1336:  4454]     101c:  0002a023   sw zero,0(t0)
[  1337:  4457]     1020:  00428293   addi t0,t0,4 : t0(00021730)
[  1338:  4461]     1024:  fe629ce3   bne t0,t1,101c (1024 - 0x8)
--------------------------------------------------------
[  1339:  4464]     101c:  0002a023   sw zero,0(t0)
[  1340:  4467]     1020:  00428293   addi t0,t0,4 : t0(00021734)
[  1341:  4471]     1024:  fe629ce3   bne t0,t1,101c (1024 - 0x8)
--------------------------------------------------------
[  1342:  4474]     101c:  0002a023   sw zero,0(t0)
[  1343:  4477]     1020:  00428293   addi t0,t0,4 : t0(00021738)
[  1344:  4481]     1024:  fe629ce3   bne t0,t1,101c (1024 - 0x8)
--------------------------------------------------------
[  1345:  4484]     101c:  0002a023   sw zero,0(t0)
[  1346:  4487]     1020:  00428293   addi t0,t0,4 : t0(0002173c)
[  1347:  4491]     1024:  fe629ce3   bne t0,t1,101c (1024 - 0x8)
--------------------------------------------------------
[  1348:  4494]     101c:  0002a023   sw zero,0(t0)
[  1349:  4497]     1020:  00428293   addi t0,t0,4 : t0(00021740)
[  1350:  4501]     1024:  fe629ce3   bne t0,t1,101c (1024 - 0x8)
--------------------------------------------------------
[  1351:  4504]     101c:  0002a023   sw zero,0(t0)
[  1352:  4507]     1020:  00428293   addi t0,t0,4 : t0(00021744)
[  1353:  4511]     1024:  fe629ce3   bne t0,t1,101c (1024 - 0x8)
--------------------------------------------------------
[  1354:  4514]     101c:  0002a023   sw zero,0(t0)
[  1355:  4517]     1020:  00428293   addi t0,t0,4 : t0(00021748)
[  1356:  4521]     1024:  fe629ce3   bne t0,t1,101c (1024 - 0x8)
--------------------------------------------------------
[  1357:  4524]     101c:  0002a023   sw zero,0(t0)
[  1358:  4527]     1020:  00428293   addi t0,t0,4 : t0(0002174c)
[  1359:  4531]     1024:  fe629ce3   bne t0,t1,101c (1024 - 0x8)
--------------------------------------------------------
[  1360:  4534]     101c:  0002a023   sw zero,0(t0)
[  1361:  4537]     1020:  00428293   addi t0,t0,4 : t0(00021750)
[  1362:  4541]     1024:  fe629ce3   bne t0,t1,101c (1024 - 0x8)
--------------------------------------------------------
[  1363:  4544]     101c:  0002a023   sw zero,0(t0)
[  1364:  4547]     1020:  00428293   addi t0,t0,4 : t0(00021754)
[  1365:  4551]     1024:  fe629ce3   bne t0,t1,101c (1024 - 0x8)
--------------------------------------------------------
[  1366:  4554]     101c:  0002a023   sw zero,0(t0)
[  1367:  4557]     1020:  00428293   addi t0,t0,4 : t0(00021758)
[  1368:  4561]     1024:  fe629ce3   bne t0,t1,101c (1024 - 0x8)
--------------------------------------------------------
[  1369:  4564]     101c:  0002a023   sw zero,0(t0)
[  1370:  4567]     1020:  00428293   addi t0,t0,4 : t0(0002175c)
[  1371:  4571]     1024:  fe629ce3   bne t0,t1,101c (1024 - 0x8)
--------------------------------------------------------
[  1372:  4574]     101c:  0002a023   sw zero,0(t0)
[  1373:  4577]     1020:  00428293   addi t0,t0,4 : t0(00021760)
[  1374:  4581]     1024:  fe629ce3   bne t0,t1,101c (1024 - 0x8)
--------------------------------------------------------
[  1375:  4584]     101c:  0002a023   sw zero,0(t0)
[  1376:  4587]     1020:  00428293   addi t0,t0,4 : t0(00021764)
[  1377:  4591]     1024:  fe629ce3   bne t0,t1,101c (1024 - 0x8)
--------------------------------------------------------
[  1378:  4594]     101c:  0002a023   sw zero,0(t0)
[  1379:  4597]     1020:  00428293   addi t0,t0,4 : t0(00021768)
[  1380:  4601]     1024:  fe629ce3   bne t0,t1,101c (1024 - 0x8)
--------------------------------------------------------
[  1381:  4604]     101c:  0002a023   sw zero,0(t0)
[  1382:  4607]     1020:  00428293   addi t0,t0,4 : t0(0002176c)
[  1383:  4611]     1024:  fe629ce3   bne t0,t1,101c (1024 - 0x8)
--------------------------------------------------------
[  1384:  4614]     101c:  0002a023   sw zero,0(t0)
[  1385:  4617]     1020:  00428293   addi t0,t0,4 : t0(00021770)
[  1386:  4621]     1024:  fe629ce3   bne t0,t1,101c (1024 - 0x8)
--------------------------------------------------------
[  1387:  4624]     101c:  0002a023   sw zero,0(t0)
[  1388:  4627]     1020:  00428293   addi t0,t0,4 : t0(00021774)
[  1389:  4631]     1024:  fe629ce3   bne t0,t1,101c (1024 - 0x8)
--------------------------------------------------------
[  1390:  4634]     101c:  0002a023   sw zero,0(t0)
[  1391:  4637]     1020:  00428293   addi t0,t0,4 : t0(00021778)
[  1392:  4641]     1024:  fe629ce3   bne t0,t1,101c (1024 - 0x8)
--------------------------------------------------------
[  1393:  4644]     101c:  0002a023   sw zero,0(t0)
[  1394:  4647]     1020:  00428293   addi t0,t0,4 : t0(0002177c)
[  1395:  4651]     1024:  fe629ce3   bne t0,t1,101c (1024 - 0x8)
--------------------------------------------------------
[  1396:  4654]     101c:  0002a023   sw zero,0(t0)
[  1397:  4657]     1020:  00428293   addi t0,t0,4 : t0(00021780)
[  1398:  4661]     1024:  fe629ce3   bne t0,t1,101c (1024 - 0x8)
--------------------------------------------------------
[  1399:  4664]     101c:  0002a023   sw zero,0(t0)
[  1400:  4667]     1020:  00428293   addi t0,t0,4 : t0(00021784)
[  1401:  4671]     1024:  fe629ce3   bne t0,t1,101c (1024 - 0x8)
--------------------------------------------------------
[  1402:  4674]     101c:  0002a023   sw zero,0(t0)
[  1403:  4677]     1020:  00428293   addi t0,t0,4 : t0(00021788)
[  1404:  4681]     1024:  fe629ce3   bne t0,t1,101c (1024 - 0x8)
--------------------------------------------------------
[  1405:  4684]     101c:  0002a023   sw zero,0(t0)
[  1406:  4687]     1020:  00428293   addi t0,t0,4 : t0(0002178c)
[  1407:  4691]     1024:  fe629ce3   bne t0,t1,101c (1024 - 0x8)
--------------------------------------------------------
[  1408:  4694]     101c:  0002a023   sw zero,0(t0)
[  1409:  4697]     1020:  00428293   addi t0,t0,4 : t0(00021790)
[  1410:  4701]     1024:  fe629ce3   bne t0,t1,101c (1024 - 0x8)
--------------------------------------------------------
[  1411:  4704]     101c:  0002a023   sw zero,0(t0)
[  1412:  4707]     1020:  00428293   addi t0,t0,4 : t0(00021794)
[  1413:  4711]     1024:  fe629ce3   bne t0,t1,101c (1024 - 0x8)
--------------------------------------------------------
[  1414:  4714]     101c:  0002a023   sw zero,0(t0)
[  1415:  4717]     1020:  00428293   addi t0,t0,4 : t0(00021798)
[  1416:  4721]     1024:  fe629ce3   bne t0,t1,101c (1024 - 0x8)
--------------------------------------------------------
[  1417:  4724]     101c:  0002a023   sw zero,0(t0)
[  1418:  4727]     1020:  00428293   addi t0,t0,4 : t0(0002179c)
[  1419:  4731]     1024:  fe629ce3   bne t0,t1,101c (1024 - 0x8)
--------------------------------------------------------
[  1420:  4734]     101c:  0002a023   sw zero,0(t0)
[  1421:  4737]     1020:  00428293   addi t0,t0,4 : t0(000217a0)
[  1422:  4741]     1024:  fe629ce3   bne t0,t1,101c (1024 - 0x8)
--------------------------------------------------------
[  1423:  4744]     101c:  0002a023   sw zero,0(t0)
[  1424:  4747]     1020:  00428293   addi t0,t0,4 : t0(000217a4)
[  1425:  4751]     1024:  fe629ce3   bne t0,t1,101c (1024 - 0x8)
--------------------------------------------------------
[  1426:  4754]     101c:  0002a023   sw zero,0(t0)
[  1427:  4757]     1020:  00428293   addi t0,t0,4 : t0(000217a8)
[  1428:  4761]     1024:  fe629ce3   bne t0,t1,101c (1024 - 0x8)
--------------------------------------------------------
[  1429:  4764]     101c:  0002a023   sw zero,0(t0)
[  1430:  4767]     1020:  00428293   addi t0,t0,4 : t0(000217ac)
[  1431:  4771]     1024:  fe629ce3   bne t0,t1,101c (1024 - 0x8)
--------------------------------------------------------
[  1432:  4774]     101c:  0002a023   sw zero,0(t0)
[  1433:  4777]     1020:  00428293   addi t0,t0,4 : t0(000217b0)
[  1434:  4781]     1024:  fe629ce3   bne t0,t1,101c (1024 - 0x8)
--------------------------------------------------------
[  1435:  4784]     101c:  0002a023   sw zero,0(t0)
[  1436:  4787]     1020:  00428293   addi t0,t0,4 : t0(000217b4)
[  1437:  4791]     1024:  fe629ce3   bne t0,t1,101c (1024 - 0x8)
--------------------------------------------------------
[  1438:  4794]     101c:  0002a023   sw zero,0(t0)
[  1439:  4797]     1020:  00428293   addi t0,t0,4 : t0(000217b8)
[  1440:  4801]     1024:  fe629ce3   bne t0,t1,101c (1024 - 0x8)
--------------------------------------------------------
[  1441:  4804]     101c:  0002a023   sw zero,0(t0)
[  1442:  4807]     1020:  00428293   addi t0,t0,4 : t0(000217bc)
[  1443:  4811]     1024:  fe629ce3   bne t0,t1,101c (1024 - 0x8)
--------------------------------------------------------
[  1444:  4814]     101c:  0002a023   sw zero,0(t0)
[  1445:  4817]     1020:  00428293   addi t0,t0,4 : t0(000217c0)
[  1446:  4821]     1024:  fe629ce3   bne t0,t1,101c (1024 - 0x8)
--------------------------------------------------------
[  1447:  4824]     101c:  0002a023   sw zero,0(t0)
[  1448:  4827]     1020:  00428293   addi t0,t0,4 : t0(000217c4)
[  1449:  4831]     1024:  fe629ce3   bne t0,t1,101c (1024 - 0x8)
--------------------------------------------------------
[  1450:  4834]     101c:  0002a023   sw zero,0(t0)
[  1451:  4837]     1020:  00428293   addi t0,t0,4 : t0(000217c8)
[  1452:  4841]     1024:  fe629ce3   bne t0,t1,101c (1024 - 0x8)
--------------------------------------------------------
[  1453:  4844]     101c:  0002a023   sw zero,0(t0)
[  1454:  4847]     1020:  00428293   addi t0,t0,4 : t0(000217cc)
[  1455:  4851]     1024:  fe629ce3   bne t0,t1,101c (1024 - 0x8)
--------------------------------------------------------
[  1456:  4854]     101c:  0002a023   sw zero,0(t0)
[  1457:  4857]     1020:  00428293   addi t0,t0,4 : t0(000217d0)
[  1458:  4861]     1024:  fe629ce3   bne t0,t1,101c (1024 - 0x8)
--------------------------------------------------------
[  1459:  4864]     101c:  0002a023   sw zero,0(t0)
[  1460:  4867]     1020:  00428293   addi t0,t0,4 : t0(000217d4)
[  1461:  4871]     1024:  fe629ce3   bne t0,t1,101c (1024 - 0x8)
--------------------------------------------------------
[  1462:  4874]     101c:  0002a023   sw zero,0(t0)
[  1463:  4877]     1020:  00428293   addi t0,t0,4 : t0(000217d8)
[  1464:  4881]     1024:  fe629ce3   bne t0,t1,101c (1024 - 0x8)
--------------------------------------------------------
[  1465:  4884]     101c:  0002a023   sw zero,0(t0)
[  1466:  4887]     1020:  00428293   addi t0,t0,4 : t0(000217dc)
[  1467:  4891]     1024:  fe629ce3   bne t0,t1,101c (1024 - 0x8)
--------------------------------------------------------
[  1468:  4894]     101c:  0002a023   sw zero,0(t0)
[  1469:  4897]     1020:  00428293   addi t0,t0,4 : t0(000217e0)
[  1470:  4901]     1024:  fe629ce3   bne t0,t1,101c (1024 - 0x8)
--------------------------------------------------------
[  1471:  4904]     101c:  0002a023   sw zero,0(t0)
[  1472:  4907]     1020:  00428293   addi t0,t0,4 : t0(000217e4)
[  1473:  4911]     1024:  fe629ce3   bne t0,t1,101c (1024 - 0x8)
--------------------------------------------------------
[  1474:  4914]     101c:  0002a023   sw zero,0(t0)
[  1475:  4917]     1020:  00428293   addi t0,t0,4 : t0(000217e8)
[  1476:  4921]     1024:  fe629ce3   bne t0,t1,101c (1024 - 0x8)
--------------------------------------------------------
[  1477:  4924]     101c:  0002a023   sw zero,0(t0)
[  1478:  4927]     1020:  00428293   addi t0,t0,4 : t0(000217ec)
[  1479:  4931]     1024:  fe629ce3   bne t0,t1,101c (1024 - 0x8)
--------------------------------------------------------
[  1480:  4934]     101c:  0002a023   sw zero,0(t0)
[  1481:  4937]     1020:  00428293   addi t0,t0,4 : t0(000217f0)
[  1482:  4941]     1024:  fe629ce3   bne t0,t1,101c (1024 - 0x8)
--------------------------------------------------------
[  1483:  4944]     101c:  0002a023   sw zero,0(t0)
[  1484:  4947]     1020:  00428293   addi t0,t0,4 : t0(000217f4)
[  1485:  4951]     1024:  fe629ce3   bne t0,t1,101c (1024 - 0x8)
--------------------------------------------------------
[  1486:  4954]     101c:  0002a023   sw zero,0(t0)
[  1487:  4957]     1020:  00428293   addi t0,t0,4 : t0(000217f8)
[  1488:  4961]     1024:  fe629ce3   bne t0,t1,101c (1024 - 0x8)
--------------------------------------------------------
[  1489:  4964]     101c:  0002a023   sw zero,0(t0)
[  1490:  4967]     1020:  00428293   addi t0,t0,4 : t0(000217fc)
[  1491:  4971]     1024:  fe629ce3   bne t0,t1,101c (1024 - 0x8)
--------------------------------------------------------
[  1492:  4974]     101c:  0002a023   sw zero,0(t0)
[  1493:  4977]     1020:  00428293   addi t0,t0,4 : t0(00021800)
[  1494:  4981]     1024:  fe629ce3   bne t0,t1,101c (1024 - 0x8)
--------------------------------------------------------
[  1495:  4984]     101c:  0002a023   sw zero,0(t0)
[  1496:  4987]     1020:  00428293   addi t0,t0,4 : t0(00021804)
[  1497:  4991]     1024:  fe629ce3   bne t0,t1,101c (1024 - 0x8)
--------------------------------------------------------
[  1498:  4994]     101c:  0002a023   sw zero,0(t0)
[  1499:  4997]     1020:  00428293   addi t0,t0,4 : t0(00021808)
[  1500:  5001]     1024:  fe629ce3   bne t0,t1,101c (1024 - 0x8)
--------------------------------------------------------
[  1501:  5004]     101c:  0002a023   sw zero,0(t0)
[  1502:  5007]     1020:  00428293   addi t0,t0,4 : t0(0002180c)
[  1503:  5011]     1024:  fe629ce3   bne t0,t1,101c (1024 - 0x8)
--------------------------------------------------------
[  1504:  5014]     101c:  0002a023   sw zero,0(t0)
[  1505:  5017]     1020:  00428293   addi t0,t0,4 : t0(00021810)
[  1506:  5021]     1024:  fe629ce3   bne t0,t1,101c (1024 - 0x8)
--------------------------------------------------------
[  1507:  5024]     101c:  0002a023   sw zero,0(t0)
[  1508:  5027]     1020:  00428293   addi t0,t0,4 : t0(00021814)
[  1509:  5031]     1024:  fe629ce3   bne t0,t1,101c (1024 - 0x8)
--------------------------------------------------------
[  1510:  5034]     101c:  0002a023   sw zero,0(t0)
[  1511:  5037]     1020:  00428293   addi t0,t0,4 : t0(00021818)
[  1512:  5041]     1024:  fe629ce3   bne t0,t1,101c (1024 - 0x8)
--------------------------------------------------------
[  1513:  5044]     101c:  0002a023   sw zero,0(t0)
[  1514:  5047]     1020:  00428293   addi t0,t0,4 : t0(0002181c)
[  1515:  5051]     1024:  fe629ce3   bne t0,t1,101c (1024 - 0x8)
--------------------------------------------------------
[  1516:  5054]     101c:  0002a023   sw zero,0(t0)
[  1517:  5057]     1020:  00428293   addi t0,t0,4 : t0(00021820)
[  1518:  5061]     1024:  fe629ce3   bne t0,t1,101c (1024 - 0x8)
--------------------------------------------------------
[  1519:  5064]     101c:  0002a023   sw zero,0(t0)
[  1520:  5067]     1020:  00428293   addi t0,t0,4 : t0(00021824)
[  1521:  5071]     1024:  fe629ce3   bne t0,t1,101c (1024 - 0x8)
--------------------------------------------------------
[  1522:  5074]     101c:  0002a023   sw zero,0(t0)
[  1523:  5077]     1020:  00428293   addi t0,t0,4 : t0(00021828)
[  1524:  5081]     1024:  fe629ce3   bne t0,t1,101c (1024 - 0x8)
--------------------------------------------------------
[  1525:  5084]     101c:  0002a023   sw zero,0(t0)
[  1526:  5087]     1020:  00428293   addi t0,t0,4 : t0(0002182c)
[  1527:  5091]     1024:  fe629ce3   bne t0,t1,101c (1024 - 0x8)
--------------------------------------------------------
[  1528:  5094]     101c:  0002a023   sw zero,0(t0)
[  1529:  5097]     1020:  00428293   addi t0,t0,4 : t0(00021830)
[  1530:  5101]     1024:  fe629ce3   bne t0,t1,101c (1024 - 0x8)
--------------------------------------------------------
[  1531:  5104]     101c:  0002a023   sw zero,0(t0)
[  1532:  5107]     1020:  00428293   addi t0,t0,4 : t0(00021834)
[  1533:  5111]     1024:  fe629ce3   bne t0,t1,101c (1024 - 0x8)
--------------------------------------------------------
[  1534:  5114]     101c:  0002a023   sw zero,0(t0)
[  1535:  5117]     1020:  00428293   addi t0,t0,4 : t0(00021838)
[  1536:  5121]     1024:  fe629ce3   bne t0,t1,101c (1024 - 0x8)
--------------------------------------------------------
[  1537:  5124]     101c:  0002a023   sw zero,0(t0)
[  1538:  5127]     1020:  00428293   addi t0,t0,4 : t0(0002183c)
[  1539:  5131]     1024:  fe629ce3   bne t0,t1,101c (1024 - 0x8)
--------------------------------------------------------
[  1540:  5134]     101c:  0002a023   sw zero,0(t0)
[  1541:  5137]     1020:  00428293   addi t0,t0,4 : t0(00021840)
[  1542:  5141]     1024:  fe629ce3   bne t0,t1,101c (1024 - 0x8)
--------------------------------------------------------
[  1543:  5144]     101c:  0002a023   sw zero,0(t0)
[  1544:  5147]     1020:  00428293   addi t0,t0,4 : t0(00021844)
[  1545:  5151]     1024:  fe629ce3   bne t0,t1,101c (1024 - 0x8)
--------------------------------------------------------
[  1546:  5154]     101c:  0002a023   sw zero,0(t0)
[  1547:  5157]     1020:  00428293   addi t0,t0,4 : t0(00021848)
[  1548:  5161]     1024:  fe629ce3   bne t0,t1,101c (1024 - 0x8)
--------------------------------------------------------
[  1549:  5164]     101c:  0002a023   sw zero,0(t0)
[  1550:  5167]     1020:  00428293   addi t0,t0,4 : t0(0002184c)
[  1551:  5171]     1024:  fe629ce3   bne t0,t1,101c (1024 - 0x8)
--------------------------------------------------------
[  1552:  5174]     101c:  0002a023   sw zero,0(t0)
[  1553:  5177]     1020:  00428293   addi t0,t0,4 : t0(00021850)
[  1554:  5181]     1024:  fe629ce3   bne t0,t1,101c (1024 - 0x8)
--------------------------------------------------------
[  1555:  5184]     101c:  0002a023   sw zero,0(t0)
[  1556:  5187]     1020:  00428293   addi t0,t0,4 : t0(00021854)
[  1557:  5191]     1024:  fe629ce3   bne t0,t1,101c (1024 - 0x8)
--------------------------------------------------------
[  1558:  5194]     101c:  0002a023   sw zero,0(t0)
[  1559:  5197]     1020:  00428293   addi t0,t0,4 : t0(00021858)
[  1560:  5201]     1024:  fe629ce3   bne t0,t1,101c (1024 - 0x8)
--------------------------------------------------------
[  1561:  5204]     101c:  0002a023   sw zero,0(t0)
[  1562:  5207]     1020:  00428293   addi t0,t0,4 : t0(0002185c)
[  1563:  5211]     1024:  fe629ce3   bne t0,t1,101c (1024 - 0x8)
--------------------------------------------------------
[  1564:  5214]     101c:  0002a023   sw zero,0(t0)
[  1565:  5217]     1020:  00428293   addi t0,t0,4 : t0(00021860)
[  1566:  5221]     1024:  fe629ce3   bne t0,t1,101c (1024 - 0x8)
--------------------------------------------------------
[  1567:  5224]     101c:  0002a023   sw zero,0(t0)
[  1568:  5227]     1020:  00428293   addi t0,t0,4 : t0(00021864)
[  1569:  5231]     1024:  fe629ce3   bne t0,t1,101c (1024 - 0x8)
--------------------------------------------------------
[  1570:  5234]     101c:  0002a023   sw zero,0(t0)
[  1571:  5237]     1020:  00428293   addi t0,t0,4 : t0(00021868)
[  1572:  5241]     1024:  fe629ce3   bne t0,t1,101c (1024 - 0x8)
--------------------------------------------------------
[  1573:  5244]     101c:  0002a023   sw zero,0(t0)
[  1574:  5247]     1020:  00428293   addi t0,t0,4 : t0(0002186c)
[  1575:  5251]     1024:  fe629ce3   bne t0,t1,101c (1024 - 0x8)
--------------------------------------------------------
[  1576:  5254]     101c:  0002a023   sw zero,0(t0)
[  1577:  5257]     1020:  00428293   addi t0,t0,4 : t0(00021870)
[  1578:  5261]     1024:  fe629ce3   bne t0,t1,101c (1024 - 0x8)
--------------------------------------------------------
[  1579:  5264]     101c:  0002a023   sw zero,0(t0)
[  1580:  5267]     1020:  00428293   addi t0,t0,4 : t0(00021874)
[  1581:  5271]     1024:  fe629ce3   bne t0,t1,101c (1024 - 0x8)
--------------------------------------------------------
[  1582:  5274]     101c:  0002a023   sw zero,0(t0)
[  1583:  5277]     1020:  00428293   addi t0,t0,4 : t0(00021878)
[  1584:  5281]     1024:  fe629ce3   bne t0,t1,101c (1024 - 0x8)
--------------------------------------------------------
[  1585:  5284]     101c:  0002a023   sw zero,0(t0)
[  1586:  5287]     1020:  00428293   addi t0,t0,4 : t0(0002187c)
[  1587:  5291]     1024:  fe629ce3   bne t0,t1,101c (1024 - 0x8)
--------------------------------------------------------
[  1588:  5294]     101c:  0002a023   sw zero,0(t0)
[  1589:  5297]     1020:  00428293   addi t0,t0,4 : t0(00021880)
[  1590:  5301]     1024:  fe629ce3   bne t0,t1,101c (1024 - 0x8)
--------------------------------------------------------
[  1591:  5304]     101c:  0002a023   sw zero,0(t0)
[  1592:  5307]     1020:  00428293   addi t0,t0,4 : t0(00021884)
[  1593:  5311]     1024:  fe629ce3   bne t0,t1,101c (1024 - 0x8)
--------------------------------------------------------
[  1594:  5314]     101c:  0002a023   sw zero,0(t0)
[  1595:  5317]     1020:  00428293   addi t0,t0,4 : t0(00021888)
[  1596:  5321]     1024:  fe629ce3   bne t0,t1,101c (1024 - 0x8)
--------------------------------------------------------
[  1597:  5324]     101c:  0002a023   sw zero,0(t0)
[  1598:  5327]     1020:  00428293   addi t0,t0,4 : t0(0002188c)
[  1599:  5331]     1024:  fe629ce3   bne t0,t1,101c (1024 - 0x8)
--------------------------------------------------------
[  1600:  5334]     101c:  0002a023   sw zero,0(t0)
[  1601:  5337]     1020:  00428293   addi t0,t0,4 : t0(00021890)
[  1602:  5341]     1024:  fe629ce3   bne t0,t1,101c (1024 - 0x8)
--------------------------------------------------------
[  1603:  5344]     101c:  0002a023   sw zero,0(t0)
[  1604:  5347]     1020:  00428293   addi t0,t0,4 : t0(00021894)
[  1605:  5351]     1024:  fe629ce3   bne t0,t1,101c (1024 - 0x8)
--------------------------------------------------------
[  1606:  5354]     101c:  0002a023   sw zero,0(t0)
[  1607:  5357]     1020:  00428293   addi t0,t0,4 : t0(00021898)
[  1608:  5361]     1024:  fe629ce3   bne t0,t1,101c (1024 - 0x8)
--------------------------------------------------------
[  1609:  5364]     101c:  0002a023   sw zero,0(t0)
[  1610:  5367]     1020:  00428293   addi t0,t0,4 : t0(0002189c)
[  1611:  5371]     1024:  fe629ce3   bne t0,t1,101c (1024 - 0x8)
--------------------------------------------------------
[  1612:  5374]     101c:  0002a023   sw zero,0(t0)
[  1613:  5377]     1020:  00428293   addi t0,t0,4 : t0(000218a0)
[  1614:  5381]     1024:  fe629ce3   bne t0,t1,101c (1024 - 0x8)
--------------------------------------------------------
[  1615:  5384]     101c:  0002a023   sw zero,0(t0)
[  1616:  5387]     1020:  00428293   addi t0,t0,4 : t0(000218a4)
[  1617:  5391]     1024:  fe629ce3   bne t0,t1,101c (1024 - 0x8)
--------------------------------------------------------
[  1618:  5394]     101c:  0002a023   sw zero,0(t0)
[  1619:  5397]     1020:  00428293   addi t0,t0,4 : t0(000218a8)
[  1620:  5401]     1024:  fe629ce3   bne t0,t1,101c (1024 - 0x8)
--------------------------------------------------------
[  1621:  5404]     101c:  0002a023   sw zero,0(t0)
[  1622:  5407]     1020:  00428293   addi t0,t0,4 : t0(000218ac)
[  1623:  5411]     1024:  fe629ce3   bne t0,t1,101c (1024 - 0x8)
--------------------------------------------------------
[  1624:  5414]     101c:  0002a023   sw zero,0(t0)
[  1625:  5417]     1020:  00428293   addi t0,t0,4 : t0(000218b0)
[  1626:  5421]     1024:  fe629ce3   bne t0,t1,101c (1024 - 0x8)
--------------------------------------------------------
[  1627:  5424]     101c:  0002a023   sw zero,0(t0)
[  1628:  5427]     1020:  00428293   addi t0,t0,4 : t0(000218b4)
[  1629:  5431]     1024:  fe629ce3   bne t0,t1,101c (1024 - 0x8)
--------------------------------------------------------
[  1630:  5434]     101c:  0002a023   sw zero,0(t0)
[  1631:  5437]     1020:  00428293   addi t0,t0,4 : t0(000218b8)
[  1632:  5441]     1024:  fe629ce3   bne t0,t1,101c (1024 - 0x8)
--------------------------------------------------------
[  1633:  5444]     101c:  0002a023   sw zero,0(t0)
[  1634:  5447]     1020:  00428293   addi t0,t0,4 : t0(000218bc)
[  1635:  5451]     1024:  fe629ce3   bne t0,t1,101c (1024 - 0x8)
--------------------------------------------------------
[  1636:  5454]     101c:  0002a023   sw zero,0(t0)
[  1637:  5457]     1020:  00428293   addi t0,t0,4 : t0(000218c0)
[  1638:  5461]     1024:  fe629ce3   bne t0,t1,101c (1024 - 0x8)
--------------------------------------------------------
[  1639:  5464]     101c:  0002a023   sw zero,0(t0)
[  1640:  5467]     1020:  00428293   addi t0,t0,4 : t0(000218c4)
[  1641:  5471]     1024:  fe629ce3   bne t0,t1,101c (1024 - 0x8)
--------------------------------------------------------
[  1642:  5474]     101c:  0002a023   sw zero,0(t0)
[  1643:  5477]     1020:  00428293   addi t0,t0,4 : t0(000218c8)
[  1644:  5481]     1024:  fe629ce3   bne t0,t1,101c (1024 - 0x8)
--------------------------------------------------------
[  1645:  5484]     101c:  0002a023   sw zero,0(t0)
[  1646:  5487]     1020:  00428293   addi t0,t0,4 : t0(000218cc)
[  1647:  5491]     1024:  fe629ce3   bne t0,t1,101c (1024 - 0x8)
--------------------------------------------------------
[  1648:  5494]     101c:  0002a023   sw zero,0(t0)
[  1649:  5497]     1020:  00428293   addi t0,t0,4 : t0(000218d0)
[  1650:  5501]     1024:  fe629ce3   bne t0,t1,101c (1024 - 0x8)
--------------------------------------------------------
[  1651:  5504]     101c:  0002a023   sw zero,0(t0)
[  1652:  5507]     1020:  00428293   addi t0,t0,4 : t0(000218d4)
[  1653:  5511]     1024:  fe629ce3   bne t0,t1,101c (1024 - 0x8)
--------------------------------------------------------
[  1654:  5514]     101c:  0002a023   sw zero,0(t0)
[  1655:  5517]     1020:  00428293   addi t0,t0,4 : t0(000218d8)
[  1656:  5521]     1024:  fe629ce3   bne t0,t1,101c (1024 - 0x8)
--------------------------------------------------------
[  1657:  5524]     101c:  0002a023   sw zero,0(t0)
[  1658:  5527]     1020:  00428293   addi t0,t0,4 : t0(000218dc)
[  1659:  5531]     1024:  fe629ce3   bne t0,t1,101c (1024 - 0x8)
--------------------------------------------------------
[  1660:  5534]     101c:  0002a023   sw zero,0(t0)
[  1661:  5537]     1020:  00428293   addi t0,t0,4 : t0(000218e0)
[  1662:  5541]     1024:  fe629ce3   bne t0,t1,101c (1024 - 0x8)
--------------------------------------------------------
[  1663:  5544]     101c:  0002a023   sw zero,0(t0)
[  1664:  5547]     1020:  00428293   addi t0,t0,4 : t0(000218e4)
[  1665:  5551]     1024:  fe629ce3   bne t0,t1,101c (1024 - 0x8)
--------------------------------------------------------
[  1666:  5554]     101c:  0002a023   sw zero,0(t0)
[  1667:  5557]     1020:  00428293   addi t0,t0,4 : t0(000218e8)
[  1668:  5561]     1024:  fe629ce3   bne t0,t1,101c (1024 - 0x8)
--------------------------------------------------------
[  1669:  5564]     101c:  0002a023   sw zero,0(t0)
[  1670:  5567]     1020:  00428293   addi t0,t0,4 : t0(000218ec)
[  1671:  5571]     1024:  fe629ce3   bne t0,t1,101c (1024 - 0x8)
--------------------------------------------------------
[  1672:  5574]     101c:  0002a023   sw zero,0(t0)
[  1673:  5577]     1020:  00428293   addi t0,t0,4 : t0(000218f0)
[  1674:  5581]     1024:  fe629ce3   bne t0,t1,101c (1024 - 0x8)
--------------------------------------------------------
[  1675:  5584]     101c:  0002a023   sw zero,0(t0)
[  1676:  5587]     1020:  00428293   addi t0,t0,4 : t0(000218f4)
[  1677:  5591]     1024:  fe629ce3   bne t0,t1,101c (1024 - 0x8)
--------------------------------------------------------
[  1678:  5594]     101c:  0002a023   sw zero,0(t0)
[  1679:  5597]     1020:  00428293   addi t0,t0,4 : t0(000218f8)
[  1680:  5601]     1024:  fe629ce3   bne t0,t1,101c (1024 - 0x8)
--------------------------------------------------------
[  1681:  5604]     101c:  0002a023   sw zero,0(t0)
[  1682:  5607]     1020:  00428293   addi t0,t0,4 : t0(000218fc)
[  1683:  5611]     1024:  fe629ce3   bne t0,t1,101c (1024 - 0x8)
--------------------------------------------------------
[  1684:  5614]     101c:  0002a023   sw zero,0(t0)
[  1685:  5617]     1020:  00428293   addi t0,t0,4 : t0(00021900)
[  1686:  5621]     1024:  fe629ce3   bne t0,t1,101c (1024 - 0x8)
--------------------------------------------------------
[  1687:  5624]     101c:  0002a023   sw zero,0(t0)
[  1688:  5627]     1020:  00428293   addi t0,t0,4 : t0(00021904)
[  1689:  5631]     1024:  fe629ce3   bne t0,t1,101c (1024 - 0x8)
--------------------------------------------------------
[  1690:  5634]     101c:  0002a023   sw zero,0(t0)
[  1691:  5637]     1020:  00428293   addi t0,t0,4 : t0(00021908)
[  1692:  5641]     1024:  fe629ce3   bne t0,t1,101c (1024 - 0x8)
--------------------------------------------------------
[  1693:  5644]     101c:  0002a023   sw zero,0(t0)
[  1694:  5647]     1020:  00428293   addi t0,t0,4 : t0(0002190c)
[  1695:  5651]     1024:  fe629ce3   bne t0,t1,101c (1024 - 0x8)
--------------------------------------------------------
[  1696:  5654]     101c:  0002a023   sw zero,0(t0)
[  1697:  5657]     1020:  00428293   addi t0,t0,4 : t0(00021910)
[  1698:  5661]     1024:  fe629ce3   bne t0,t1,101c (1024 - 0x8)
--------------------------------------------------------
[  1699:  5664]     101c:  0002a023   sw zero,0(t0)
[  1700:  5667]     1020:  00428293   addi t0,t0,4 : t0(00021914)
[  1701:  5671]     1024:  fe629ce3   bne t0,t1,101c (1024 - 0x8)
--------------------------------------------------------
[  1702:  5674]     101c:  0002a023   sw zero,0(t0)
[  1703:  5677]     1020:  00428293   addi t0,t0,4 : t0(00021918)
[  1704:  5681]     1024:  fe629ce3   bne t0,t1,101c (1024 - 0x8)
--------------------------------------------------------
[  1705:  5684]     101c:  0002a023   sw zero,0(t0)
[  1706:  5687]     1020:  00428293   addi t0,t0,4 : t0(0002191c)
[  1707:  5691]     1024:  fe629ce3   bne t0,t1,101c (1024 - 0x8)
--------------------------------------------------------
[  1708:  5694]     101c:  0002a023   sw zero,0(t0)
[  1709:  5697]     1020:  00428293   addi t0,t0,4 : t0(00021920)
[  1710:  5701]     1024:  fe629ce3   bne t0,t1,101c (1024 - 0x8)
--------------------------------------------------------
[  1711:  5704]     101c:  0002a023   sw zero,0(t0)
[  1712:  5707]     1020:  00428293   addi t0,t0,4 : t0(00021924)
[  1713:  5711]     1024:  fe629ce3   bne t0,t1,101c (1024 - 0x8)
--------------------------------------------------------
[  1714:  5714]     101c:  0002a023   sw zero,0(t0)
[  1715:  5717]     1020:  00428293   addi t0,t0,4 : t0(00021928)
[  1716:  5721]     1024:  fe629ce3   bne t0,t1,101c (1024 - 0x8)
--------------------------------------------------------
[  1717:  5724]     101c:  0002a023   sw zero,0(t0)
[  1718:  5727]     1020:  00428293   addi t0,t0,4 : t0(0002192c)
[  1719:  5731]     1024:  fe629ce3   bne t0,t1,101c (1024 - 0x8)
--------------------------------------------------------
[  1720:  5734]     101c:  0002a023   sw zero,0(t0)
[  1721:  5737]     1020:  00428293   addi t0,t0,4 : t0(00021930)
[  1722:  5741]     1024:  fe629ce3   bne t0,t1,101c (1024 - 0x8)
--------------------------------------------------------
[  1723:  5744]     101c:  0002a023   sw zero,0(t0)
[  1724:  5747]     1020:  00428293   addi t0,t0,4 : t0(00021934)
[  1725:  5751]     1024:  fe629ce3   bne t0,t1,101c (1024 - 0x8)
--------------------------------------------------------
[  1726:  5754]     101c:  0002a023   sw zero,0(t0)
[  1727:  5757]     1020:  00428293   addi t0,t0,4 : t0(00021938)
[  1728:  5761]     1024:  fe629ce3   bne t0,t1,101c (1024 - 0x8)
--------------------------------------------------------
[  1729:  5764]     101c:  0002a023   sw zero,0(t0)
[  1730:  5767]     1020:  00428293   addi t0,t0,4 : t0(0002193c)
[  1731:  5771]     1024:  fe629ce3   bne t0,t1,101c (1024 - 0x8)
--------------------------------------------------------
[  1732:  5774]     101c:  0002a023   sw zero,0(t0)
[  1733:  5777]     1020:  00428293   addi t0,t0,4 : t0(00021940)
[  1734:  5781]     1024:  fe629ce3   bne t0,t1,101c (1024 - 0x8)
--------------------------------------------------------
[  1735:  5784]     101c:  0002a023   sw zero,0(t0)
[  1736:  5787]     1020:  00428293   addi t0,t0,4 : t0(00021944)
[  1737:  5791]     1024:  fe629ce3   bne t0,t1,101c (1024 - 0x8)
--------------------------------------------------------
[  1738:  5794]     101c:  0002a023   sw zero,0(t0)
[  1739:  5797]     1020:  00428293   addi t0,t0,4 : t0(00021948)
[  1740:  5801]     1024:  fe629ce3   bne t0,t1,101c (1024 - 0x8)
--------------------------------------------------------
[  1741:  5804]     101c:  0002a023   sw zero,0(t0)
[  1742:  5807]     1020:  00428293   addi t0,t0,4 : t0(0002194c)
[  1743:  5811]     1024:  fe629ce3   bne t0,t1,101c (1024 - 0x8)
--------------------------------------------------------
[  1744:  5814]     101c:  0002a023   sw zero,0(t0)
[  1745:  5817]     1020:  00428293   addi t0,t0,4 : t0(00021950)
[  1746:  5821]     1024:  fe629ce3   bne t0,t1,101c (1024 - 0x8)
--------------------------------------------------------
[  1747:  5824]     101c:  0002a023   sw zero,0(t0)
[  1748:  5827]     1020:  00428293   addi t0,t0,4 : t0(00021954)
[  1749:  5831]     1024:  fe629ce3   bne t0,t1,101c (1024 - 0x8)
--------------------------------------------------------
[  1750:  5834]     101c:  0002a023   sw zero,0(t0)
[  1751:  5837]     1020:  00428293   addi t0,t0,4 : t0(00021958)
[  1752:  5841]     1024:  fe629ce3   bne t0,t1,101c (1024 - 0x8)
--------------------------------------------------------
[  1753:  5844]     101c:  0002a023   sw zero,0(t0)
[  1754:  5847]     1020:  00428293   addi t0,t0,4 : t0(0002195c)
[  1755:  5851]     1024:  fe629ce3   bne t0,t1,101c (1024 - 0x8)
--------------------------------------------------------
[  1756:  5854]     101c:  0002a023   sw zero,0(t0)
[  1757:  5857]     1020:  00428293   addi t0,t0,4 : t0(00021960)
[  1758:  5861]     1024:  fe629ce3   bne t0,t1,101c (1024 - 0x8)
--------------------------------------------------------
[  1759:  5864]     101c:  0002a023   sw zero,0(t0)
[  1760:  5867]     1020:  00428293   addi t0,t0,4 : t0(00021964)
[  1761:  5871]     1024:  fe629ce3   bne t0,t1,101c (1024 - 0x8)
--------------------------------------------------------
[  1762:  5874]     101c:  0002a023   sw zero,0(t0)
[  1763:  5877]     1020:  00428293   addi t0,t0,4 : t0(00021968)
[  1764:  5881]     1024:  fe629ce3   bne t0,t1,101c (1024 - 0x8)
--------------------------------------------------------
[  1765:  5884]     101c:  0002a023   sw zero,0(t0)
[  1766:  5887]     1020:  00428293   addi t0,t0,4 : t0(0002196c)
[  1767:  5891]     1024:  fe629ce3   bne t0,t1,101c (1024 - 0x8)
--------------------------------------------------------
[  1768:  5894]     101c:  0002a023   sw zero,0(t0)
[  1769:  5897]     1020:  00428293   addi t0,t0,4 : t0(00021970)
[  1770:  5901]     1024:  fe629ce3   bne t0,t1,101c (1024 - 0x8)
--------------------------------------------------------
[  1771:  5904]     101c:  0002a023   sw zero,0(t0)
[  1772:  5907]     1020:  00428293   addi t0,t0,4 : t0(00021974)
[  1773:  5911]     1024:  fe629ce3   bne t0,t1,101c (1024 - 0x8)
--------------------------------------------------------
[  1774:  5914]     101c:  0002a023   sw zero,0(t0)
[  1775:  5917]     1020:  00428293   addi t0,t0,4 : t0(00021978)
[  1776:  5921]     1024:  fe629ce3   bne t0,t1,101c (1024 - 0x8)
--------------------------------------------------------
[  1777:  5924]     101c:  0002a023   sw zero,0(t0)
[  1778:  5927]     1020:  00428293   addi t0,t0,4 : t0(0002197c)
[  1779:  5931]     1024:  fe629ce3   bne t0,t1,101c (1024 - 0x8)
--------------------------------------------------------
[  1780:  5934]     101c:  0002a023   sw zero,0(t0)
[  1781:  5937]     1020:  00428293   addi t0,t0,4 : t0(00021980)
[  1782:  5941]     1024:  fe629ce3   bne t0,t1,101c (1024 - 0x8)
--------------------------------------------------------
[  1783:  5944]     101c:  0002a023   sw zero,0(t0)
[  1784:  5947]     1020:  00428293   addi t0,t0,4 : t0(00021984)
[  1785:  5951]     1024:  fe629ce3   bne t0,t1,101c (1024 - 0x8)
--------------------------------------------------------
[  1786:  5954]     101c:  0002a023   sw zero,0(t0)
[  1787:  5957]     1020:  00428293   addi t0,t0,4 : t0(00021988)
[  1788:  5961]     1024:  fe629ce3   bne t0,t1,101c (1024 - 0x8)
--------------------------------------------------------
[  1789:  5964]     101c:  0002a023   sw zero,0(t0)
[  1790:  5967]     1020:  00428293   addi t0,t0,4 : t0(0002198c)
[  1791:  5971]     1024:  fe629ce3   bne t0,t1,101c (1024 - 0x8)
--------------------------------------------------------
[  1792:  5974]     101c:  0002a023   sw zero,0(t0)
[  1793:  5977]     1020:  00428293   addi t0,t0,4 : t0(00021990)
[  1794:  5981]     1024:  fe629ce3   bne t0,t1,101c (1024 - 0x8)
--------------------------------------------------------
[  1795:  5984]     101c:  0002a023   sw zero,0(t0)
[  1796:  5987]     1020:  00428293   addi t0,t0,4 : t0(00021994)
[  1797:  5991]     1024:  fe629ce3   bne t0,t1,101c (1024 - 0x8)
--------------------------------------------------------
[  1798:  5994]     101c:  0002a023   sw zero,0(t0)
[  1799:  5997]     1020:  00428293   addi t0,t0,4 : t0(00021998)
[  1800:  6001]     1024:  fe629ce3   bne t0,t1,101c (1024 - 0x8)
--------------------------------------------------------
[  1801:  6004]     101c:  0002a023   sw zero,0(t0)
[  1802:  6007]     1020:  00428293   addi t0,t0,4 : t0(0002199c)
[  1803:  6011]     1024:  fe629ce3   bne t0,t1,101c (1024 - 0x8)
--------------------------------------------------------
[  1804:  6014]     101c:  0002a023   sw zero,0(t0)
[  1805:  6017]     1020:  00428293   addi t0,t0,4 : t0(000219a0)
[  1806:  6021]     1024:  fe629ce3   bne t0,t1,101c (1024 - 0x8)
--------------------------------------------------------
[  1807:  6024]     101c:  0002a023   sw zero,0(t0)
[  1808:  6027]     1020:  00428293   addi t0,t0,4 : t0(000219a4)
[  1809:  6031]     1024:  fe629ce3   bne t0,t1,101c (1024 - 0x8)
--------------------------------------------------------
[  1810:  6034]     101c:  0002a023   sw zero,0(t0)
[  1811:  6037]     1020:  00428293   addi t0,t0,4 : t0(000219a8)
[  1812:  6041]     1024:  fe629ce3   bne t0,t1,101c (1024 - 0x8)
--------------------------------------------------------
[  1813:  6044]     101c:  0002a023   sw zero,0(t0)
[  1814:  6047]     1020:  00428293   addi t0,t0,4 : t0(000219ac)
[  1815:  6051]     1024:  fe629ce3   bne t0,t1,101c (1024 - 0x8)
--------------------------------------------------------
[  1816:  6054]     101c:  0002a023   sw zero,0(t0)
[  1817:  6057]     1020:  00428293   addi t0,t0,4 : t0(000219b0)
[  1818:  6061]     1024:  fe629ce3   bne t0,t1,101c (1024 - 0x8)
--------------------------------------------------------
[  1819:  6064]     101c:  0002a023   sw zero,0(t0)
[  1820:  6067]     1020:  00428293   addi t0,t0,4 : t0(000219b4)
[  1821:  6071]     1024:  fe629ce3   bne t0,t1,101c (1024 - 0x8)
--------------------------------------------------------
[  1822:  6074]     101c:  0002a023   sw zero,0(t0)
[  1823:  6077]     1020:  00428293   addi t0,t0,4 : t0(000219b8)
[  1824:  6081]     1024:  fe629ce3   bne t0,t1,101c (1024 - 0x8)
--------------------------------------------------------
[  1825:  6084]     101c:  0002a023   sw zero,0(t0)
[  1826:  6087]     1020:  00428293   addi t0,t0,4 : t0(000219bc)
[  1827:  6091]     1024:  fe629ce3   bne t0,t1,101c (1024 - 0x8)
--------------------------------------------------------
[  1828:  6094]     101c:  0002a023   sw zero,0(t0)
[  1829:  6097]     1020:  00428293   addi t0,t0,4 : t0(000219c0)
[  1830:  6101]     1024:  fe629ce3   bne t0,t1,101c (1024 - 0x8)
--------------------------------------------------------
[  1831:  6104]     101c:  0002a023   sw zero,0(t0)
[  1832:  6107]     1020:  00428293   addi t0,t0,4 : t0(000219c4)
[  1833:  6111]     1024:  fe629ce3   bne t0,t1,101c (1024 - 0x8)
--------------------------------------------------------
[  1834:  6114]     101c:  0002a023   sw zero,0(t0)
[  1835:  6117]     1020:  00428293   addi t0,t0,4 : t0(000219c8)
[  1836:  6121]     1024:  fe629ce3   bne t0,t1,101c (1024 - 0x8)
--------------------------------------------------------
[  1837:  6124]     101c:  0002a023   sw zero,0(t0)
[  1838:  6127]     1020:  00428293   addi t0,t0,4 : t0(000219cc)
[  1839:  6131]     1024:  fe629ce3   bne t0,t1,101c (1024 - 0x8)
--------------------------------------------------------
[  1840:  6134]     101c:  0002a023   sw zero,0(t0)
[  1841:  6137]     1020:  00428293   addi t0,t0,4 : t0(000219d0)
[  1842:  6141]     1024:  fe629ce3   bne t0,t1,101c (1024 - 0x8)
--------------------------------------------------------
[  1843:  6144]     101c:  0002a023   sw zero,0(t0)
[  1844:  6147]     1020:  00428293   addi t0,t0,4 : t0(000219d4)
[  1845:  6151]     1024:  fe629ce3   bne t0,t1,101c (1024 - 0x8)
--------------------------------------------------------
[  1846:  6154]     101c:  0002a023   sw zero,0(t0)
[  1847:  6157]     1020:  00428293   addi t0,t0,4 : t0(000219d8)
[  1848:  6161]     1024:  fe629ce3   bne t0,t1,101c (1024 - 0x8)
--------------------------------------------------------
[  1849:  6164]     101c:  0002a023   sw zero,0(t0)
[  1850:  6167]     1020:  00428293   addi t0,t0,4 : t0(000219dc)
[  1851:  6171]     1024:  fe629ce3   bne t0,t1,101c (1024 - 0x8)
--------------------------------------------------------
[  1852:  6174]     101c:  0002a023   sw zero,0(t0)
[  1853:  6177]     1020:  00428293   addi t0,t0,4 : t0(000219e0)
[  1854:  6181]     1024:  fe629ce3   bne t0,t1,101c (1024 - 0x8)
--------------------------------------------------------
[  1855:  6184]     101c:  0002a023   sw zero,0(t0)
[  1856:  6187]     1020:  00428293   addi t0,t0,4 : t0(000219e4)
[  1857:  6191]     1024:  fe629ce3   bne t0,t1,101c (1024 - 0x8)
--------------------------------------------------------
[  1858:  6194]     101c:  0002a023   sw zero,0(t0)
[  1859:  6197]     1020:  00428293   addi t0,t0,4 : t0(000219e8)
[  1860:  6201]     1024:  fe629ce3   bne t0,t1,101c (1024 - 0x8)
--------------------------------------------------------
[  1861:  6204]     101c:  0002a023   sw zero,0(t0)
[  1862:  6207]     1020:  00428293   addi t0,t0,4 : t0(000219ec)
[  1863:  6211]     1024:  fe629ce3   bne t0,t1,101c (1024 - 0x8)
--------------------------------------------------------
[  1864:  6214]     101c:  0002a023   sw zero,0(t0)
[  1865:  6217]     1020:  00428293   addi t0,t0,4 : t0(000219f0)
[  1866:  6221]     1024:  fe629ce3   bne t0,t1,101c (1024 - 0x8)
--------------------------------------------------------
[  1867:  6224]     101c:  0002a023   sw zero,0(t0)
[  1868:  6227]     1020:  00428293   addi t0,t0,4 : t0(000219f4)
[  1869:  6231]     1024:  fe629ce3   bne t0,t1,101c (1024 - 0x8)
--------------------------------------------------------
[  1870:  6234]     101c:  0002a023   sw zero,0(t0)
[  1871:  6237]     1020:  00428293   addi t0,t0,4 : t0(000219f8)
[  1872:  6241]     1024:  fe629ce3   bne t0,t1,101c (1024 - 0x8)
--------------------------------------------------------
[  1873:  6244]     101c:  0002a023   sw zero,0(t0)
[  1874:  6247]     1020:  00428293   addi t0,t0,4 : t0(000219fc)
[  1875:  6251]     1024:  fe629ce3   bne t0,t1,101c (1024 - 0x8)
--------------------------------------------------------
[  1876:  6254]     101c:  0002a023   sw zero,0(t0)
[  1877:  6257]     1020:  00428293   addi t0,t0,4 : t0(00021a00)
[  1878:  6261]     1024:  fe629ce3   bne t0,t1,101c (1024 - 0x8)
--------------------------------------------------------
[  1879:  6264]     101c:  0002a023   sw zero,0(t0)
[  1880:  6267]     1020:  00428293   addi t0,t0,4 : t0(00021a04)
[  1881:  6271]     1024:  fe629ce3   bne t0,t1,101c (1024 - 0x8)
--------------------------------------------------------
[  1882:  6274]     101c:  0002a023   sw zero,0(t0)
[  1883:  6277]     1020:  00428293   addi t0,t0,4 : t0(00021a08)
[  1884:  6281]     1024:  fe629ce3   bne t0,t1,101c (1024 - 0x8)
--------------------------------------------------------
[  1885:  6284]     101c:  0002a023   sw zero,0(t0)
[  1886:  6287]     1020:  00428293   addi t0,t0,4 : t0(00021a0c)
[  1887:  6291]     1024:  fe629ce3   bne t0,t1,101c (1024 - 0x8)
--------------------------------------------------------
[  1888:  6294]     101c:  0002a023   sw zero,0(t0)
[  1889:  6297]     1020:  00428293   addi t0,t0,4 : t0(00021a10)
[  1890:  6301]     1024:  fe629ce3   bne t0,t1,101c (1024 - 0x8)
--------------------------------------------------------
[  1891:  6304]     101c:  0002a023   sw zero,0(t0)
[  1892:  6307]     1020:  00428293   addi t0,t0,4 : t0(00021a14)
[  1893:  6311]     1024:  fe629ce3   bne t0,t1,101c (1024 - 0x8)
--------------------------------------------------------
[  1894:  6314]     101c:  0002a023   sw zero,0(t0)
[  1895:  6317]     1020:  00428293   addi t0,t0,4 : t0(00021a18)
[  1896:  6321]     1024:  fe629ce3   bne t0,t1,101c (1024 - 0x8)
--------------------------------------------------------
[  1897:  6324]     101c:  0002a023   sw zero,0(t0)
[  1898:  6327]     1020:  00428293   addi t0,t0,4 : t0(00021a1c)
[  1899:  6331]     1024:  fe629ce3   bne t0,t1,101c (1024 - 0x8)
--------------------------------------------------------
[  1900:  6334]     101c:  0002a023   sw zero,0(t0)
[  1901:  6337]     1020:  00428293   addi t0,t0,4 : t0(00021a20)
[  1902:  6341]     1024:  fe629ce3   bne t0,t1,101c (1024 - 0x8)
--------------------------------------------------------
[  1903:  6344]     101c:  0002a023   sw zero,0(t0)
[  1904:  6347]     1020:  00428293   addi t0,t0,4 : t0(00021a24)
[  1905:  6351]     1024:  fe629ce3   bne t0,t1,101c (1024 - 0x8)
--------------------------------------------------------
[  1906:  6354]     101c:  0002a023   sw zero,0(t0)
[  1907:  6357]     1020:  00428293   addi t0,t0,4 : t0(00021a28)
[  1908:  6361]     1024:  fe629ce3   bne t0,t1,101c (1024 - 0x8)
--------------------------------------------------------
[  1909:  6364]     101c:  0002a023   sw zero,0(t0)
[  1910:  6367]     1020:  00428293   addi t0,t0,4 : t0(00021a2c)
[  1911:  6371]     1024:  fe629ce3   bne t0,t1,101c (1024 - 0x8)
--------------------------------------------------------
[  1912:  6374]     101c:  0002a023   sw zero,0(t0)
[  1913:  6377]     1020:  00428293   addi t0,t0,4 : t0(00021a30)
[  1914:  6381]     1024:  fe629ce3   bne t0,t1,101c (1024 - 0x8)
--------------------------------------------------------
[  1915:  6384]     101c:  0002a023   sw zero,0(t0)
[  1916:  6387]     1020:  00428293   addi t0,t0,4 : t0(00021a34)
[  1917:  6391]     1024:  fe629ce3   bne t0,t1,101c (1024 - 0x8)
--------------------------------------------------------
[  1918:  6394]     101c:  0002a023   sw zero,0(t0)
[  1919:  6397]     1020:  00428293   addi t0,t0,4 : t0(00021a38)
[  1920:  6401]     1024:  fe629ce3   bne t0,t1,101c (1024 - 0x8)
--------------------------------------------------------
[  1921:  6404]     101c:  0002a023   sw zero,0(t0)
[  1922:  6407]     1020:  00428293   addi t0,t0,4 : t0(00021a3c)
[  1923:  6411]     1024:  fe629ce3   bne t0,t1,101c (1024 - 0x8)
--------------------------------------------------------
[  1924:  6414]     101c:  0002a023   sw zero,0(t0)
[  1925:  6417]     1020:  00428293   addi t0,t0,4 : t0(00021a40)
[  1926:  6421]     1024:  fe629ce3   bne t0,t1,101c (1024 - 0x8)
--------------------------------------------------------
[  1927:  6424]     101c:  0002a023   sw zero,0(t0)
[  1928:  6427]     1020:  00428293   addi t0,t0,4 : t0(00021a44)
[  1929:  6431]     1024:  fe629ce3   bne t0,t1,101c (1024 - 0x8)
--------------------------------------------------------
[  1930:  6434]     101c:  0002a023   sw zero,0(t0)
[  1931:  6437]     1020:  00428293   addi t0,t0,4 : t0(00021a48)
[  1932:  6441]     1024:  fe629ce3   bne t0,t1,101c (1024 - 0x8)
--------------------------------------------------------
[  1933:  6444]     101c:  0002a023   sw zero,0(t0)
[  1934:  6447]     1020:  00428293   addi t0,t0,4 : t0(00021a4c)
[  1935:  6451]     1024:  fe629ce3   bne t0,t1,101c (1024 - 0x8)
--------------------------------------------------------
[  1936:  6454]     101c:  0002a023   sw zero,0(t0)
[  1937:  6457]     1020:  00428293   addi t0,t0,4 : t0(00021a50)
[  1938:  6461]     1024:  fe629ce3   bne t0,t1,101c (1024 - 0x8)
--------------------------------------------------------
[  1939:  6464]     101c:  0002a023   sw zero,0(t0)
[  1940:  6467]     1020:  00428293   addi t0,t0,4 : t0(00021a54)
[  1941:  6471]     1024:  fe629ce3   bne t0,t1,101c (1024 - 0x8)
--------------------------------------------------------
[  1942:  6474]     101c:  0002a023   sw zero,0(t0)
[  1943:  6477]     1020:  00428293   addi t0,t0,4 : t0(00021a58)
[  1944:  6481]     1024:  fe629ce3   bne t0,t1,101c (1024 - 0x8)
--------------------------------------------------------
[  1945:  6484]     101c:  0002a023   sw zero,0(t0)
[  1946:  6487]     1020:  00428293   addi t0,t0,4 : t0(00021a5c)
[  1947:  6491]     1024:  fe629ce3   bne t0,t1,101c (1024 - 0x8)
--------------------------------------------------------
[  1948:  6494]     101c:  0002a023   sw zero,0(t0)
[  1949:  6497]     1020:  00428293   addi t0,t0,4 : t0(00021a60)
[  1950:  6501]     1024:  fe629ce3   bne t0,t1,101c (1024 - 0x8)
--------------------------------------------------------
[  1951:  6504]     101c:  0002a023   sw zero,0(t0)
[  1952:  6507]     1020:  00428293   addi t0,t0,4 : t0(00021a64)
[  1953:  6511]     1024:  fe629ce3   bne t0,t1,101c (1024 - 0x8)
--------------------------------------------------------
[  1954:  6514]     101c:  0002a023   sw zero,0(t0)
[  1955:  6517]     1020:  00428293   addi t0,t0,4 : t0(00021a68)
[  1956:  6521]     1024:  fe629ce3   bne t0,t1,101c (1024 - 0x8)
--------------------------------------------------------
[  1957:  6524]     101c:  0002a023   sw zero,0(t0)
[  1958:  6527]     1020:  00428293   addi t0,t0,4 : t0(00021a6c)
[  1959:  6531]     1024:  fe629ce3   bne t0,t1,101c (1024 - 0x8)
--------------------------------------------------------
[  1960:  6534]     101c:  0002a023   sw zero,0(t0)
[  1961:  6537]     1020:  00428293   addi t0,t0,4 : t0(00021a70)
[  1962:  6541]     1024:  fe629ce3   bne t0,t1,101c (1024 - 0x8)
--------------------------------------------------------
[  1963:  6544]     101c:  0002a023   sw zero,0(t0)
[  1964:  6547]     1020:  00428293   addi t0,t0,4 : t0(00021a74)
[  1965:  6551]     1024:  fe629ce3   bne t0,t1,101c (1024 - 0x8)
--------------------------------------------------------
[  1966:  6554]     101c:  0002a023   sw zero,0(t0)
[  1967:  6557]     1020:  00428293   addi t0,t0,4 : t0(00021a78)
[  1968:  6561]     1024:  fe629ce3   bne t0,t1,101c (1024 - 0x8)
--------------------------------------------------------
[  1969:  6564]     101c:  0002a023   sw zero,0(t0)
[  1970:  6567]     1020:  00428293   addi t0,t0,4 : t0(00021a7c)
[  1971:  6571]     1024:  fe629ce3   bne t0,t1,101c (1024 - 0x8)
--------------------------------------------------------
[  1972:  6574]     101c:  0002a023   sw zero,0(t0)
[  1973:  6577]     1020:  00428293   addi t0,t0,4 : t0(00021a80)
[  1974:  6581]     1024:  fe629ce3   bne t0,t1,101c (1024 - 0x8)
--------------------------------------------------------
[  1975:  6584]     101c:  0002a023   sw zero,0(t0)
[  1976:  6587]     1020:  00428293   addi t0,t0,4 : t0(00021a84)
[  1977:  6591]     1024:  fe629ce3   bne t0,t1,101c (1024 - 0x8)
--------------------------------------------------------
[  1978:  6594]     101c:  0002a023   sw zero,0(t0)
[  1979:  6597]     1020:  00428293   addi t0,t0,4 : t0(00021a88)
[  1980:  6601]     1024:  fe629ce3   bne t0,t1,101c (1024 - 0x8)
--------------------------------------------------------
[  1981:  6604]     101c:  0002a023   sw zero,0(t0)
[  1982:  6607]     1020:  00428293   addi t0,t0,4 : t0(00021a8c)
[  1983:  6611]     1024:  fe629ce3   bne t0,t1,101c (1024 - 0x8)
--------------------------------------------------------
[  1984:  6614]     101c:  0002a023   sw zero,0(t0)
[  1985:  6617]     1020:  00428293   addi t0,t0,4 : t0(00021a90)
[  1986:  6621]     1024:  fe629ce3   bne t0,t1,101c (1024 - 0x8)
--------------------------------------------------------
[  1987:  6624]     101c:  0002a023   sw zero,0(t0)
[  1988:  6627]     1020:  00428293   addi t0,t0,4 : t0(00021a94)
[  1989:  6631]     1024:  fe629ce3   bne t0,t1,101c (1024 - 0x8)
--------------------------------------------------------
[  1990:  6634]     101c:  0002a023   sw zero,0(t0)
[  1991:  6637]     1020:  00428293   addi t0,t0,4 : t0(00021a98)
[  1992:  6641]     1024:  fe629ce3   bne t0,t1,101c (1024 - 0x8)
--------------------------------------------------------
[  1993:  6644]     101c:  0002a023   sw zero,0(t0)
[  1994:  6647]     1020:  00428293   addi t0,t0,4 : t0(00021a9c)
[  1995:  6651]     1024:  fe629ce3   bne t0,t1,101c (1024 - 0x8)
--------------------------------------------------------
[  1996:  6654]     101c:  0002a023   sw zero,0(t0)
[  1997:  6657]     1020:  00428293   addi t0,t0,4 : t0(00021aa0)
[  1998:  6661]     1024:  fe629ce3   bne t0,t1,101c (1024 - 0x8)
--------------------------------------------------------
[  1999:  6664]     101c:  0002a023   sw zero,0(t0)
[  2000:  6667]     1020:  00428293   addi t0,t0,4 : t0(00021aa4)
[  2001:  6671]     1024:  fe629ce3   bne t0,t1,101c (1024 - 0x8)
--------------------------------------------------------
[  2002:  6674]     101c:  0002a023   sw zero,0(t0)
[  2003:  6677]     1020:  00428293   addi t0,t0,4 : t0(00021aa8)
[  2004:  6681]     1024:  fe629ce3   bne t0,t1,101c (1024 - 0x8)
--------------------------------------------------------
[  2005:  6684]     101c:  0002a023   sw zero,0(t0)
[  2006:  6687]     1020:  00428293   addi t0,t0,4 : t0(00021aac)
[  2007:  6691]     1024:  fe629ce3   bne t0,t1,101c (1024 - 0x8)
--------------------------------------------------------
[  2008:  6694]     101c:  0002a023   sw zero,0(t0)
[  2009:  6697]     1020:  00428293   addi t0,t0,4 : t0(00021ab0)
[  2010:  6701]     1024:  fe629ce3   bne t0,t1,101c (1024 - 0x8)
--------------------------------------------------------
[  2011:  6704]     101c:  0002a023   sw zero,0(t0)
[  2012:  6707]     1020:  00428293   addi t0,t0,4 : t0(00021ab4)
[  2013:  6711]     1024:  fe629ce3   bne t0,t1,101c (1024 - 0x8)
--------------------------------------------------------
[  2014:  6714]     101c:  0002a023   sw zero,0(t0)
[  2015:  6717]     1020:  00428293   addi t0,t0,4 : t0(00021ab8)
[  2016:  6721]     1024:  fe629ce3   bne t0,t1,101c (1024 - 0x8)
--------------------------------------------------------
[  2017:  6724]     101c:  0002a023   sw zero,0(t0)
[  2018:  6727]     1020:  00428293   addi t0,t0,4 : t0(00021abc)
[  2019:  6731]     1024:  fe629ce3   bne t0,t1,101c (1024 - 0x8)
--------------------------------------------------------
[  2020:  6734]     101c:  0002a023   sw zero,0(t0)
[  2021:  6737]     1020:  00428293   addi t0,t0,4 : t0(00021ac0)
[  2022:  6741]     1024:  fe629ce3   bne t0,t1,101c (1024 - 0x8)
--------------------------------------------------------
[  2023:  6744]     101c:  0002a023   sw zero,0(t0)
[  2024:  6747]     1020:  00428293   addi t0,t0,4 : t0(00021ac4)
[  2025:  6751]     1024:  fe629ce3   bne t0,t1,101c (1024 - 0x8)
--------------------------------------------------------
[  2026:  6754]     101c:  0002a023   sw zero,0(t0)
[  2027:  6757]     1020:  00428293   addi t0,t0,4 : t0(00021ac8)
[  2028:  6761]     1024:  fe629ce3   bne t0,t1,101c (1024 - 0x8)
--------------------------------------------------------
[  2029:  6764]     101c:  0002a023   sw zero,0(t0)
[  2030:  6767]     1020:  00428293   addi t0,t0,4 : t0(00021acc)
[  2031:  6771]     1024:  fe629ce3   bne t0,t1,101c (1024 - 0x8)
--------------------------------------------------------
[  2032:  6774]     101c:  0002a023   sw zero,0(t0)
[  2033:  6777]     1020:  00428293   addi t0,t0,4 : t0(00021ad0)
[  2034:  6781]     1024:  fe629ce3   bne t0,t1,101c (1024 - 0x8)
--------------------------------------------------------
[  2035:  6784]     101c:  0002a023   sw zero,0(t0)
[  2036:  6787]     1020:  00428293   addi t0,t0,4 : t0(00021ad4)
[  2037:  6791]     1024:  fe629ce3   bne t0,t1,101c (1024 - 0x8)
--------------------------------------------------------
[  2038:  6794]     101c:  0002a023   sw zero,0(t0)
[  2039:  6797]     1020:  00428293   addi t0,t0,4 : t0(00021ad8)
[  2040:  6801]     1024:  fe629ce3   bne t0,t1,101c (1024 - 0x8)
--------------------------------------------------------
[  2041:  6804]     101c:  0002a023   sw zero,0(t0)
[  2042:  6807]     1020:  00428293   addi t0,t0,4 : t0(00021adc)
[  2043:  6811]     1024:  fe629ce3   bne t0,t1,101c (1024 - 0x8)
--------------------------------------------------------
[  2044:  6814]     101c:  0002a023   sw zero,0(t0)
[  2045:  6817]     1020:  00428293   addi t0,t0,4 : t0(00021ae0)
[  2046:  6821]     1024:  fe629ce3   bne t0,t1,101c (1024 - 0x8)
--------------------------------------------------------
[  2047:  6824]     101c:  0002a023   sw zero,0(t0)
[  2048:  6827]     1020:  00428293   addi t0,t0,4 : t0(00021ae4)
[  2049:  6831]     1024:  fe629ce3   bne t0,t1,101c (1024 - 0x8)
--------------------------------------------------------
[  2050:  6834]     101c:  0002a023   sw zero,0(t0)
[  2051:  6837]     1020:  00428293   addi t0,t0,4 : t0(00021ae8)
[  2052:  6841]     1024:  fe629ce3   bne t0,t1,101c (1024 - 0x8)
--------------------------------------------------------
[  2053:  6844]     101c:  0002a023   sw zero,0(t0)
[  2054:  6847]     1020:  00428293   addi t0,t0,4 : t0(00021aec)
[  2055:  6851]     1024:  fe629ce3   bne t0,t1,101c (1024 - 0x8)
--------------------------------------------------------
[  2056:  6854]     101c:  0002a023   sw zero,0(t0)
[  2057:  6857]     1020:  00428293   addi t0,t0,4 : t0(00021af0)
[  2058:  6861]     1024:  fe629ce3   bne t0,t1,101c (1024 - 0x8)
--------------------------------------------------------
[  2059:  6864]     101c:  0002a023   sw zero,0(t0)
[  2060:  6867]     1020:  00428293   addi t0,t0,4 : t0(00021af4)
[  2061:  6871]     1024:  fe629ce3   bne t0,t1,101c (1024 - 0x8)
--------------------------------------------------------
[  2062:  6874]     101c:  0002a023   sw zero,0(t0)
[  2063:  6877]     1020:  00428293   addi t0,t0,4 : t0(00021af8)
[  2064:  6881]     1024:  fe629ce3   bne t0,t1,101c (1024 - 0x8)
--------------------------------------------------------
[  2065:  6884]     101c:  0002a023   sw zero,0(t0)
[  2066:  6887]     1020:  00428293   addi t0,t0,4 : t0(00021afc)
[  2067:  6891]     1024:  fe629ce3   bne t0,t1,101c (1024 - 0x8)
--------------------------------------------------------
[  2068:  6894]     101c:  0002a023   sw zero,0(t0)
[  2069:  6897]     1020:  00428293   addi t0,t0,4 : t0(00021b00)
[  2070:  6901]     1024:  fe629ce3   bne t0,t1,101c (1024 - 0x8)
--------------------------------------------------------
[  2071:  6904]     101c:  0002a023   sw zero,0(t0)
[  2072:  6907]     1020:  00428293   addi t0,t0,4 : t0(00021b04)
[  2073:  6911]     1024:  fe629ce3   bne t0,t1,101c (1024 - 0x8)
--------------------------------------------------------
[  2074:  6914]     101c:  0002a023   sw zero,0(t0)
[  2075:  6917]     1020:  00428293   addi t0,t0,4 : t0(00021b08)
[  2076:  6921]     1024:  fe629ce3   bne t0,t1,101c (1024 - 0x8)
--------------------------------------------------------
[  2077:  6924]     101c:  0002a023   sw zero,0(t0)
[  2078:  6927]     1020:  00428293   addi t0,t0,4 : t0(00021b0c)
[  2079:  6931]     1024:  fe629ce3   bne t0,t1,101c (1024 - 0x8)
--------------------------------------------------------
[  2080:  6934]     101c:  0002a023   sw zero,0(t0)
[  2081:  6937]     1020:  00428293   addi t0,t0,4 : t0(00021b10)
[  2082:  6941]     1024:  fe629ce3   bne t0,t1,101c (1024 - 0x8)
--------------------------------------------------------
[  2083:  6944]     101c:  0002a023   sw zero,0(t0)
[  2084:  6947]     1020:  00428293   addi t0,t0,4 : t0(00021b14)
[  2085:  6951]     1024:  fe629ce3   bne t0,t1,101c (1024 - 0x8)
--------------------------------------------------------
[  2086:  6954]     101c:  0002a023   sw zero,0(t0)
[  2087:  6957]     1020:  00428293   addi t0,t0,4 : t0(00021b18)
[  2088:  6961]     1024:  fe629ce3   bne t0,t1,101c (1024 - 0x8)
--------------------------------------------------------
[  2089:  6964]     101c:  0002a023   sw zero,0(t0)
[  2090:  6967]     1020:  00428293   addi t0,t0,4 : t0(00021b1c)
[  2091:  6971]     1024:  fe629ce3   bne t0,t1,101c (1024 - 0x8)
--------------------------------------------------------
[  2092:  6974]     101c:  0002a023   sw zero,0(t0)
[  2093:  6977]     1020:  00428293   addi t0,t0,4 : t0(00021b20)
[  2094:  6981]     1024:  fe629ce3   bne t0,t1,101c (1024 - 0x8)
--------------------------------------------------------
[  2095:  6984]     101c:  0002a023   sw zero,0(t0)
[  2096:  6987]     1020:  00428293   addi t0,t0,4 : t0(00021b24)
[  2097:  6991]     1024:  fe629ce3   bne t0,t1,101c (1024 - 0x8)
--------------------------------------------------------
[  2098:  6994]     101c:  0002a023   sw zero,0(t0)
[  2099:  6997]     1020:  00428293   addi t0,t0,4 : t0(00021b28)
[  2100:  7001]     1024:  fe629ce3   bne t0,t1,101c (1024 - 0x8)
--------------------------------------------------------
[  2101:  7004]     101c:  0002a023   sw zero,0(t0)
[  2102:  7007]     1020:  00428293   addi t0,t0,4 : t0(00021b2c)
[  2103:  7011]     1024:  fe629ce3   bne t0,t1,101c (1024 - 0x8)
--------------------------------------------------------
[  2104:  7014]     101c:  0002a023   sw zero,0(t0)
[  2105:  7017]     1020:  00428293   addi t0,t0,4 : t0(00021b30)
[  2106:  7021]     1024:  fe629ce3   bne t0,t1,101c (1024 - 0x8)
--------------------------------------------------------
[  2107:  7024]     101c:  0002a023   sw zero,0(t0)
[  2108:  7027]     1020:  00428293   addi t0,t0,4 : t0(00021b34)
[  2109:  7031]     1024:  fe629ce3   bne t0,t1,101c (1024 - 0x8)
--------------------------------------------------------
[  2110:  7034]     101c:  0002a023   sw zero,0(t0)
[  2111:  7037]     1020:  00428293   addi t0,t0,4 : t0(00021b38)
[  2112:  7041]     1024:  fe629ce3   bne t0,t1,101c (1024 - 0x8)
--------------------------------------------------------
[  2113:  7044]     101c:  0002a023   sw zero,0(t0)
[  2114:  7047]     1020:  00428293   addi t0,t0,4 : t0(00021b3c)
[  2115:  7051]     1024:  fe629ce3   bne t0,t1,101c (1024 - 0x8)
--------------------------------------------------------
[  2116:  7054]     101c:  0002a023   sw zero,0(t0)
[  2117:  7057]     1020:  00428293   addi t0,t0,4 : t0(00021b40)
[  2118:  7061]     1024:  fe629ce3   bne t0,t1,101c (1024 - 0x8)
--------------------------------------------------------
[  2119:  7064]     101c:  0002a023   sw zero,0(t0)
[  2120:  7067]     1020:  00428293   addi t0,t0,4 : t0(00021b44)
[  2121:  7071]     1024:  fe629ce3   bne t0,t1,101c (1024 - 0x8)
--------------------------------------------------------
[  2122:  7074]     101c:  0002a023   sw zero,0(t0)
[  2123:  7077]     1020:  00428293   addi t0,t0,4 : t0(00021b48)
[  2124:  7081]     1024:  fe629ce3   bne t0,t1,101c (1024 - 0x8)
--------------------------------------------------------
[  2125:  7084]     101c:  0002a023   sw zero,0(t0)
[  2126:  7087]     1020:  00428293   addi t0,t0,4 : t0(00021b4c)
[  2127:  7091]     1024:  fe629ce3   bne t0,t1,101c (1024 - 0x8)
--------------------------------------------------------
[  2128:  7094]     101c:  0002a023   sw zero,0(t0)
[  2129:  7097]     1020:  00428293   addi t0,t0,4 : t0(00021b50)
[  2130:  7101]     1024:  fe629ce3   bne t0,t1,101c (1024 - 0x8)
--------------------------------------------------------
[  2131:  7104]     101c:  0002a023   sw zero,0(t0)
[  2132:  7107]     1020:  00428293   addi t0,t0,4 : t0(00021b54)
[  2133:  7111]     1024:  fe629ce3   bne t0,t1,101c (1024 - 0x8)
--------------------------------------------------------
[  2134:  7114]     101c:  0002a023   sw zero,0(t0)
[  2135:  7117]     1020:  00428293   addi t0,t0,4 : t0(00021b58)
[  2136:  7121]     1024:  fe629ce3   bne t0,t1,101c (1024 - 0x8)
--------------------------------------------------------
[  2137:  7124]     101c:  0002a023   sw zero,0(t0)
[  2138:  7127]     1020:  00428293   addi t0,t0,4 : t0(00021b5c)
[  2139:  7131]     1024:  fe629ce3   bne t0,t1,101c (1024 - 0x8)
--------------------------------------------------------
[  2140:  7134]     101c:  0002a023   sw zero,0(t0)
[  2141:  7137]     1020:  00428293   addi t0,t0,4 : t0(00021b60)
[  2142:  7141]     1024:  fe629ce3   bne t0,t1,101c (1024 - 0x8)
--------------------------------------------------------
[  2143:  7144]     101c:  0002a023   sw zero,0(t0)
[  2144:  7147]     1020:  00428293   addi t0,t0,4 : t0(00021b64)
[  2145:  7151]     1024:  fe629ce3   bne t0,t1,101c (1024 - 0x8)
--------------------------------------------------------
[  2146:  7154]     101c:  0002a023   sw zero,0(t0)
[  2147:  7157]     1020:  00428293   addi t0,t0,4 : t0(00021b68)
[  2148:  7161]     1024:  fe629ce3   bne t0,t1,101c (1024 - 0x8)
--------------------------------------------------------
[  2149:  7164]     101c:  0002a023   sw zero,0(t0)
[  2150:  7167]     1020:  00428293   addi t0,t0,4 : t0(00021b6c)
[  2151:  7171]     1024:  fe629ce3   bne t0,t1,101c (1024 - 0x8)
--------------------------------------------------------
[  2152:  7174]     101c:  0002a023   sw zero,0(t0)
[  2153:  7177]     1020:  00428293   addi t0,t0,4 : t0(00021b70)
[  2154:  7181]     1024:  fe629ce3   bne t0,t1,101c (1024 - 0x8)
--------------------------------------------------------
[  2155:  7184]     101c:  0002a023   sw zero,0(t0)
[  2156:  7187]     1020:  00428293   addi t0,t0,4 : t0(00021b74)
[  2157:  7191]     1024:  fe629ce3   bne t0,t1,101c (1024 - 0x8)
--------------------------------------------------------
[  2158:  7194]     101c:  0002a023   sw zero,0(t0)
[  2159:  7197]     1020:  00428293   addi t0,t0,4 : t0(00021b78)
[  2160:  7201]     1024:  fe629ce3   bne t0,t1,101c (1024 - 0x8)
--------------------------------------------------------
[  2161:  7204]     101c:  0002a023   sw zero,0(t0)
[  2162:  7207]     1020:  00428293   addi t0,t0,4 : t0(00021b7c)
[  2163:  7211]     1024:  fe629ce3   bne t0,t1,101c (1024 - 0x8)
--------------------------------------------------------
[  2164:  7214]     101c:  0002a023   sw zero,0(t0)
[  2165:  7217]     1020:  00428293   addi t0,t0,4 : t0(00021b80)
[  2166:  7221]     1024:  fe629ce3   bne t0,t1,101c (1024 - 0x8)
--------------------------------------------------------
[  2167:  7224]     101c:  0002a023   sw zero,0(t0)
[  2168:  7227]     1020:  00428293   addi t0,t0,4 : t0(00021b84)
[  2169:  7231]     1024:  fe629ce3   bne t0,t1,101c (1024 - 0x8)
--------------------------------------------------------
[  2170:  7234]     101c:  0002a023   sw zero,0(t0)
[  2171:  7237]     1020:  00428293   addi t0,t0,4 : t0(00021b88)
[  2172:  7241]     1024:  fe629ce3   bne t0,t1,101c (1024 - 0x8)
--------------------------------------------------------
[  2173:  7244]     101c:  0002a023   sw zero,0(t0)
[  2174:  7247]     1020:  00428293   addi t0,t0,4 : t0(00021b8c)
[  2175:  7251]     1024:  fe629ce3   bne t0,t1,101c (1024 - 0x8)
--------------------------------------------------------
[  2176:  7254]     101c:  0002a023   sw zero,0(t0)
[  2177:  7257]     1020:  00428293   addi t0,t0,4 : t0(00021b90)
[  2178:  7261]     1024:  fe629ce3   bne t0,t1,101c (1024 - 0x8)
--------------------------------------------------------
[  2179:  7264]     101c:  0002a023   sw zero,0(t0)
[  2180:  7267]     1020:  00428293   addi t0,t0,4 : t0(00021b94)
[  2181:  7271]     1024:  fe629ce3   bne t0,t1,101c (1024 - 0x8)
--------------------------------------------------------
[  2182:  7274]     101c:  0002a023   sw zero,0(t0)
[  2183:  7277]     1020:  00428293   addi t0,t0,4 : t0(00021b98)
[  2184:  7281]     1024:  fe629ce3   bne t0,t1,101c (1024 - 0x8)
--------------------------------------------------------
[  2185:  7284]     101c:  0002a023   sw zero,0(t0)
[  2186:  7287]     1020:  00428293   addi t0,t0,4 : t0(00021b9c)
[  2187:  7291]     1024:  fe629ce3   bne t0,t1,101c (1024 - 0x8)
--------------------------------------------------------
[  2188:  7294]     101c:  0002a023   sw zero,0(t0)
[  2189:  7297]     1020:  00428293   addi t0,t0,4 : t0(00021ba0)
[  2190:  7301]     1024:  fe629ce3   bne t0,t1,101c (1024 - 0x8)
--------------------------------------------------------
[  2191:  7304]     101c:  0002a023   sw zero,0(t0)
[  2192:  7307]     1020:  00428293   addi t0,t0,4 : t0(00021ba4)
[  2193:  7311]     1024:  fe629ce3   bne t0,t1,101c (1024 - 0x8)
--------------------------------------------------------
[  2194:  7314]     101c:  0002a023   sw zero,0(t0)
[  2195:  7317]     1020:  00428293   addi t0,t0,4 : t0(00021ba8)
[  2196:  7321]     1024:  fe629ce3   bne t0,t1,101c (1024 - 0x8)
--------------------------------------------------------
[  2197:  7324]     101c:  0002a023   sw zero,0(t0)
[  2198:  7327]     1020:  00428293   addi t0,t0,4 : t0(00021bac)
[  2199:  7331]     1024:  fe629ce3   bne t0,t1,101c (1024 - 0x8)
--------------------------------------------------------
[  2200:  7334]     101c:  0002a023   sw zero,0(t0)
[  2201:  7337]     1020:  00428293   addi t0,t0,4 : t0(00021bb0)
[  2202:  7341]     1024:  fe629ce3   bne t0,t1,101c (1024 - 0x8)
--------------------------------------------------------
[  2203:  7344]     101c:  0002a023   sw zero,0(t0)
[  2204:  7347]     1020:  00428293   addi t0,t0,4 : t0(00021bb4)
[  2205:  7351]     1024:  fe629ce3   bne t0,t1,101c (1024 - 0x8)
--------------------------------------------------------
[  2206:  7354]     101c:  0002a023   sw zero,0(t0)
[  2207:  7357]     1020:  00428293   addi t0,t0,4 : t0(00021bb8)
[  2208:  7361]     1024:  fe629ce3   bne t0,t1,101c (1024 - 0x8)
--------------------------------------------------------
[  2209:  7364]     101c:  0002a023   sw zero,0(t0)
[  2210:  7367]     1020:  00428293   addi t0,t0,4 : t0(00021bbc)
[  2211:  7371]     1024:  fe629ce3   bne t0,t1,101c (1024 - 0x8)
--------------------------------------------------------
[  2212:  7374]     101c:  0002a023   sw zero,0(t0)
[  2213:  7377]     1020:  00428293   addi t0,t0,4 : t0(00021bc0)
[  2214:  7381]     1024:  fe629ce3   bne t0,t1,101c (1024 - 0x8)
--------------------------------------------------------
[  2215:  7384]     101c:  0002a023   sw zero,0(t0)
[  2216:  7387]     1020:  00428293   addi t0,t0,4 : t0(00021bc4)
[  2217:  7391]     1024:  fe629ce3   bne t0,t1,101c (1024 - 0x8)
--------------------------------------------------------
[  2218:  7394]     101c:  0002a023   sw zero,0(t0)
[  2219:  7397]     1020:  00428293   addi t0,t0,4 : t0(00021bc8)
[  2220:  7401]     1024:  fe629ce3   bne t0,t1,101c (1024 - 0x8)
--------------------------------------------------------
[  2221:  7404]     101c:  0002a023   sw zero,0(t0)
[  2222:  7407]     1020:  00428293   addi t0,t0,4 : t0(00021bcc)
[  2223:  7411]     1024:  fe629ce3   bne t0,t1,101c (1024 - 0x8)
--------------------------------------------------------
[  2224:  7414]     101c:  0002a023   sw zero,0(t0)
[  2225:  7417]     1020:  00428293   addi t0,t0,4 : t0(00021bd0)
[  2226:  7421]     1024:  fe629ce3   bne t0,t1,101c (1024 - 0x8)
--------------------------------------------------------
[  2227:  7424]     101c:  0002a023   sw zero,0(t0)
[  2228:  7427]     1020:  00428293   addi t0,t0,4 : t0(00021bd4)
[  2229:  7431]     1024:  fe629ce3   bne t0,t1,101c (1024 - 0x8)
--------------------------------------------------------
[  2230:  7434]     101c:  0002a023   sw zero,0(t0)
[  2231:  7437]     1020:  00428293   addi t0,t0,4 : t0(00021bd8)
[  2232:  7441]     1024:  fe629ce3   bne t0,t1,101c (1024 - 0x8)
--------------------------------------------------------
[  2233:  7444]     101c:  0002a023   sw zero,0(t0)
[  2234:  7447]     1020:  00428293   addi t0,t0,4 : t0(00021bdc)
[  2235:  7451]     1024:  fe629ce3   bne t0,t1,101c (1024 - 0x8)
--------------------------------------------------------
[  2236:  7454]     101c:  0002a023   sw zero,0(t0)
[  2237:  7457]     1020:  00428293   addi t0,t0,4 : t0(00021be0)
[  2238:  7461]     1024:  fe629ce3   bne t0,t1,101c (1024 - 0x8)
--------------------------------------------------------
[  2239:  7464]     101c:  0002a023   sw zero,0(t0)
[  2240:  7467]     1020:  00428293   addi t0,t0,4 : t0(00021be4)
[  2241:  7471]     1024:  fe629ce3   bne t0,t1,101c (1024 - 0x8)
--------------------------------------------------------
[  2242:  7474]     101c:  0002a023   sw zero,0(t0)
[  2243:  7477]     1020:  00428293   addi t0,t0,4 : t0(00021be8)
[  2244:  7481]     1024:  fe629ce3   bne t0,t1,101c (1024 - 0x8)
--------------------------------------------------------
[  2245:  7484]     101c:  0002a023   sw zero,0(t0)
[  2246:  7487]     1020:  00428293   addi t0,t0,4 : t0(00021bec)
[  2247:  7491]     1024:  fe629ce3   bne t0,t1,101c (1024 - 0x8)
--------------------------------------------------------
[  2248:  7494]     101c:  0002a023   sw zero,0(t0)
[  2249:  7497]     1020:  00428293   addi t0,t0,4 : t0(00021bf0)
[  2250:  7501]     1024:  fe629ce3   bne t0,t1,101c (1024 - 0x8)
--------------------------------------------------------
[  2251:  7504]     101c:  0002a023   sw zero,0(t0)
[  2252:  7507]     1020:  00428293   addi t0,t0,4 : t0(00021bf4)
[  2253:  7511]     1024:  fe629ce3   bne t0,t1,101c (1024 - 0x8)
--------------------------------------------------------
[  2254:  7514]     101c:  0002a023   sw zero,0(t0)
[  2255:  7517]     1020:  00428293   addi t0,t0,4 : t0(00021bf8)
[  2256:  7521]     1024:  fe629ce3   bne t0,t1,101c (1024 - 0x8)
--------------------------------------------------------
[  2257:  7524]     101c:  0002a023   sw zero,0(t0)
[  2258:  7527]     1020:  00428293   addi t0,t0,4 : t0(00021bfc)
[  2259:  7531]     1024:  fe629ce3   bne t0,t1,101c (1024 - 0x8)
--------------------------------------------------------
[  2260:  7534]     101c:  0002a023   sw zero,0(t0)
[  2261:  7537]     1020:  00428293   addi t0,t0,4 : t0(00021c00)
[  2262:  7541]     1024:  fe629ce3   bne t0,t1,101c (1024 - 0x8)
--------------------------------------------------------
[  2263:  7544]     101c:  0002a023   sw zero,0(t0)
[  2264:  7547]     1020:  00428293   addi t0,t0,4 : t0(00021c04)
[  2265:  7551]     1024:  fe629ce3   bne t0,t1,101c (1024 - 0x8)
--------------------------------------------------------
[  2266:  7554]     101c:  0002a023   sw zero,0(t0)
[  2267:  7557]     1020:  00428293   addi t0,t0,4 : t0(00021c08)
[  2268:  7561]     1024:  fe629ce3   bne t0,t1,101c (1024 - 0x8)
--------------------------------------------------------
[  2269:  7564]     101c:  0002a023   sw zero,0(t0)
[  2270:  7567]     1020:  00428293   addi t0,t0,4 : t0(00021c0c)
[  2271:  7571]     1024:  fe629ce3   bne t0,t1,101c (1024 - 0x8)
--------------------------------------------------------
[  2272:  7574]     101c:  0002a023   sw zero,0(t0)
[  2273:  7577]     1020:  00428293   addi t0,t0,4 : t0(00021c10)
[  2274:  7581]     1024:  fe629ce3   bne t0,t1,101c (1024 - 0x8)
--------------------------------------------------------
[  2275:  7584]     101c:  0002a023   sw zero,0(t0)
[  2276:  7587]     1020:  00428293   addi t0,t0,4 : t0(00021c14)
[  2277:  7591]     1024:  fe629ce3   bne t0,t1,101c (1024 - 0x8)
--------------------------------------------------------
[  2278:  7594]     101c:  0002a023   sw zero,0(t0)
[  2279:  7597]     1020:  00428293   addi t0,t0,4 : t0(00021c18)
[  2280:  7601]     1024:  fe629ce3   bne t0,t1,101c (1024 - 0x8)
--------------------------------------------------------
[  2281:  7604]     101c:  0002a023   sw zero,0(t0)
[  2282:  7607]     1020:  00428293   addi t0,t0,4 : t0(00021c1c)
[  2283:  7611]     1024:  fe629ce3   bne t0,t1,101c (1024 - 0x8)
--------------------------------------------------------
[  2284:  7614]     101c:  0002a023   sw zero,0(t0)
[  2285:  7617]     1020:  00428293   addi t0,t0,4 : t0(00021c20)
[  2286:  7621]     1024:  fe629ce3   bne t0,t1,101c (1024 - 0x8)
--------------------------------------------------------
[  2287:  7624]     101c:  0002a023   sw zero,0(t0)
[  2288:  7627]     1020:  00428293   addi t0,t0,4 : t0(00021c24)
[  2289:  7631]     1024:  fe629ce3   bne t0,t1,101c (1024 - 0x8)
--------------------------------------------------------
[  2290:  7634]     101c:  0002a023   sw zero,0(t0)
[  2291:  7637]     1020:  00428293   addi t0,t0,4 : t0(00021c28)
[  2292:  7641]     1024:  fe629ce3   bne t0,t1,101c (1024 - 0x8)
--------------------------------------------------------
[  2293:  7644]     101c:  0002a023   sw zero,0(t0)
[  2294:  7647]     1020:  00428293   addi t0,t0,4 : t0(00021c2c)
[  2295:  7651]     1024:  fe629ce3   bne t0,t1,101c (1024 - 0x8)
--------------------------------------------------------
[  2296:  7654]     101c:  0002a023   sw zero,0(t0)
[  2297:  7657]     1020:  00428293   addi t0,t0,4 : t0(00021c30)
[  2298:  7661]     1024:  fe629ce3   bne t0,t1,101c (1024 - 0x8)
--------------------------------------------------------
[  2299:  7664]     101c:  0002a023   sw zero,0(t0)
[  2300:  7667]     1020:  00428293   addi t0,t0,4 : t0(00021c34)
[  2301:  7671]     1024:  fe629ce3   bne t0,t1,101c (1024 - 0x8)
--------------------------------------------------------
[  2302:  7674]     101c:  0002a023   sw zero,0(t0)
[  2303:  7677]     1020:  00428293   addi t0,t0,4 : t0(00021c38)
[  2304:  7681]     1024:  fe629ce3   bne t0,t1,101c (1024 - 0x8)
--------------------------------------------------------
[  2305:  7684]     101c:  0002a023   sw zero,0(t0)
[  2306:  7687]     1020:  00428293   addi t0,t0,4 : t0(00021c3c)
[  2307:  7691]     1024:  fe629ce3   bne t0,t1,101c (1024 - 0x8)
--------------------------------------------------------
[  2308:  7694]     101c:  0002a023   sw zero,0(t0)
[  2309:  7697]     1020:  00428293   addi t0,t0,4 : t0(00021c40)
[  2310:  7701]     1024:  fe629ce3   bne t0,t1,101c (1024 - 0x8)
--------------------------------------------------------
[  2311:  7704]     101c:  0002a023   sw zero,0(t0)
[  2312:  7707]     1020:  00428293   addi t0,t0,4 : t0(00021c44)
[  2313:  7711]     1024:  fe629ce3   bne t0,t1,101c (1024 - 0x8)
--------------------------------------------------------
[  2314:  7714]     101c:  0002a023   sw zero,0(t0)
[  2315:  7717]     1020:  00428293   addi t0,t0,4 : t0(00021c48)
[  2316:  7721]     1024:  fe629ce3   bne t0,t1,101c (1024 - 0x8)
--------------------------------------------------------
[  2317:  7724]     101c:  0002a023   sw zero,0(t0)
[  2318:  7727]     1020:  00428293   addi t0,t0,4 : t0(00021c4c)
[  2319:  7731]     1024:  fe629ce3   bne t0,t1,101c (1024 - 0x8)
--------------------------------------------------------
[  2320:  7734]     101c:  0002a023   sw zero,0(t0)
[  2321:  7737]     1020:  00428293   addi t0,t0,4 : t0(00021c50)
[  2322:  7741]     1024:  fe629ce3   bne t0,t1,101c (1024 - 0x8)
--------------------------------------------------------
[  2323:  7744]     101c:  0002a023   sw zero,0(t0)
[  2324:  7747]     1020:  00428293   addi t0,t0,4 : t0(00021c54)
[  2325:  7751]     1024:  fe629ce3   bne t0,t1,101c (1024 - 0x8)
--------------------------------------------------------
[  2326:  7754]     101c:  0002a023   sw zero,0(t0)
[  2327:  7757]     1020:  00428293   addi t0,t0,4 : t0(00021c58)
[  2328:  7761]     1024:  fe629ce3   bne t0,t1,101c (1024 - 0x8)
--------------------------------------------------------
[  2329:  7764]     101c:  0002a023   sw zero,0(t0)
[  2330:  7767]     1020:  00428293   addi t0,t0,4 : t0(00021c5c)
[  2331:  7771]     1024:  fe629ce3   bne t0,t1,101c (1024 - 0x8)
--------------------------------------------------------
[  2332:  7774]     101c:  0002a023   sw zero,0(t0)
[  2333:  7777]     1020:  00428293   addi t0,t0,4 : t0(00021c60)
[  2334:  7781]     1024:  fe629ce3   bne t0,t1,101c (1024 - 0x8)
--------------------------------------------------------
[  2335:  7784]     101c:  0002a023   sw zero,0(t0)
[  2336:  7787]     1020:  00428293   addi t0,t0,4 : t0(00021c64)
[  2337:  7791]     1024:  fe629ce3   bne t0,t1,101c (1024 - 0x8)
--------------------------------------------------------
[  2338:  7794]     101c:  0002a023   sw zero,0(t0)
[  2339:  7797]     1020:  00428293   addi t0,t0,4 : t0(00021c68)
[  2340:  7801]     1024:  fe629ce3   bne t0,t1,101c (1024 - 0x8)
--------------------------------------------------------
[  2341:  7804]     101c:  0002a023   sw zero,0(t0)
[  2342:  7807]     1020:  00428293   addi t0,t0,4 : t0(00021c6c)
[  2343:  7811]     1024:  fe629ce3   bne t0,t1,101c (1024 - 0x8)
--------------------------------------------------------
[  2344:  7814]     101c:  0002a023   sw zero,0(t0)
[  2345:  7817]     1020:  00428293   addi t0,t0,4 : t0(00021c70)
[  2346:  7821]     1024:  fe629ce3   bne t0,t1,101c (1024 - 0x8)
--------------------------------------------------------
[  2347:  7824]     101c:  0002a023   sw zero,0(t0)
[  2348:  7827]     1020:  00428293   addi t0,t0,4 : t0(00021c74)
[  2349:  7831]     1024:  fe629ce3   bne t0,t1,101c (1024 - 0x8)
--------------------------------------------------------
[  2350:  7834]     101c:  0002a023   sw zero,0(t0)
[  2351:  7837]     1020:  00428293   addi t0,t0,4 : t0(00021c78)
[  2352:  7841]     1024:  fe629ce3   bne t0,t1,101c (1024 - 0x8)
--------------------------------------------------------
[  2353:  7844]     101c:  0002a023   sw zero,0(t0)
[  2354:  7847]     1020:  00428293   addi t0,t0,4 : t0(00021c7c)
[  2355:  7851]     1024:  fe629ce3   bne t0,t1,101c (1024 - 0x8)
--------------------------------------------------------
[  2356:  7854]     101c:  0002a023   sw zero,0(t0)
[  2357:  7857]     1020:  00428293   addi t0,t0,4 : t0(00021c80)
[  2358:  7861]     1024:  fe629ce3   bne t0,t1,101c (1024 - 0x8)
--------------------------------------------------------
[  2359:  7864]     101c:  0002a023   sw zero,0(t0)
[  2360:  7867]     1020:  00428293   addi t0,t0,4 : t0(00021c84)
[  2361:  7871]     1024:  fe629ce3   bne t0,t1,101c (1024 - 0x8)
--------------------------------------------------------
[  2362:  7874]     101c:  0002a023   sw zero,0(t0)
[  2363:  7877]     1020:  00428293   addi t0,t0,4 : t0(00021c88)
[  2364:  7881]     1024:  fe629ce3   bne t0,t1,101c (1024 - 0x8)
--------------------------------------------------------
[  2365:  7884]     101c:  0002a023   sw zero,0(t0)
[  2366:  7887]     1020:  00428293   addi t0,t0,4 : t0(00021c8c)
[  2367:  7891]     1024:  fe629ce3   bne t0,t1,101c (1024 - 0x8)
--------------------------------------------------------
[  2368:  7894]     101c:  0002a023   sw zero,0(t0)
[  2369:  7897]     1020:  00428293   addi t0,t0,4 : t0(00021c90)
[  2370:  7901]     1024:  fe629ce3   bne t0,t1,101c (1024 - 0x8)
--------------------------------------------------------
[  2371:  7904]     101c:  0002a023   sw zero,0(t0)
[  2372:  7907]     1020:  00428293   addi t0,t0,4 : t0(00021c94)
[  2373:  7911]     1024:  fe629ce3   bne t0,t1,101c (1024 - 0x8)
--------------------------------------------------------
[  2374:  7914]     101c:  0002a023   sw zero,0(t0)
[  2375:  7917]     1020:  00428293   addi t0,t0,4 : t0(00021c98)
[  2376:  7921]     1024:  fe629ce3   bne t0,t1,101c (1024 - 0x8)
--------------------------------------------------------
[  2377:  7924]     101c:  0002a023   sw zero,0(t0)
[  2378:  7927]     1020:  00428293   addi t0,t0,4 : t0(00021c9c)
[  2379:  7931]     1024:  fe629ce3   bne t0,t1,101c (1024 - 0x8)
--------------------------------------------------------
[  2380:  7934]     101c:  0002a023   sw zero,0(t0)
[  2381:  7937]     1020:  00428293   addi t0,t0,4 : t0(00021ca0)
[  2382:  7941]     1024:  fe629ce3   bne t0,t1,101c (1024 - 0x8)
--------------------------------------------------------
[  2383:  7944]     101c:  0002a023   sw zero,0(t0)
[  2384:  7947]     1020:  00428293   addi t0,t0,4 : t0(00021ca4)
[  2385:  7951]     1024:  fe629ce3   bne t0,t1,101c (1024 - 0x8)
--------------------------------------------------------
[  2386:  7954]     101c:  0002a023   sw zero,0(t0)
[  2387:  7957]     1020:  00428293   addi t0,t0,4 : t0(00021ca8)
[  2388:  7961]     1024:  fe629ce3   bne t0,t1,101c (1024 - 0x8)
--------------------------------------------------------
[  2389:  7964]     101c:  0002a023   sw zero,0(t0)
[  2390:  7967]     1020:  00428293   addi t0,t0,4 : t0(00021cac)
[  2391:  7971]     1024:  fe629ce3   bne t0,t1,101c (1024 - 0x8)
--------------------------------------------------------
[  2392:  7974]     101c:  0002a023   sw zero,0(t0)
[  2393:  7977]     1020:  00428293   addi t0,t0,4 : t0(00021cb0)
[  2394:  7981]     1024:  fe629ce3   bne t0,t1,101c (1024 - 0x8)
--------------------------------------------------------
[  2395:  7984]     101c:  0002a023   sw zero,0(t0)
[  2396:  7987]     1020:  00428293   addi t0,t0,4 : t0(00021cb4)
[  2397:  7991]     1024:  fe629ce3   bne t0,t1,101c (1024 - 0x8)
--------------------------------------------------------
[  2398:  7994]     101c:  0002a023   sw zero,0(t0)
[  2399:  7997]     1020:  00428293   addi t0,t0,4 : t0(00021cb8)
[  2400:  8001]     1024:  fe629ce3   bne t0,t1,101c (1024 - 0x8)
--------------------------------------------------------
[  2401:  8004]     101c:  0002a023   sw zero,0(t0)
[  2402:  8007]     1020:  00428293   addi t0,t0,4 : t0(00021cbc)
[  2403:  8011]     1024:  fe629ce3   bne t0,t1,101c (1024 - 0x8)
--------------------------------------------------------
[  2404:  8014]     101c:  0002a023   sw zero,0(t0)
[  2405:  8017]     1020:  00428293   addi t0,t0,4 : t0(00021cc0)
[  2406:  8021]     1024:  fe629ce3   bne t0,t1,101c (1024 - 0x8)
--------------------------------------------------------
[  2407:  8024]     101c:  0002a023   sw zero,0(t0)
[  2408:  8027]     1020:  00428293   addi t0,t0,4 : t0(00021cc4)
[  2409:  8031]     1024:  fe629ce3   bne t0,t1,101c (1024 - 0x8)
--------------------------------------------------------
[  2410:  8034]     101c:  0002a023   sw zero,0(t0)
[  2411:  8037]     1020:  00428293   addi t0,t0,4 : t0(00021cc8)
[  2412:  8041]     1024:  fe629ce3   bne t0,t1,101c (1024 - 0x8)
--------------------------------------------------------
[  2413:  8044]     101c:  0002a023   sw zero,0(t0)
[  2414:  8047]     1020:  00428293   addi t0,t0,4 : t0(00021ccc)
[  2415:  8051]     1024:  fe629ce3   bne t0,t1,101c (1024 - 0x8)
--------------------------------------------------------
[  2416:  8054]     101c:  0002a023   sw zero,0(t0)
[  2417:  8057]     1020:  00428293   addi t0,t0,4 : t0(00021cd0)
[  2418:  8061]     1024:  fe629ce3   bne t0,t1,101c (1024 - 0x8)
--------------------------------------------------------
[  2419:  8064]     101c:  0002a023   sw zero,0(t0)
[  2420:  8067]     1020:  00428293   addi t0,t0,4 : t0(00021cd4)
[  2421:  8071]     1024:  fe629ce3   bne t0,t1,101c (1024 - 0x8)
--------------------------------------------------------
[  2422:  8074]     101c:  0002a023   sw zero,0(t0)
[  2423:  8077]     1020:  00428293   addi t0,t0,4 : t0(00021cd8)
[  2424:  8081]     1024:  fe629ce3   bne t0,t1,101c (1024 - 0x8)
--------------------------------------------------------
[  2425:  8084]     101c:  0002a023   sw zero,0(t0)
[  2426:  8087]     1020:  00428293   addi t0,t0,4 : t0(00021cdc)
[  2427:  8091]     1024:  fe629ce3   bne t0,t1,101c (1024 - 0x8)
--------------------------------------------------------
[  2428:  8094]     101c:  0002a023   sw zero,0(t0)
[  2429:  8097]     1020:  00428293   addi t0,t0,4 : t0(00021ce0)
[  2430:  8101]     1024:  fe629ce3   bne t0,t1,101c (1024 - 0x8)
--------------------------------------------------------
[  2431:  8104]     101c:  0002a023   sw zero,0(t0)
[  2432:  8107]     1020:  00428293   addi t0,t0,4 : t0(00021ce4)
[  2433:  8111]     1024:  fe629ce3   bne t0,t1,101c (1024 - 0x8)
--------------------------------------------------------
[  2434:  8114]     101c:  0002a023   sw zero,0(t0)
[  2435:  8117]     1020:  00428293   addi t0,t0,4 : t0(00021ce8)
[  2436:  8121]     1024:  fe629ce3   bne t0,t1,101c (1024 - 0x8)
--------------------------------------------------------
[  2437:  8124]     101c:  0002a023   sw zero,0(t0)
[  2438:  8127]     1020:  00428293   addi t0,t0,4 : t0(00021cec)
[  2439:  8131]     1024:  fe629ce3   bne t0,t1,101c (1024 - 0x8)
--------------------------------------------------------
[  2440:  8134]     101c:  0002a023   sw zero,0(t0)
[  2441:  8137]     1020:  00428293   addi t0,t0,4 : t0(00021cf0)
[  2442:  8141]     1024:  fe629ce3   bne t0,t1,101c (1024 - 0x8)
--------------------------------------------------------
[  2443:  8144]     101c:  0002a023   sw zero,0(t0)
[  2444:  8147]     1020:  00428293   addi t0,t0,4 : t0(00021cf4)
[  2445:  8151]     1024:  fe629ce3   bne t0,t1,101c (1024 - 0x8)
--------------------------------------------------------
[  2446:  8154]     101c:  0002a023   sw zero,0(t0)
[  2447:  8157]     1020:  00428293   addi t0,t0,4 : t0(00021cf8)
[  2448:  8161]     1024:  fe629ce3   bne t0,t1,101c (1024 - 0x8)
--------------------------------------------------------
[  2449:  8164]     101c:  0002a023   sw zero,0(t0)
[  2450:  8167]     1020:  00428293   addi t0,t0,4 : t0(00021cfc)
[  2451:  8171]     1024:  fe629ce3   bne t0,t1,101c (1024 - 0x8)
--------------------------------------------------------
[  2452:  8174]     101c:  0002a023   sw zero,0(t0)
[  2453:  8177]     1020:  00428293   addi t0,t0,4 : t0(00021d00)
[  2454:  8181]     1024:  fe629ce3   bne t0,t1,101c (1024 - 0x8)
--------------------------------------------------------
[  2455:  8184]     101c:  0002a023   sw zero,0(t0)
[  2456:  8187]     1020:  00428293   addi t0,t0,4 : t0(00021d04)
[  2457:  8191]     1024:  fe629ce3   bne t0,t1,101c (1024 - 0x8)
--------------------------------------------------------
[  2458:  8194]     101c:  0002a023   sw zero,0(t0)
[  2459:  8197]     1020:  00428293   addi t0,t0,4 : t0(00021d08)
[  2460:  8201]     1024:  fe629ce3   bne t0,t1,101c (1024 - 0x8)
--------------------------------------------------------
[  2461:  8204]     101c:  0002a023   sw zero,0(t0)
[  2462:  8207]     1020:  00428293   addi t0,t0,4 : t0(00021d0c)
[  2463:  8211]     1024:  fe629ce3   bne t0,t1,101c (1024 - 0x8)
--------------------------------------------------------
[  2464:  8214]     101c:  0002a023   sw zero,0(t0)
[  2465:  8217]     1020:  00428293   addi t0,t0,4 : t0(00021d10)
[  2466:  8221]     1024:  fe629ce3   bne t0,t1,101c (1024 - 0x8)
--------------------------------------------------------
[  2467:  8224]     101c:  0002a023   sw zero,0(t0)
[  2468:  8227]     1020:  00428293   addi t0,t0,4 : t0(00021d14)
[  2469:  8231]     1024:  fe629ce3   bne t0,t1,101c (1024 - 0x8)
--------------------------------------------------------
[  2470:  8234]     101c:  0002a023   sw zero,0(t0)
[  2471:  8237]     1020:  00428293   addi t0,t0,4 : t0(00021d18)
[  2472:  8241]     1024:  fe629ce3   bne t0,t1,101c (1024 - 0x8)
--------------------------------------------------------
[  2473:  8244]     101c:  0002a023   sw zero,0(t0)
[  2474:  8247]     1020:  00428293   addi t0,t0,4 : t0(00021d1c)
[  2475:  8251]     1024:  fe629ce3   bne t0,t1,101c (1024 - 0x8)
--------------------------------------------------------
[  2476:  8254]     101c:  0002a023   sw zero,0(t0)
[  2477:  8257]     1020:  00428293   addi t0,t0,4 : t0(00021d20)
[  2478:  8261]     1024:  fe629ce3   bne t0,t1,101c (1024 - 0x8)
--------------------------------------------------------
[  2479:  8264]     101c:  0002a023   sw zero,0(t0)
[  2480:  8267]     1020:  00428293   addi t0,t0,4 : t0(00021d24)
[  2481:  8271]     1024:  fe629ce3   bne t0,t1,101c (1024 - 0x8)
--------------------------------------------------------
[  2482:  8274]     101c:  0002a023   sw zero,0(t0)
[  2483:  8277]     1020:  00428293   addi t0,t0,4 : t0(00021d28)
[  2484:  8281]     1024:  fe629ce3   bne t0,t1,101c (1024 - 0x8)
--------------------------------------------------------
[  2485:  8284]     101c:  0002a023   sw zero,0(t0)
[  2486:  8287]     1020:  00428293   addi t0,t0,4 : t0(00021d2c)
[  2487:  8291]     1024:  fe629ce3   bne t0,t1,101c (1024 - 0x8)
--------------------------------------------------------
[  2488:  8294]     101c:  0002a023   sw zero,0(t0)
[  2489:  8297]     1020:  00428293   addi t0,t0,4 : t0(00021d30)
[  2490:  8301]     1024:  fe629ce3   bne t0,t1,101c (1024 - 0x8)
--------------------------------------------------------
[  2491:  8304]     101c:  0002a023   sw zero,0(t0)
[  2492:  8307]     1020:  00428293   addi t0,t0,4 : t0(00021d34)
[  2493:  8311]     1024:  fe629ce3   bne t0,t1,101c (1024 - 0x8)
--------------------------------------------------------
[  2494:  8314]     101c:  0002a023   sw zero,0(t0)
[  2495:  8317]     1020:  00428293   addi t0,t0,4 : t0(00021d38)
[  2496:  8321]     1024:  fe629ce3   bne t0,t1,101c (1024 - 0x8)
--------------------------------------------------------
[  2497:  8324]     101c:  0002a023   sw zero,0(t0)
[  2498:  8327]     1020:  00428293   addi t0,t0,4 : t0(00021d3c)
[  2499:  8331]     1024:  fe629ce3   bne t0,t1,101c (1024 - 0x8)
--------------------------------------------------------
[  2500:  8334]     101c:  0002a023   sw zero,0(t0)
[  2501:  8337]     1020:  00428293   addi t0,t0,4 : t0(00021d40)
[  2502:  8341]     1024:  fe629ce3   bne t0,t1,101c (1024 - 0x8)
--------------------------------------------------------
[  2503:  8344]     101c:  0002a023   sw zero,0(t0)
[  2504:  8347]     1020:  00428293   addi t0,t0,4 : t0(00021d44)
[  2505:  8351]     1024:  fe629ce3   bne t0,t1,101c (1024 - 0x8)
--------------------------------------------------------
[  2506:  8354]     101c:  0002a023   sw zero,0(t0)
[  2507:  8357]     1020:  00428293   addi t0,t0,4 : t0(00021d48)
[  2508:  8361]     1024:  fe629ce3   bne t0,t1,101c (1024 - 0x8)
--------------------------------------------------------
[  2509:  8364]     101c:  0002a023   sw zero,0(t0)
[  2510:  8367]     1020:  00428293   addi t0,t0,4 : t0(00021d4c)
[  2511:  8371]     1024:  fe629ce3   bne t0,t1,101c (1024 - 0x8)
--------------------------------------------------------
[  2512:  8374]     101c:  0002a023   sw zero,0(t0)
[  2513:  8377]     1020:  00428293   addi t0,t0,4 : t0(00021d50)
[  2514:  8381]     1024:  fe629ce3   bne t0,t1,101c (1024 - 0x8)
--------------------------------------------------------
[  2515:  8384]     101c:  0002a023   sw zero,0(t0)
[  2516:  8387]     1020:  00428293   addi t0,t0,4 : t0(00021d54)
[  2517:  8391]     1024:  fe629ce3   bne t0,t1,101c (1024 - 0x8)
--------------------------------------------------------
[  2518:  8394]     101c:  0002a023   sw zero,0(t0)
[  2519:  8397]     1020:  00428293   addi t0,t0,4 : t0(00021d58)
[  2520:  8401]     1024:  fe629ce3   bne t0,t1,101c (1024 - 0x8)
--------------------------------------------------------
[  2521:  8404]     101c:  0002a023   sw zero,0(t0)
[  2522:  8407]     1020:  00428293   addi t0,t0,4 : t0(00021d5c)
[  2523:  8411]     1024:  fe629ce3   bne t0,t1,101c (1024 - 0x8)
--------------------------------------------------------
[  2524:  8414]     101c:  0002a023   sw zero,0(t0)
[  2525:  8417]     1020:  00428293   addi t0,t0,4 : t0(00021d60)
[  2526:  8421]     1024:  fe629ce3   bne t0,t1,101c (1024 - 0x8)
--------------------------------------------------------
[  2527:  8424]     101c:  0002a023   sw zero,0(t0)
[  2528:  8427]     1020:  00428293   addi t0,t0,4 : t0(00021d64)
[  2529:  8431]     1024:  fe629ce3   bne t0,t1,101c (1024 - 0x8)
--------------------------------------------------------
[  2530:  8434]     101c:  0002a023   sw zero,0(t0)
[  2531:  8437]     1020:  00428293   addi t0,t0,4 : t0(00021d68)
[  2532:  8441]     1024:  fe629ce3   bne t0,t1,101c (1024 - 0x8)
--------------------------------------------------------
[  2533:  8444]     101c:  0002a023   sw zero,0(t0)
[  2534:  8447]     1020:  00428293   addi t0,t0,4 : t0(00021d6c)
[  2535:  8451]     1024:  fe629ce3   bne t0,t1,101c (1024 - 0x8)
--------------------------------------------------------
[  2536:  8454]     101c:  0002a023   sw zero,0(t0)
[  2537:  8457]     1020:  00428293   addi t0,t0,4 : t0(00021d70)
[  2538:  8461]     1024:  fe629ce3   bne t0,t1,101c (1024 - 0x8)
--------------------------------------------------------
[  2539:  8464]     101c:  0002a023   sw zero,0(t0)
[  2540:  8467]     1020:  00428293   addi t0,t0,4 : t0(00021d74)
[  2541:  8471]     1024:  fe629ce3   bne t0,t1,101c (1024 - 0x8)
--------------------------------------------------------
[  2542:  8474]     101c:  0002a023   sw zero,0(t0)
[  2543:  8477]     1020:  00428293   addi t0,t0,4 : t0(00021d78)
[  2544:  8481]     1024:  fe629ce3   bne t0,t1,101c (1024 - 0x8)
--------------------------------------------------------
[  2545:  8484]     101c:  0002a023   sw zero,0(t0)
[  2546:  8487]     1020:  00428293   addi t0,t0,4 : t0(00021d7c)
[  2547:  8491]     1024:  fe629ce3   bne t0,t1,101c (1024 - 0x8)
--------------------------------------------------------
[  2548:  8494]     101c:  0002a023   sw zero,0(t0)
[  2549:  8497]     1020:  00428293   addi t0,t0,4 : t0(00021d80)
[  2550:  8501]     1024:  fe629ce3   bne t0,t1,101c (1024 - 0x8)
--------------------------------------------------------
[  2551:  8504]     101c:  0002a023   sw zero,0(t0)
[  2552:  8507]     1020:  00428293   addi t0,t0,4 : t0(00021d84)
[  2553:  8511]     1024:  fe629ce3   bne t0,t1,101c (1024 - 0x8)
--------------------------------------------------------
[  2554:  8514]     101c:  0002a023   sw zero,0(t0)
[  2555:  8517]     1020:  00428293   addi t0,t0,4 : t0(00021d88)
[  2556:  8521]     1024:  fe629ce3   bne t0,t1,101c (1024 - 0x8)
--------------------------------------------------------
[  2557:  8524]     101c:  0002a023   sw zero,0(t0)
[  2558:  8527]     1020:  00428293   addi t0,t0,4 : t0(00021d8c)
[  2559:  8531]     1024:  fe629ce3   bne t0,t1,101c (1024 - 0x8)
--------------------------------------------------------
[  2560:  8534]     101c:  0002a023   sw zero,0(t0)
[  2561:  8537]     1020:  00428293   addi t0,t0,4 : t0(00021d90)
[  2562:  8541]     1024:  fe629ce3   bne t0,t1,101c (1024 - 0x8)
--------------------------------------------------------
[  2563:  8544]     101c:  0002a023   sw zero,0(t0)
[  2564:  8547]     1020:  00428293   addi t0,t0,4 : t0(00021d94)
[  2565:  8551]     1024:  fe629ce3   bne t0,t1,101c (1024 - 0x8)
--------------------------------------------------------
[  2566:  8554]     101c:  0002a023   sw zero,0(t0)
[  2567:  8557]     1020:  00428293   addi t0,t0,4 : t0(00021d98)
[  2568:  8561]     1024:  fe629ce3   bne t0,t1,101c (1024 - 0x8)
--------------------------------------------------------
[  2569:  8564]     101c:  0002a023   sw zero,0(t0)
[  2570:  8567]     1020:  00428293   addi t0,t0,4 : t0(00021d9c)
[  2571:  8571]     1024:  fe629ce3   bne t0,t1,101c (1024 - 0x8)
--------------------------------------------------------
[  2572:  8574]     101c:  0002a023   sw zero,0(t0)
[  2573:  8577]     1020:  00428293   addi t0,t0,4 : t0(00021da0)
[  2574:  8581]     1024:  fe629ce3   bne t0,t1,101c (1024 - 0x8)
--------------------------------------------------------
[  2575:  8584]     101c:  0002a023   sw zero,0(t0)
[  2576:  8587]     1020:  00428293   addi t0,t0,4 : t0(00021da4)
[  2577:  8591]     1024:  fe629ce3   bne t0,t1,101c (1024 - 0x8)
--------------------------------------------------------
[  2578:  8594]     101c:  0002a023   sw zero,0(t0)
[  2579:  8597]     1020:  00428293   addi t0,t0,4 : t0(00021da8)
[  2580:  8601]     1024:  fe629ce3   bne t0,t1,101c (1024 - 0x8)
--------------------------------------------------------
[  2581:  8604]     101c:  0002a023   sw zero,0(t0)
[  2582:  8607]     1020:  00428293   addi t0,t0,4 : t0(00021dac)
[  2583:  8611]     1024:  fe629ce3   bne t0,t1,101c (1024 - 0x8)
--------------------------------------------------------
[  2584:  8614]     101c:  0002a023   sw zero,0(t0)
[  2585:  8617]     1020:  00428293   addi t0,t0,4 : t0(00021db0)
[  2586:  8621]     1024:  fe629ce3   bne t0,t1,101c (1024 - 0x8)
--------------------------------------------------------
[  2587:  8624]     101c:  0002a023   sw zero,0(t0)
[  2588:  8627]     1020:  00428293   addi t0,t0,4 : t0(00021db4)
[  2589:  8631]     1024:  fe629ce3   bne t0,t1,101c (1024 - 0x8)
--------------------------------------------------------
[  2590:  8634]     101c:  0002a023   sw zero,0(t0)
[  2591:  8637]     1020:  00428293   addi t0,t0,4 : t0(00021db8)
[  2592:  8641]     1024:  fe629ce3   bne t0,t1,101c (1024 - 0x8)
--------------------------------------------------------
[  2593:  8644]     101c:  0002a023   sw zero,0(t0)
[  2594:  8647]     1020:  00428293   addi t0,t0,4 : t0(00021dbc)
[  2595:  8651]     1024:  fe629ce3   bne t0,t1,101c (1024 - 0x8)
--------------------------------------------------------
[  2596:  8654]     101c:  0002a023   sw zero,0(t0)
[  2597:  8657]     1020:  00428293   addi t0,t0,4 : t0(00021dc0)
[  2598:  8661]     1024:  fe629ce3   bne t0,t1,101c (1024 - 0x8)
--------------------------------------------------------
[  2599:  8664]     101c:  0002a023   sw zero,0(t0)
[  2600:  8667]     1020:  00428293   addi t0,t0,4 : t0(00021dc4)
[  2601:  8671]     1024:  fe629ce3   bne t0,t1,101c (1024 - 0x8)
--------------------------------------------------------
[  2602:  8674]     101c:  0002a023   sw zero,0(t0)
[  2603:  8677]     1020:  00428293   addi t0,t0,4 : t0(00021dc8)
[  2604:  8681]     1024:  fe629ce3   bne t0,t1,101c (1024 - 0x8)
--------------------------------------------------------
[  2605:  8684]     101c:  0002a023   sw zero,0(t0)
[  2606:  8687]     1020:  00428293   addi t0,t0,4 : t0(00021dcc)
[  2607:  8691]     1024:  fe629ce3   bne t0,t1,101c (1024 - 0x8)
--------------------------------------------------------
[  2608:  8694]     101c:  0002a023   sw zero,0(t0)
[  2609:  8697]     1020:  00428293   addi t0,t0,4 : t0(00021dd0)
[  2610:  8701]     1024:  fe629ce3   bne t0,t1,101c (1024 - 0x8)
--------------------------------------------------------
[  2611:  8704]     101c:  0002a023   sw zero,0(t0)
[  2612:  8707]     1020:  00428293   addi t0,t0,4 : t0(00021dd4)
[  2613:  8711]     1024:  fe629ce3   bne t0,t1,101c (1024 - 0x8)
--------------------------------------------------------
[  2614:  8714]     101c:  0002a023   sw zero,0(t0)
[  2615:  8717]     1020:  00428293   addi t0,t0,4 : t0(00021dd8)
[  2616:  8721]     1024:  fe629ce3   bne t0,t1,101c (1024 - 0x8)
--------------------------------------------------------
[  2617:  8724]     101c:  0002a023   sw zero,0(t0)
[  2618:  8727]     1020:  00428293   addi t0,t0,4 : t0(00021ddc)
[  2619:  8731]     1024:  fe629ce3   bne t0,t1,101c (1024 - 0x8)
--------------------------------------------------------
[  2620:  8734]     101c:  0002a023   sw zero,0(t0)
[  2621:  8737]     1020:  00428293   addi t0,t0,4 : t0(00021de0)
[  2622:  8741]     1024:  fe629ce3   bne t0,t1,101c (1024 - 0x8)
--------------------------------------------------------
[  2623:  8744]     101c:  0002a023   sw zero,0(t0)
[  2624:  8747]     1020:  00428293   addi t0,t0,4 : t0(00021de4)
[  2625:  8751]     1024:  fe629ce3   bne t0,t1,101c (1024 - 0x8)
--------------------------------------------------------
[  2626:  8754]     101c:  0002a023   sw zero,0(t0)
[  2627:  8757]     1020:  00428293   addi t0,t0,4 : t0(00021de8)
[  2628:  8761]     1024:  fe629ce3   bne t0,t1,101c (1024 - 0x8)
--------------------------------------------------------
[  2629:  8764]     101c:  0002a023   sw zero,0(t0)
[  2630:  8767]     1020:  00428293   addi t0,t0,4 : t0(00021dec)
[  2631:  8771]     1024:  fe629ce3   bne t0,t1,101c (1024 - 0x8)
--------------------------------------------------------
[  2632:  8774]     101c:  0002a023   sw zero,0(t0)
[  2633:  8777]     1020:  00428293   addi t0,t0,4 : t0(00021df0)
[  2634:  8781]     1024:  fe629ce3   bne t0,t1,101c (1024 - 0x8)
--------------------------------------------------------
[  2635:  8784]     101c:  0002a023   sw zero,0(t0)
[  2636:  8787]     1020:  00428293   addi t0,t0,4 : t0(00021df4)
[  2637:  8791]     1024:  fe629ce3   bne t0,t1,101c (1024 - 0x8)
--------------------------------------------------------
[  2638:  8794]     101c:  0002a023   sw zero,0(t0)
[  2639:  8797]     1020:  00428293   addi t0,t0,4 : t0(00021df8)
[  2640:  8801]     1024:  fe629ce3   bne t0,t1,101c (1024 - 0x8)
--------------------------------------------------------
[  2641:  8804]     101c:  0002a023   sw zero,0(t0)
[  2642:  8807]     1020:  00428293   addi t0,t0,4 : t0(00021dfc)
[  2643:  8811]     1024:  fe629ce3   bne t0,t1,101c (1024 - 0x8)
--------------------------------------------------------
[  2644:  8814]     101c:  0002a023   sw zero,0(t0)
[  2645:  8817]     1020:  00428293   addi t0,t0,4 : t0(00021e00)
[  2646:  8821]     1024:  fe629ce3   bne t0,t1,101c (1024 - 0x8)
--------------------------------------------------------
[  2647:  8824]     101c:  0002a023   sw zero,0(t0)
[  2648:  8827]     1020:  00428293   addi t0,t0,4 : t0(00021e04)
[  2649:  8831]     1024:  fe629ce3   bne t0,t1,101c (1024 - 0x8)
--------------------------------------------------------
[  2650:  8834]     101c:  0002a023   sw zero,0(t0)
[  2651:  8837]     1020:  00428293   addi t0,t0,4 : t0(00021e08)
[  2652:  8841]     1024:  fe629ce3   bne t0,t1,101c (1024 - 0x8)
--------------------------------------------------------
[  2653:  8844]     101c:  0002a023   sw zero,0(t0)
[  2654:  8847]     1020:  00428293   addi t0,t0,4 : t0(00021e0c)
[  2655:  8851]     1024:  fe629ce3   bne t0,t1,101c (1024 - 0x8)
--------------------------------------------------------
[  2656:  8854]     101c:  0002a023   sw zero,0(t0)
[  2657:  8857]     1020:  00428293   addi t0,t0,4 : t0(00021e10)
[  2658:  8861]     1024:  fe629ce3   bne t0,t1,101c (1024 - 0x8)
--------------------------------------------------------
[  2659:  8864]     101c:  0002a023   sw zero,0(t0)
[  2660:  8867]     1020:  00428293   addi t0,t0,4 : t0(00021e14)
[  2661:  8871]     1024:  fe629ce3   bne t0,t1,101c (1024 - 0x8)
--------------------------------------------------------
[  2662:  8874]     101c:  0002a023   sw zero,0(t0)
[  2663:  8877]     1020:  00428293   addi t0,t0,4 : t0(00021e18)
[  2664:  8881]     1024:  fe629ce3   bne t0,t1,101c (1024 - 0x8)
--------------------------------------------------------
[  2665:  8884]     101c:  0002a023   sw zero,0(t0)
[  2666:  8887]     1020:  00428293   addi t0,t0,4 : t0(00021e1c)
[  2667:  8891]     1024:  fe629ce3   bne t0,t1,101c (1024 - 0x8)
--------------------------------------------------------
[  2668:  8894]     101c:  0002a023   sw zero,0(t0)
[  2669:  8897]     1020:  00428293   addi t0,t0,4 : t0(00021e20)
[  2670:  8901]     1024:  fe629ce3   bne t0,t1,101c (1024 - 0x8)
--------------------------------------------------------
[  2671:  8904]     101c:  0002a023   sw zero,0(t0)
[  2672:  8907]     1020:  00428293   addi t0,t0,4 : t0(00021e24)
[  2673:  8911]     1024:  fe629ce3   bne t0,t1,101c (1024 - 0x8)
--------------------------------------------------------
[  2674:  8914]     101c:  0002a023   sw zero,0(t0)
[  2675:  8917]     1020:  00428293   addi t0,t0,4 : t0(00021e28)
[  2676:  8921]     1024:  fe629ce3   bne t0,t1,101c (1024 - 0x8)
--------------------------------------------------------
[  2677:  8924]     101c:  0002a023   sw zero,0(t0)
[  2678:  8927]     1020:  00428293   addi t0,t0,4 : t0(00021e2c)
[  2679:  8931]     1024:  fe629ce3   bne t0,t1,101c (1024 - 0x8)
--------------------------------------------------------
[  2680:  8934]     101c:  0002a023   sw zero,0(t0)
[  2681:  8937]     1020:  00428293   addi t0,t0,4 : t0(00021e30)
[  2682:  8941]     1024:  fe629ce3   bne t0,t1,101c (1024 - 0x8)
--------------------------------------------------------
[  2683:  8944]     101c:  0002a023   sw zero,0(t0)
[  2684:  8947]     1020:  00428293   addi t0,t0,4 : t0(00021e34)
[  2685:  8951]     1024:  fe629ce3   bne t0,t1,101c (1024 - 0x8)
--------------------------------------------------------
[  2686:  8954]     101c:  0002a023   sw zero,0(t0)
[  2687:  8957]     1020:  00428293   addi t0,t0,4 : t0(00021e38)
[  2688:  8961]     1024:  fe629ce3   bne t0,t1,101c (1024 - 0x8)
--------------------------------------------------------
[  2689:  8964]     101c:  0002a023   sw zero,0(t0)
[  2690:  8967]     1020:  00428293   addi t0,t0,4 : t0(00021e3c)
[  2691:  8971]     1024:  fe629ce3   bne t0,t1,101c (1024 - 0x8)
--------------------------------------------------------
[  2692:  8974]     101c:  0002a023   sw zero,0(t0)
[  2693:  8977]     1020:  00428293   addi t0,t0,4 : t0(00021e40)
[  2694:  8981]     1024:  fe629ce3   bne t0,t1,101c (1024 - 0x8)
--------------------------------------------------------
[  2695:  8984]     101c:  0002a023   sw zero,0(t0)
[  2696:  8987]     1020:  00428293   addi t0,t0,4 : t0(00021e44)
[  2697:  8991]     1024:  fe629ce3   bne t0,t1,101c (1024 - 0x8)
--------------------------------------------------------
[  2698:  8994]     101c:  0002a023   sw zero,0(t0)
[  2699:  8997]     1020:  00428293   addi t0,t0,4 : t0(00021e48)
[  2700:  9001]     1024:  fe629ce3   bne t0,t1,101c (1024 - 0x8)
--------------------------------------------------------
[  2701:  9004]     101c:  0002a023   sw zero,0(t0)
[  2702:  9007]     1020:  00428293   addi t0,t0,4 : t0(00021e4c)
[  2703:  9011]     1024:  fe629ce3   bne t0,t1,101c (1024 - 0x8)
--------------------------------------------------------
[  2704:  9014]     101c:  0002a023   sw zero,0(t0)
[  2705:  9017]     1020:  00428293   addi t0,t0,4 : t0(00021e50)
[  2706:  9021]     1024:  fe629ce3   bne t0,t1,101c (1024 - 0x8)
--------------------------------------------------------
[  2707:  9024]     101c:  0002a023   sw zero,0(t0)
[  2708:  9027]     1020:  00428293   addi t0,t0,4 : t0(00021e54)
[  2709:  9031]     1024:  fe629ce3   bne t0,t1,101c (1024 - 0x8)
--------------------------------------------------------
[  2710:  9034]     101c:  0002a023   sw zero,0(t0)
[  2711:  9037]     1020:  00428293   addi t0,t0,4 : t0(00021e58)
[  2712:  9041]     1024:  fe629ce3   bne t0,t1,101c (1024 - 0x8)
--------------------------------------------------------
[  2713:  9044]     101c:  0002a023   sw zero,0(t0)
[  2714:  9047]     1020:  00428293   addi t0,t0,4 : t0(00021e5c)
[  2715:  9051]     1024:  fe629ce3   bne t0,t1,101c (1024 - 0x8)
--------------------------------------------------------
[  2716:  9054]     101c:  0002a023   sw zero,0(t0)
[  2717:  9057]     1020:  00428293   addi t0,t0,4 : t0(00021e60)
[  2718:  9061]     1024:  fe629ce3   bne t0,t1,101c (1024 - 0x8)
--------------------------------------------------------
[  2719:  9064]     101c:  0002a023   sw zero,0(t0)
[  2720:  9067]     1020:  00428293   addi t0,t0,4 : t0(00021e64)
[  2721:  9071]     1024:  fe629ce3   bne t0,t1,101c (1024 - 0x8)
--------------------------------------------------------
[  2722:  9074]     101c:  0002a023   sw zero,0(t0)
[  2723:  9077]     1020:  00428293   addi t0,t0,4 : t0(00021e68)
[  2724:  9081]     1024:  fe629ce3   bne t0,t1,101c (1024 - 0x8)
--------------------------------------------------------
[  2725:  9084]     101c:  0002a023   sw zero,0(t0)
[  2726:  9087]     1020:  00428293   addi t0,t0,4 : t0(00021e6c)
[  2727:  9091]     1024:  fe629ce3   bne t0,t1,101c (1024 - 0x8)
--------------------------------------------------------
[  2728:  9094]     101c:  0002a023   sw zero,0(t0)
[  2729:  9097]     1020:  00428293   addi t0,t0,4 : t0(00021e70)
[  2730:  9101]     1024:  fe629ce3   bne t0,t1,101c (1024 - 0x8)
--------------------------------------------------------
[  2731:  9104]     101c:  0002a023   sw zero,0(t0)
[  2732:  9107]     1020:  00428293   addi t0,t0,4 : t0(00021e74)
[  2733:  9111]     1024:  fe629ce3   bne t0,t1,101c (1024 - 0x8)
--------------------------------------------------------
[  2734:  9114]     101c:  0002a023   sw zero,0(t0)
[  2735:  9117]     1020:  00428293   addi t0,t0,4 : t0(00021e78)
[  2736:  9121]     1024:  fe629ce3   bne t0,t1,101c (1024 - 0x8)
--------------------------------------------------------
[  2737:  9124]     101c:  0002a023   sw zero,0(t0)
[  2738:  9127]     1020:  00428293   addi t0,t0,4 : t0(00021e7c)
[  2739:  9131]     1024:  fe629ce3   bne t0,t1,101c (1024 - 0x8)
--------------------------------------------------------
[  2740:  9134]     101c:  0002a023   sw zero,0(t0)
[  2741:  9137]     1020:  00428293   addi t0,t0,4 : t0(00021e80)
[  2742:  9141]     1024:  fe629ce3   bne t0,t1,101c (1024 - 0x8)
--------------------------------------------------------
[  2743:  9144]     101c:  0002a023   sw zero,0(t0)
[  2744:  9147]     1020:  00428293   addi t0,t0,4 : t0(00021e84)
[  2745:  9151]     1024:  fe629ce3   bne t0,t1,101c (1024 - 0x8)
--------------------------------------------------------
[  2746:  9154]     101c:  0002a023   sw zero,0(t0)
[  2747:  9157]     1020:  00428293   addi t0,t0,4 : t0(00021e88)
[  2748:  9161]     1024:  fe629ce3   bne t0,t1,101c (1024 - 0x8)
--------------------------------------------------------
[  2749:  9164]     101c:  0002a023   sw zero,0(t0)
[  2750:  9167]     1020:  00428293   addi t0,t0,4 : t0(00021e8c)
[  2751:  9171]     1024:  fe629ce3   bne t0,t1,101c (1024 - 0x8)
--------------------------------------------------------
[  2752:  9174]     101c:  0002a023   sw zero,0(t0)
[  2753:  9177]     1020:  00428293   addi t0,t0,4 : t0(00021e90)
[  2754:  9181]     1024:  fe629ce3   bne t0,t1,101c (1024 - 0x8)
--------------------------------------------------------
[  2755:  9184]     101c:  0002a023   sw zero,0(t0)
[  2756:  9187]     1020:  00428293   addi t0,t0,4 : t0(00021e94)
[  2757:  9191]     1024:  fe629ce3   bne t0,t1,101c (1024 - 0x8)
--------------------------------------------------------
[  2758:  9194]     101c:  0002a023   sw zero,0(t0)
[  2759:  9197]     1020:  00428293   addi t0,t0,4 : t0(00021e98)
[  2760:  9201]     1024:  fe629ce3   bne t0,t1,101c (1024 - 0x8)
--------------------------------------------------------
[  2761:  9204]     101c:  0002a023   sw zero,0(t0)
[  2762:  9207]     1020:  00428293   addi t0,t0,4 : t0(00021e9c)
[  2763:  9211]     1024:  fe629ce3   bne t0,t1,101c (1024 - 0x8)
--------------------------------------------------------
[  2764:  9214]     101c:  0002a023   sw zero,0(t0)
[  2765:  9217]     1020:  00428293   addi t0,t0,4 : t0(00021ea0)
[  2766:  9221]     1024:  fe629ce3   bne t0,t1,101c (1024 - 0x8)
--------------------------------------------------------
[  2767:  9224]     101c:  0002a023   sw zero,0(t0)
[  2768:  9227]     1020:  00428293   addi t0,t0,4 : t0(00021ea4)
[  2769:  9231]     1024:  fe629ce3   bne t0,t1,101c (1024 - 0x8)
--------------------------------------------------------
[  2770:  9234]     101c:  0002a023   sw zero,0(t0)
[  2771:  9237]     1020:  00428293   addi t0,t0,4 : t0(00021ea8)
[  2772:  9241]     1024:  fe629ce3   bne t0,t1,101c (1024 - 0x8)
--------------------------------------------------------
[  2773:  9244]     101c:  0002a023   sw zero,0(t0)
[  2774:  9247]     1020:  00428293   addi t0,t0,4 : t0(00021eac)
[  2775:  9251]     1024:  fe629ce3   bne t0,t1,101c (1024 - 0x8)
--------------------------------------------------------
[  2776:  9254]     101c:  0002a023   sw zero,0(t0)
[  2777:  9257]     1020:  00428293   addi t0,t0,4 : t0(00021eb0)
[  2778:  9261]     1024:  fe629ce3   bne t0,t1,101c (1024 - 0x8)
--------------------------------------------------------
[  2779:  9264]     101c:  0002a023   sw zero,0(t0)
[  2780:  9267]     1020:  00428293   addi t0,t0,4 : t0(00021eb4)
[  2781:  9271]     1024:  fe629ce3   bne t0,t1,101c (1024 - 0x8)
--------------------------------------------------------
[  2782:  9274]     101c:  0002a023   sw zero,0(t0)
[  2783:  9277]     1020:  00428293   addi t0,t0,4 : t0(00021eb8)
[  2784:  9281]     1024:  fe629ce3   bne t0,t1,101c (1024 - 0x8)
--------------------------------------------------------
[  2785:  9284]     101c:  0002a023   sw zero,0(t0)
[  2786:  9287]     1020:  00428293   addi t0,t0,4 : t0(00021ebc)
[  2787:  9291]     1024:  fe629ce3   bne t0,t1,101c (1024 - 0x8)
--------------------------------------------------------
[  2788:  9294]     101c:  0002a023   sw zero,0(t0)
[  2789:  9297]     1020:  00428293   addi t0,t0,4 : t0(00021ec0)
[  2790:  9301]     1024:  fe629ce3   bne t0,t1,101c (1024 - 0x8)
--------------------------------------------------------
[  2791:  9304]     101c:  0002a023   sw zero,0(t0)
[  2792:  9307]     1020:  00428293   addi t0,t0,4 : t0(00021ec4)
[  2793:  9311]     1024:  fe629ce3   bne t0,t1,101c (1024 - 0x8)
--------------------------------------------------------
[  2794:  9314]     101c:  0002a023   sw zero,0(t0)
[  2795:  9317]     1020:  00428293   addi t0,t0,4 : t0(00021ec8)
[  2796:  9321]     1024:  fe629ce3   bne t0,t1,101c (1024 - 0x8)
--------------------------------------------------------
[  2797:  9324]     101c:  0002a023   sw zero,0(t0)
[  2798:  9327]     1020:  00428293   addi t0,t0,4 : t0(00021ecc)
[  2799:  9331]     1024:  fe629ce3   bne t0,t1,101c (1024 - 0x8)
--------------------------------------------------------
[  2800:  9334]     101c:  0002a023   sw zero,0(t0)
[  2801:  9337]     1020:  00428293   addi t0,t0,4 : t0(00021ed0)
[  2802:  9341]     1024:  fe629ce3   bne t0,t1,101c (1024 - 0x8)
--------------------------------------------------------
[  2803:  9344]     101c:  0002a023   sw zero,0(t0)
[  2804:  9347]     1020:  00428293   addi t0,t0,4 : t0(00021ed4)
[  2805:  9351]     1024:  fe629ce3   bne t0,t1,101c (1024 - 0x8)
--------------------------------------------------------
[  2806:  9354]     101c:  0002a023   sw zero,0(t0)
[  2807:  9357]     1020:  00428293   addi t0,t0,4 : t0(00021ed8)
[  2808:  9361]     1024:  fe629ce3   bne t0,t1,101c (1024 - 0x8)
--------------------------------------------------------
[  2809:  9364]     101c:  0002a023   sw zero,0(t0)
[  2810:  9367]     1020:  00428293   addi t0,t0,4 : t0(00021edc)
[  2811:  9371]     1024:  fe629ce3   bne t0,t1,101c (1024 - 0x8)
--------------------------------------------------------
[  2812:  9374]     101c:  0002a023   sw zero,0(t0)
[  2813:  9377]     1020:  00428293   addi t0,t0,4 : t0(00021ee0)
[  2814:  9381]     1024:  fe629ce3   bne t0,t1,101c (1024 - 0x8)
--------------------------------------------------------
[  2815:  9384]     101c:  0002a023   sw zero,0(t0)
[  2816:  9387]     1020:  00428293   addi t0,t0,4 : t0(00021ee4)
[  2817:  9391]     1024:  fe629ce3   bne t0,t1,101c (1024 - 0x8)
--------------------------------------------------------
[  2818:  9394]     101c:  0002a023   sw zero,0(t0)
[  2819:  9397]     1020:  00428293   addi t0,t0,4 : t0(00021ee8)
[  2820:  9401]     1024:  fe629ce3   bne t0,t1,101c (1024 - 0x8)
--------------------------------------------------------
[  2821:  9404]     101c:  0002a023   sw zero,0(t0)
[  2822:  9407]     1020:  00428293   addi t0,t0,4 : t0(00021eec)
[  2823:  9411]     1024:  fe629ce3   bne t0,t1,101c (1024 - 0x8)
--------------------------------------------------------
[  2824:  9414]     101c:  0002a023   sw zero,0(t0)
[  2825:  9417]     1020:  00428293   addi t0,t0,4 : t0(00021ef0)
[  2826:  9421]     1024:  fe629ce3   bne t0,t1,101c (1024 - 0x8)
--------------------------------------------------------
[  2827:  9424]     101c:  0002a023   sw zero,0(t0)
[  2828:  9427]     1020:  00428293   addi t0,t0,4 : t0(00021ef4)
[  2829:  9431]     1024:  fe629ce3   bne t0,t1,101c (1024 - 0x8)
--------------------------------------------------------
[  2830:  9434]     101c:  0002a023   sw zero,0(t0)
[  2831:  9437]     1020:  00428293   addi t0,t0,4 : t0(00021ef8)
[  2832:  9441]     1024:  fe629ce3   bne t0,t1,101c (1024 - 0x8)
--------------------------------------------------------
[  2833:  9444]     101c:  0002a023   sw zero,0(t0)
[  2834:  9447]     1020:  00428293   addi t0,t0,4 : t0(00021efc)
[  2835:  9451]     1024:  fe629ce3   bne t0,t1,101c (1024 - 0x8)
--------------------------------------------------------
[  2836:  9454]     101c:  0002a023   sw zero,0(t0)
[  2837:  9457]     1020:  00428293   addi t0,t0,4 : t0(00021f00)
[  2838:  9461]     1024:  fe629ce3   bne t0,t1,101c (1024 - 0x8)
--------------------------------------------------------
[  2839:  9464]     101c:  0002a023   sw zero,0(t0)
[  2840:  9467]     1020:  00428293   addi t0,t0,4 : t0(00021f04)
[  2841:  9471]     1024:  fe629ce3   bne t0,t1,101c (1024 - 0x8)
--------------------------------------------------------
[  2842:  9474]     101c:  0002a023   sw zero,0(t0)
[  2843:  9477]     1020:  00428293   addi t0,t0,4 : t0(00021f08)
[  2844:  9481]     1024:  fe629ce3   bne t0,t1,101c (1024 - 0x8)
--------------------------------------------------------
[  2845:  9484]     101c:  0002a023   sw zero,0(t0)
[  2846:  9487]     1020:  00428293   addi t0,t0,4 : t0(00021f0c)
[  2847:  9491]     1024:  fe629ce3   bne t0,t1,101c (1024 - 0x8)
--------------------------------------------------------
[  2848:  9494]     101c:  0002a023   sw zero,0(t0)
[  2849:  9497]     1020:  00428293   addi t0,t0,4 : t0(00021f10)
[  2850:  9501]     1024:  fe629ce3   bne t0,t1,101c (1024 - 0x8)
--------------------------------------------------------
[  2851:  9504]     101c:  0002a023   sw zero,0(t0)
[  2852:  9507]     1020:  00428293   addi t0,t0,4 : t0(00021f14)
[  2853:  9511]     1024:  fe629ce3   bne t0,t1,101c (1024 - 0x8)
--------------------------------------------------------
[  2854:  9514]     101c:  0002a023   sw zero,0(t0)
[  2855:  9517]     1020:  00428293   addi t0,t0,4 : t0(00021f18)
[  2856:  9521]     1024:  fe629ce3   bne t0,t1,101c (1024 - 0x8)
--------------------------------------------------------
[  2857:  9524]     101c:  0002a023   sw zero,0(t0)
[  2858:  9527]     1020:  00428293   addi t0,t0,4 : t0(00021f1c)
[  2859:  9531]     1024:  fe629ce3   bne t0,t1,101c (1024 - 0x8)
--------------------------------------------------------
[  2860:  9534]     101c:  0002a023   sw zero,0(t0)
[  2861:  9537]     1020:  00428293   addi t0,t0,4 : t0(00021f20)
[  2862:  9541]     1024:  fe629ce3   bne t0,t1,101c (1024 - 0x8)
--------------------------------------------------------
[  2863:  9544]     101c:  0002a023   sw zero,0(t0)
[  2864:  9547]     1020:  00428293   addi t0,t0,4 : t0(00021f24)
[  2865:  9551]     1024:  fe629ce3   bne t0,t1,101c (1024 - 0x8)
--------------------------------------------------------
[  2866:  9554]     101c:  0002a023   sw zero,0(t0)
[  2867:  9557]     1020:  00428293   addi t0,t0,4 : t0(00021f28)
[  2868:  9561]     1024:  fe629ce3   bne t0,t1,101c (1024 - 0x8)
--------------------------------------------------------
[  2869:  9564]     101c:  0002a023   sw zero,0(t0)
[  2870:  9567]     1020:  00428293   addi t0,t0,4 : t0(00021f2c)
[  2871:  9571]     1024:  fe629ce3   bne t0,t1,101c (1024 - 0x8)
--------------------------------------------------------
[  2872:  9574]     101c:  0002a023   sw zero,0(t0)
[  2873:  9577]     1020:  00428293   addi t0,t0,4 : t0(00021f30)
[  2874:  9581]     1024:  fe629ce3   bne t0,t1,101c (1024 - 0x8)
--------------------------------------------------------
[  2875:  9584]     101c:  0002a023   sw zero,0(t0)
[  2876:  9587]     1020:  00428293   addi t0,t0,4 : t0(00021f34)
[  2877:  9591]     1024:  fe629ce3   bne t0,t1,101c (1024 - 0x8)
--------------------------------------------------------
[  2878:  9594]     101c:  0002a023   sw zero,0(t0)
[  2879:  9597]     1020:  00428293   addi t0,t0,4 : t0(00021f38)
[  2880:  9601]     1024:  fe629ce3   bne t0,t1,101c (1024 - 0x8)
--------------------------------------------------------
[  2881:  9604]     101c:  0002a023   sw zero,0(t0)
[  2882:  9607]     1020:  00428293   addi t0,t0,4 : t0(00021f3c)
[  2883:  9611]     1024:  fe629ce3   bne t0,t1,101c (1024 - 0x8)
--------------------------------------------------------
[  2884:  9614]     101c:  0002a023   sw zero,0(t0)
[  2885:  9617]     1020:  00428293   addi t0,t0,4 : t0(00021f40)
[  2886:  9621]     1024:  fe629ce3   bne t0,t1,101c (1024 - 0x8)
--------------------------------------------------------
[  2887:  9624]     101c:  0002a023   sw zero,0(t0)
[  2888:  9627]     1020:  00428293   addi t0,t0,4 : t0(00021f44)
[  2889:  9631]     1024:  fe629ce3   bne t0,t1,101c (1024 - 0x8)
--------------------------------------------------------
[  2890:  9634]     101c:  0002a023   sw zero,0(t0)
[  2891:  9637]     1020:  00428293   addi t0,t0,4 : t0(00021f48)
[  2892:  9641]     1024:  fe629ce3   bne t0,t1,101c (1024 - 0x8)
--------------------------------------------------------
[  2893:  9644]     101c:  0002a023   sw zero,0(t0)
[  2894:  9647]     1020:  00428293   addi t0,t0,4 : t0(00021f4c)
[  2895:  9651]     1024:  fe629ce3   bne t0,t1,101c (1024 - 0x8)
--------------------------------------------------------
[  2896:  9654]     101c:  0002a023   sw zero,0(t0)
[  2897:  9657]     1020:  00428293   addi t0,t0,4 : t0(00021f50)
[  2898:  9661]     1024:  fe629ce3   bne t0,t1,101c (1024 - 0x8)
--------------------------------------------------------
[  2899:  9664]     101c:  0002a023   sw zero,0(t0)
[  2900:  9667]     1020:  00428293   addi t0,t0,4 : t0(00021f54)
[  2901:  9671]     1024:  fe629ce3   bne t0,t1,101c (1024 - 0x8)
--------------------------------------------------------
[  2902:  9674]     101c:  0002a023   sw zero,0(t0)
[  2903:  9677]     1020:  00428293   addi t0,t0,4 : t0(00021f58)
[  2904:  9681]     1024:  fe629ce3   bne t0,t1,101c (1024 - 0x8)
--------------------------------------------------------
[  2905:  9684]     101c:  0002a023   sw zero,0(t0)
[  2906:  9687]     1020:  00428293   addi t0,t0,4 : t0(00021f5c)
[  2907:  9691]     1024:  fe629ce3   bne t0,t1,101c (1024 - 0x8)
--------------------------------------------------------
[  2908:  9694]     101c:  0002a023   sw zero,0(t0)
[  2909:  9697]     1020:  00428293   addi t0,t0,4 : t0(00021f60)
[  2910:  9701]     1024:  fe629ce3   bne t0,t1,101c (1024 - 0x8)
--------------------------------------------------------
[  2911:  9704]     101c:  0002a023   sw zero,0(t0)
[  2912:  9707]     1020:  00428293   addi t0,t0,4 : t0(00021f64)
[  2913:  9711]     1024:  fe629ce3   bne t0,t1,101c (1024 - 0x8)
--------------------------------------------------------
[  2914:  9714]     101c:  0002a023   sw zero,0(t0)
[  2915:  9717]     1020:  00428293   addi t0,t0,4 : t0(00021f68)
[  2916:  9721]     1024:  fe629ce3   bne t0,t1,101c (1024 - 0x8)
--------------------------------------------------------
[  2917:  9724]     101c:  0002a023   sw zero,0(t0)
[  2918:  9727]     1020:  00428293   addi t0,t0,4 : t0(00021f6c)
[  2919:  9731]     1024:  fe629ce3   bne t0,t1,101c (1024 - 0x8)
--------------------------------------------------------
[  2920:  9734]     101c:  0002a023   sw zero,0(t0)
[  2921:  9737]     1020:  00428293   addi t0,t0,4 : t0(00021f70)
[  2922:  9741]     1024:  fe629ce3   bne t0,t1,101c (1024 - 0x8)
--------------------------------------------------------
[  2923:  9744]     101c:  0002a023   sw zero,0(t0)
[  2924:  9747]     1020:  00428293   addi t0,t0,4 : t0(00021f74)
[  2925:  9751]     1024:  fe629ce3   bne t0,t1,101c (1024 - 0x8)
--------------------------------------------------------
[  2926:  9754]     101c:  0002a023   sw zero,0(t0)
[  2927:  9757]     1020:  00428293   addi t0,t0,4 : t0(00021f78)
[  2928:  9761]     1024:  fe629ce3   bne t0,t1,101c (1024 - 0x8)
--------------------------------------------------------
[  2929:  9764]     101c:  0002a023   sw zero,0(t0)
[  2930:  9767]     1020:  00428293   addi t0,t0,4 : t0(00021f7c)
[  2931:  9771]     1024:  fe629ce3   bne t0,t1,101c (1024 - 0x8)
--------------------------------------------------------
[  2932:  9774]     101c:  0002a023   sw zero,0(t0)
[  2933:  9777]     1020:  00428293   addi t0,t0,4 : t0(00021f80)
[  2934:  9781]     1024:  fe629ce3   bne t0,t1,101c (1024 - 0x8)
--------------------------------------------------------
[  2935:  9784]     101c:  0002a023   sw zero,0(t0)
[  2936:  9787]     1020:  00428293   addi t0,t0,4 : t0(00021f84)
[  2937:  9791]     1024:  fe629ce3   bne t0,t1,101c (1024 - 0x8)
--------------------------------------------------------
[  2938:  9794]     101c:  0002a023   sw zero,0(t0)
[  2939:  9797]     1020:  00428293   addi t0,t0,4 : t0(00021f88)
[  2940:  9801]     1024:  fe629ce3   bne t0,t1,101c (1024 - 0x8)
--------------------------------------------------------
[  2941:  9804]     101c:  0002a023   sw zero,0(t0)
[  2942:  9807]     1020:  00428293   addi t0,t0,4 : t0(00021f8c)
[  2943:  9811]     1024:  fe629ce3   bne t0,t1,101c (1024 - 0x8)
--------------------------------------------------------
[  2944:  9814]     101c:  0002a023   sw zero,0(t0)
[  2945:  9817]     1020:  00428293   addi t0,t0,4 : t0(00021f90)
[  2946:  9821]     1024:  fe629ce3   bne t0,t1,101c (1024 - 0x8)
--------------------------------------------------------
[  2947:  9824]     101c:  0002a023   sw zero,0(t0)
[  2948:  9827]     1020:  00428293   addi t0,t0,4 : t0(00021f94)
[  2949:  9831]     1024:  fe629ce3   bne t0,t1,101c (1024 - 0x8)
--------------------------------------------------------
[  2950:  9834]     101c:  0002a023   sw zero,0(t0)
[  2951:  9837]     1020:  00428293   addi t0,t0,4 : t0(00021f98)
[  2952:  9841]     1024:  fe629ce3   bne t0,t1,101c (1024 - 0x8)
--------------------------------------------------------
[  2953:  9844]     101c:  0002a023   sw zero,0(t0)
[  2954:  9847]     1020:  00428293   addi t0,t0,4 : t0(00021f9c)
[  2955:  9851]     1024:  fe629ce3   bne t0,t1,101c (1024 - 0x8)
--------------------------------------------------------
[  2956:  9854]     101c:  0002a023   sw zero,0(t0)
[  2957:  9857]     1020:  00428293   addi t0,t0,4 : t0(00021fa0)
[  2958:  9861]     1024:  fe629ce3   bne t0,t1,101c (1024 - 0x8)
--------------------------------------------------------
[  2959:  9864]     101c:  0002a023   sw zero,0(t0)
[  2960:  9867]     1020:  00428293   addi t0,t0,4 : t0(00021fa4)
[  2961:  9871]     1024:  fe629ce3   bne t0,t1,101c (1024 - 0x8)
--------------------------------------------------------
[  2962:  9874]     101c:  0002a023   sw zero,0(t0)
[  2963:  9877]     1020:  00428293   addi t0,t0,4 : t0(00021fa8)
[  2964:  9881]     1024:  fe629ce3   bne t0,t1,101c (1024 - 0x8)
--------------------------------------------------------
[  2965:  9884]     101c:  0002a023   sw zero,0(t0)
[  2966:  9887]     1020:  00428293   addi t0,t0,4 : t0(00021fac)
[  2967:  9891]     1024:  fe629ce3   bne t0,t1,101c (1024 - 0x8)
--------------------------------------------------------
[  2968:  9894]     101c:  0002a023   sw zero,0(t0)
[  2969:  9897]     1020:  00428293   addi t0,t0,4 : t0(00021fb0)
[  2970:  9901]     1024:  fe629ce3   bne t0,t1,101c (1024 - 0x8)
--------------------------------------------------------
[  2971:  9904]     101c:  0002a023   sw zero,0(t0)
[  2972:  9907]     1020:  00428293   addi t0,t0,4 : t0(00021fb4)
[  2973:  9911]     1024:  fe629ce3   bne t0,t1,101c (1024 - 0x8)
--------------------------------------------------------
[  2974:  9914]     101c:  0002a023   sw zero,0(t0)
[  2975:  9917]     1020:  00428293   addi t0,t0,4 : t0(00021fb8)
[  2976:  9921]     1024:  fe629ce3   bne t0,t1,101c (1024 - 0x8)
--------------------------------------------------------
[  2977:  9924]     101c:  0002a023   sw zero,0(t0)
[  2978:  9927]     1020:  00428293   addi t0,t0,4 : t0(00021fbc)
[  2979:  9931]     1024:  fe629ce3   bne t0,t1,101c (1024 - 0x8)
--------------------------------------------------------
[  2980:  9934]     101c:  0002a023   sw zero,0(t0)
[  2981:  9937]     1020:  00428293   addi t0,t0,4 : t0(00021fc0)
[  2982:  9941]     1024:  fe629ce3   bne t0,t1,101c (1024 - 0x8)
--------------------------------------------------------
[  2983:  9944]     101c:  0002a023   sw zero,0(t0)
[  2984:  9947]     1020:  00428293   addi t0,t0,4 : t0(00021fc4)
[  2985:  9951]     1024:  fe629ce3   bne t0,t1,101c (1024 - 0x8)
--------------------------------------------------------
[  2986:  9954]     101c:  0002a023   sw zero,0(t0)
[  2987:  9957]     1020:  00428293   addi t0,t0,4 : t0(00021fc8)
[  2988:  9961]     1024:  fe629ce3   bne t0,t1,101c (1024 - 0x8)
--------------------------------------------------------
[  2989:  9964]     101c:  0002a023   sw zero,0(t0)
[  2990:  9967]     1020:  00428293   addi t0,t0,4 : t0(00021fcc)
[  2991:  9971]     1024:  fe629ce3   bne t0,t1,101c (1024 - 0x8)
--------------------------------------------------------
[  2992:  9974]     101c:  0002a023   sw zero,0(t0)
[  2993:  9977]     1020:  00428293   addi t0,t0,4 : t0(00021fd0)
[  2994:  9981]     1024:  fe629ce3   bne t0,t1,101c (1024 - 0x8)
--------------------------------------------------------
[  2995:  9984]     101c:  0002a023   sw zero,0(t0)
[  2996:  9987]     1020:  00428293   addi t0,t0,4 : t0(00021fd4)
[  2997:  9991]     1024:  fe629ce3   bne t0,t1,101c (1024 - 0x8)
--------------------------------------------------------
[  2998:  9994]     101c:  0002a023   sw zero,0(t0)
[  2999:  9997]     1020:  00428293   addi t0,t0,4 : t0(00021fd8)
[  3000: 10001]     1024:  fe629ce3   bne t0,t1,101c (1024 - 0x8)
--------------------------------------------------------
[  3001: 10004]     101c:  0002a023   sw zero,0(t0)
[  3002: 10007]     1020:  00428293   addi t0,t0,4 : t0(00021fdc)
[  3003: 10011]     1024:  fe629ce3   bne t0,t1,101c (1024 - 0x8)
--------------------------------------------------------
[  3004: 10014]     101c:  0002a023   sw zero,0(t0)
[  3005: 10017]     1020:  00428293   addi t0,t0,4 : t0(00021fe0)
[  3006: 10021]     1024:  fe629ce3   bne t0,t1,101c (1024 - 0x8)
--------------------------------------------------------
[  3007: 10024]     101c:  0002a023   sw zero,0(t0)
[  3008: 10027]     1020:  00428293   addi t0,t0,4 : t0(00021fe4)
[  3009: 10031]     1024:  fe629ce3   bne t0,t1,101c (1024 - 0x8)
--------------------------------------------------------
[  3010: 10034]     101c:  0002a023   sw zero,0(t0)
[  3011: 10037]     1020:  00428293   addi t0,t0,4 : t0(00021fe8)
[  3012: 10041]     1024:  fe629ce3   bne t0,t1,101c (1024 - 0x8)
--------------------------------------------------------
[  3013: 10044]     101c:  0002a023   sw zero,0(t0)
[  3014: 10047]     1020:  00428293   addi t0,t0,4 : t0(00021fec)
[  3015: 10051]     1024:  fe629ce3   bne t0,t1,101c (1024 - 0x8)
--------------------------------------------------------
[  3016: 10054]     101c:  0002a023   sw zero,0(t0)
[  3017: 10057]     1020:  00428293   addi t0,t0,4 : t0(00021ff0)
[  3018: 10061]     1024:  fe629ce3   bne t0,t1,101c (1024 - 0x8)
--------------------------------------------------------
[  3019: 10064]     101c:  0002a023   sw zero,0(t0)
[  3020: 10067]     1020:  00428293   addi t0,t0,4 : t0(00021ff4)
[  3021: 10071]     1024:  fe629ce3   bne t0,t1,101c (1024 - 0x8)
--------------------------------------------------------
[  3022: 10074]     101c:  0002a023   sw zero,0(t0)
[  3023: 10077]     1020:  00428293   addi t0,t0,4 : t0(00021ff8)
[  3024: 10081]     1024:  fe629ce3   bne t0,t1,101c (1024 - 0x8)
--------------------------------------------------------
[  3025: 10084]     101c:  0002a023   sw zero,0(t0)
[  3026: 10087]     1020:  00428293   addi t0,t0,4 : t0(00021ffc)
[  3027: 10091]     1024:  fe629ce3   bne t0,t1,101c (1024 - 0x8)
--------------------------------------------------------
[  3028: 10094]     101c:  0002a023   sw zero,0(t0)
[  3029: 10097]     1020:  00428293   addi t0,t0,4 : t0(00022000)
[  3030: 10101]     1024:  fe629ce3   bne t0,t1,101c (1024 - 0x8)
[  3031: 10104]     1028:  064010ef   jal ra,208c (1028 + 0x1064) <disable_UART_interrupt>  : ra(0000102c)
--------------------------------------------------------
=============== 0000208c : <disable_UART_interrupt> =================================
[  3032: 10107]     208c:  ff010113   addi sp,sp,-16 : sp(00023ff0)
[  3033: 10110]     2090:  00112623   sw ra,12(sp)
[  3034: 10113]     2094:  00812423   sw s0,8(sp)
[  3035: 10116]     2098:  01010413   addi s0,sp,16 : s0(00024000)
[  3036: 10119]     209c:  00000013   li zero,0 (addi zero,zero,0)
[  3037: 10122]     20a0:  000217b7   lui a5,0x21 : a5(00021000)
[  3038: 10125]     20a4:  02478793   addi a5,a5,36 : a5(00021024)
[  3039: 10129]     20a8:  0007a783   lw a5,0(a5) : a5(10000000)
[  3040: 10137]     20ac:  0047a783   lw a5,4(a5) : a5(0000000a)
[  3041: 10140]     20b0:  0107f793   andi a5,a5,16 : a5(00000000)
[  3042: 10144]     20b4:  fe0796e3   bne a5,zero,20a0 (20b4 - 0x14)
[  3043: 10147]     20b8:  00000013   li zero,0 (addi zero,zero,0)
[  3044: 10150]     20bc:  000217b7   lui a5,0x21 : a5(00021000)
[  3045: 10153]     20c0:  02478793   addi a5,a5,36 : a5(00021024)
[  3046: 10157]     20c4:  0047a783   lw a5,4(a5) : a5(10000040)
[  3047: 10165]     20c8:  0047a783   lw a5,4(a5) : a5(0000000a)
[  3048: 10168]     20cc:  0107f793   andi a5,a5,16 : a5(00000000)
[  3049: 10172]     20d0:  fe0796e3   bne a5,zero,20bc (20d0 - 0x14)
[  3050: 10175]     20d4:  000217b7   lui a5,0x21 : a5(00021000)
[  3051: 10178]     20d8:  00002737   lui a4,0x2 : a4(00002000)
[  3052: 10181]     20dc:  8a470713   addi a4,a4,-1884 : a4(000018a4)
[  3053: 10184]     20e0:  02e7a623   sw a4,44(a5)
[  3054: 10187]     20e4:  000217b7   lui a5,0x21 : a5(00021000)
[  3055: 10190]     20e8:  00002737   lui a4,0x2 : a4(00002000)
[  3056: 10193]     20ec:  9d870713   addi a4,a4,-1576 : a4(000019d8)
[  3057: 10196]     20f0:  02e7a823   sw a4,48(a5)
[  3058: 10199]     20f4:  000217b7   lui a5,0x21 : a5(00021000)
[  3059: 10203]     20f8:  01c7a783   lw a5,28(a5) : a5(10001000)
[  3060: 10207]     20fc:  0087a703   lw a4,8(a5) : a4(00000000)
[  3061: 10210]     2100:  000217b7   lui a5,0x21 : a5(00021000)
[  3062: 10214]     2104:  01c7a783   lw a5,28(a5) : a5(10001000)
[  3063: 10217]     2108:  ffc77713   andi a4,a4,-4 : a4(00000000)
[  3064: 10220]     210c:  00e7a423   sw a4,8(a5)
[  3065: 10223]     2110:  30047073   csrrci zero,768
[  3066: 10226]     2114:  e49ff0ef   jal ra,1f5c (2114 - 0x1b8) <UARTBuf_reset_all>  : ra(00002118)
--------------------------------------------------------
=============== 00001f5c : <UARTBuf_reset_all> =================================
[  3067: 10229]     1f5c:  ff010113   addi sp,sp,-16 : sp(00023fe0)
[  3068: 10232]     1f60:  00112623   sw ra,12(sp)
[  3069: 10235]     1f64:  00812423   sw s0,8(sp)
[  3070: 10238]     1f68:  01010413   addi s0,sp,16 : s0(00023ff0)
[  3071: 10241]     1f6c:  000217b7   lui a5,0x21 : a5(00021000)
[  3072: 10244]     1f70:  0b878513   addi a0,a5,184 : a0(000210b8)
[  3073: 10247]     1f74:  c3dff0ef   jal ra,1bb0 (1f74 - 0x3c4) <UARTBuf_reset>  : ra(00001f78)
--------------------------------------------------------
=============== 00001bb0 : <UARTBuf_reset> =================================
[  3074: 10250]     1bb0:  fe010113   addi sp,sp,-32 : sp(00023fc0)
[  3075: 10253]     1bb4:  00112e23   sw ra,28(sp)
[  3076: 10256]     1bb8:  00812c23   sw s0,24(sp)
[  3077: 10259]     1bbc:  02010413   addi s0,sp,32 : s0(00023fe0)
[  3078: 10262]     1bc0:  fea42623   sw a0,-20(s0)
[  3079: 10266]     1bc4:  fec42783   lw a5,-20(s0) : a5(000210b8)
[  3080: 10269]     1bc8:  0007a223   sw zero,4(a5)
[  3081: 10273]     1bcc:  fec42783   lw a5,-20(s0) : a5(000210b8)
[  3082: 10276]     1bd0:  0007a423   sw zero,8(a5)
[  3083: 10280]     1bd4:  fec42783   lw a5,-20(s0) : a5(000210b8)
[  3084: 10283]     1bd8:  000780a3   sb zero,1(a5)
[  3085: 10287]     1bdc:  fec42783   lw a5,-20(s0) : a5(000210b8)
[  3086: 10290]     1be0:  00078023   sb zero,0(a5)
[  3087: 10294]     1be4:  fec42783   lw a5,-20(s0) : a5(000210b8)
[  3088: 10297]     1be8:  0007a623   sw zero,12(a5)
[  3089: 10301]     1bec:  fec42783   lw a5,-20(s0) : a5(000210b8)
[  3090: 10304]     1bf0:  0007a823   sw zero,16(a5)
[  3091: 10307]     1bf4:  00000013   li zero,0 (addi zero,zero,0)
[  3092: 10311]     1bf8:  01c12083   lw ra,28(sp) : ra(00001f78)
[  3093: 10315]     1bfc:  01812403   lw s0,24(sp) : s0(00023ff0)
[  3094: 10318]     1c00:  02010113   addi sp,sp,32 : sp(00023fe0)
[  3095: 10321]     1c04:  00008067   ret : jalr zero,0(ra), a0(000210b8) <return-value>
--------------------------------------------------------
[  3096: 10324]     1f78:  000217b7   lui a5,0x21 : a5(00021000)
[  3097: 10327]     1f7c:  0f478513   addi a0,a5,244 : a0(000210f4)
[  3098: 10330]     1f80:  c31ff0ef   jal ra,1bb0 (1f80 - 0x3d0) <UARTBuf_reset>  : ra(00001f84)
--------------------------------------------------------
=============== 00001bb0 : <UARTBuf_reset> =================================
[  3099: 10333]     1bb0:  fe010113   addi sp,sp,-32 : sp(00023fc0)
[  3100: 10336]     1bb4:  00112e23   sw ra,28(sp)
[  3101: 10339]     1bb8:  00812c23   sw s0,24(sp)
[  3102: 10342]     1bbc:  02010413   addi s0,sp,32 : s0(00023fe0)
[  3103: 10345]     1bc0:  fea42623   sw a0,-20(s0)
[  3104: 10349]     1bc4:  fec42783   lw a5,-20(s0) : a5(000210f4)
[  3105: 10352]     1bc8:  0007a223   sw zero,4(a5)
[  3106: 10356]     1bcc:  fec42783   lw a5,-20(s0) : a5(000210f4)
[  3107: 10359]     1bd0:  0007a423   sw zero,8(a5)
[  3108: 10363]     1bd4:  fec42783   lw a5,-20(s0) : a5(000210f4)
[  3109: 10366]     1bd8:  000780a3   sb zero,1(a5)
[  3110: 10370]     1bdc:  fec42783   lw a5,-20(s0) : a5(000210f4)
[  3111: 10373]     1be0:  00078023   sb zero,0(a5)
[  3112: 10377]     1be4:  fec42783   lw a5,-20(s0) : a5(000210f4)
[  3113: 10380]     1be8:  0007a623   sw zero,12(a5)
[  3114: 10384]     1bec:  fec42783   lw a5,-20(s0) : a5(000210f4)
[  3115: 10387]     1bf0:  0007a823   sw zero,16(a5)
[  3116: 10390]     1bf4:  00000013   li zero,0 (addi zero,zero,0)
[  3117: 10394]     1bf8:  01c12083   lw ra,28(sp) : ra(00001f84)
[  3118: 10398]     1bfc:  01812403   lw s0,24(sp) : s0(00023ff0)
[  3119: 10401]     1c00:  02010113   addi sp,sp,32 : sp(00023fe0)
[  3120: 10404]     1c04:  00008067   ret : jalr zero,0(ra), a0(000210f4) <return-value>
--------------------------------------------------------
[  3121: 10407]     1f84:  000217b7   lui a5,0x21 : a5(00021000)
[  3122: 10410]     1f88:  04078513   addi a0,a5,64 : a0(00021040)
[  3123: 10413]     1f8c:  c25ff0ef   jal ra,1bb0 (1f8c - 0x3dc) <UARTBuf_reset>  : ra(00001f90)
--------------------------------------------------------
=============== 00001bb0 : <UARTBuf_reset> =================================
[  3124: 10416]     1bb0:  fe010113   addi sp,sp,-32 : sp(00023fc0)
[  3125: 10419]     1bb4:  00112e23   sw ra,28(sp)
[  3126: 10422]     1bb8:  00812c23   sw s0,24(sp)
[  3127: 10425]     1bbc:  02010413   addi s0,sp,32 : s0(00023fe0)
[  3128: 10428]     1bc0:  fea42623   sw a0,-20(s0)
[  3129: 10432]     1bc4:  fec42783   lw a5,-20(s0) : a5(00021040)
[  3130: 10435]     1bc8:  0007a223   sw zero,4(a5)
[  3131: 10439]     1bcc:  fec42783   lw a5,-20(s0) : a5(00021040)
[  3132: 10442]     1bd0:  0007a423   sw zero,8(a5)
[  3133: 10446]     1bd4:  fec42783   lw a5,-20(s0) : a5(00021040)
[  3134: 10449]     1bd8:  000780a3   sb zero,1(a5)
[  3135: 10453]     1bdc:  fec42783   lw a5,-20(s0) : a5(00021040)
[  3136: 10456]     1be0:  00078023   sb zero,0(a5)
[  3137: 10460]     1be4:  fec42783   lw a5,-20(s0) : a5(00021040)
[  3138: 10463]     1be8:  0007a623   sw zero,12(a5)
[  3139: 10467]     1bec:  fec42783   lw a5,-20(s0) : a5(00021040)
[  3140: 10470]     1bf0:  0007a823   sw zero,16(a5)
[  3141: 10473]     1bf4:  00000013   li zero,0 (addi zero,zero,0)
[  3142: 10477]     1bf8:  01c12083   lw ra,28(sp) : ra(00001f90)
[  3143: 10481]     1bfc:  01812403   lw s0,24(sp) : s0(00023ff0)
[  3144: 10484]     1c00:  02010113   addi sp,sp,32 : sp(00023fe0)
[  3145: 10487]     1c04:  00008067   ret : jalr zero,0(ra), a0(00021040) <return-value>
--------------------------------------------------------
[  3146: 10490]     1f90:  000217b7   lui a5,0x21 : a5(00021000)
[  3147: 10493]     1f94:  07c78513   addi a0,a5,124 : a0(0002107c)
[  3148: 10496]     1f98:  c19ff0ef   jal ra,1bb0 (1f98 - 0x3e8) <UARTBuf_reset>  : ra(00001f9c)
--------------------------------------------------------
=============== 00001bb0 : <UARTBuf_reset> =================================
[  3149: 10499]     1bb0:  fe010113   addi sp,sp,-32 : sp(00023fc0)
[  3150: 10502]     1bb4:  00112e23   sw ra,28(sp)
[  3151: 10505]     1bb8:  00812c23   sw s0,24(sp)
[  3152: 10508]     1bbc:  02010413   addi s0,sp,32 : s0(00023fe0)
[  3153: 10511]     1bc0:  fea42623   sw a0,-20(s0)
[  3154: 10515]     1bc4:  fec42783   lw a5,-20(s0) : a5(0002107c)
[  3155: 10518]     1bc8:  0007a223   sw zero,4(a5)
[  3156: 10522]     1bcc:  fec42783   lw a5,-20(s0) : a5(0002107c)
[  3157: 10525]     1bd0:  0007a423   sw zero,8(a5)
[  3158: 10529]     1bd4:  fec42783   lw a5,-20(s0) : a5(0002107c)
[  3159: 10532]     1bd8:  000780a3   sb zero,1(a5)
[  3160: 10536]     1bdc:  fec42783   lw a5,-20(s0) : a5(0002107c)
[  3161: 10539]     1be0:  00078023   sb zero,0(a5)
[  3162: 10543]     1be4:  fec42783   lw a5,-20(s0) : a5(0002107c)
[  3163: 10546]     1be8:  0007a623   sw zero,12(a5)
[  3164: 10550]     1bec:  fec42783   lw a5,-20(s0) : a5(0002107c)
[  3165: 10553]     1bf0:  0007a823   sw zero,16(a5)
[  3166: 10556]     1bf4:  00000013   li zero,0 (addi zero,zero,0)
[  3167: 10560]     1bf8:  01c12083   lw ra,28(sp) : ra(00001f9c)
[  3168: 10564]     1bfc:  01812403   lw s0,24(sp) : s0(00023ff0)
[  3169: 10567]     1c00:  02010113   addi sp,sp,32 : sp(00023fe0)
[  3170: 10570]     1c04:  00008067   ret : jalr zero,0(ra), a0(0002107c) <return-value>
--------------------------------------------------------
[  3171: 10573]     1f9c:  00000013   li zero,0 (addi zero,zero,0)
[  3172: 10577]     1fa0:  00c12083   lw ra,12(sp) : ra(00002118)
[  3173: 10581]     1fa4:  00812403   lw s0,8(sp) : s0(00024000)
[  3174: 10584]     1fa8:  01010113   addi sp,sp,16 : sp(00023ff0)
[  3175: 10587]     1fac:  00008067   ret : jalr zero,0(ra), a0(0002107c) <return-value>
--------------------------------------------------------
[  3176: 10590]     2118:  00000013   li zero,0 (addi zero,zero,0)
[  3177: 10594]     211c:  00c12083   lw ra,12(sp) : ra(0000102c)
[  3178: 10598]     2120:  00812403   lw s0,8(sp) : s0(00000000)
[  3179: 10601]     2124:  01010113   addi sp,sp,16 : sp(00024000)
[  3180: 10604]     2128:  00008067   ret : jalr zero,0(ra), a0(0002107c) <return-value>
--------------------------------------------------------
[  3181: 10607]     102c:  7c4000ef   jal ra,17f0 (102c + 0x7c4) <_io_init>  : ra(00001030)
--------------------------------------------------------
=============== 000017f0 : <_io_init> =================================
[  3182: 10610]     17f0:  ff010113   addi sp,sp,-16 : sp(00023ff0)
[  3183: 10613]     17f4:  00112623   sw ra,12(sp)
[  3184: 10616]     17f8:  00812423   sw s0,8(sp)
[  3185: 10619]     17fc:  01010413   addi s0,sp,16 : s0(00024000)
[  3186: 10622]     1800:  000217b7   lui a5,0x21 : a5(00021000)
[  3187: 10625]     1804:  02478793   addi a5,a5,36 : a5(00021024)
[  3188: 10629]     1808:  0007a783   lw a5,0(a5) : a5(10000000)
[  3189: 10632]     180c:  06f00713   li a4,111 (addi a4,zero,111) : a4(0000006f)
[  3190: 10638]     1810:  00e7a223   sw a4,4(a5)
[  3191: 10641]     1814:  000217b7   lui a5,0x21 : a5(00021000)
[  3192: 10644]     1818:  02478793   addi a5,a5,36 : a5(00021024)
[  3193: 10648]     181c:  0047a783   lw a5,4(a5) : a5(10000040)
[  3194: 10651]     1820:  06f00713   li a4,111 (addi a4,zero,111) : a4(0000006f)
[  3195: 10657]     1824:  00e7a223   sw a4,4(a5)
[  3196: 10660]     1828:  00000013   li zero,0 (addi zero,zero,0)
[  3197: 10664]     182c:  00c12083   lw ra,12(sp) : ra(00001030)
[  3198: 10668]     1830:  00812403   lw s0,8(sp) : s0(00000000)
[  3199: 10671]     1834:  01010113   addi sp,sp,16 : sp(00024000)
[  3200: 10674]     1838:  00008067   ret : jalr zero,0(ra), a0(0002107c) <return-value>
--------------------------------------------------------
[  3201: 10677]     1030:  781000ef   jal ra,1fb0 (1030 + 0xf80) <enable_BUTTON_interrupt>  : ra(00001034)
--------------------------------------------------------
=============== 00001fb0 : <enable_BUTTON_interrupt> =================================
[  3202: 10680]     1fb0:  ff010113   addi sp,sp,-16 : sp(00023ff0)
[  3203: 10683]     1fb4:  00112623   sw ra,12(sp)
[  3204: 10686]     1fb8:  00812423   sw s0,8(sp)
[  3205: 10689]     1fbc:  01010413   addi s0,sp,16 : s0(00024000)
[  3206: 10692]     1fc0:  000037b7   lui a5,0x3 : a5(00003000)
[  3207: 10695]     1fc4:  b9878793   addi a5,a5,-1128 : a5(00002b98)
[  3208: 10698]     1fc8:  30579073   csrrw zero,a5
[  3209: 10701]     1fcc:  000217b7   lui a5,0x21 : a5(00021000)
[  3210: 10705]     1fd0:  01c7a783   lw a5,28(a5) : a5(10001000)
[  3211: 10709]     1fd4:  0087a703   lw a4,8(a5) : a4(00000000)
[  3212: 10712]     1fd8:  000217b7   lui a5,0x21 : a5(00021000)
[  3213: 10716]     1fdc:  01c7a783   lw a5,28(a5) : a5(10001000)
[  3214: 10719]     1fe0:  07c76713   ori a4,a4,124 : a4(0000007c)
[  3215: 10722]     1fe4:  00e7a423   sw a4,8(a5)
[  3216: 10725]     1fe8:  000017b7   lui a5,0x1 : a5(00001000)
[  3217: 10728]     1fec:  80078793   addi a5,a5,-2048 : a5(00000800)
[  3218: 10731]     1ff0:  3047a073   csrrs zero,a5
[  3219: 10734]     1ff4:  30046073   csrrsi zero,768
[  3220: 10737]     1ff8:  00000013   li zero,0 (addi zero,zero,0)
[  3221: 10741]     1ffc:  00c12083   lw ra,12(sp) : ra(00001034)
[  3222: 10745]     2000:  00812403   lw s0,8(sp) : s0(00000000)
[  3223: 10748]     2004:  01010113   addi sp,sp,16 : sp(00024000)
[  3224: 10751]     2008:  00008067   ret : jalr zero,0(ra), a0(0002107c) <return-value>
--------------------------------------------------------
[  3225: 10754]     1034:  010000ef   jal ra,1044 (1034 + 0x10) <main>  : ra(00001038)
--------------------------------------------------------
=============== 00001044 : <main> =================================
[  3226: 10757]     1044:  fe010113   addi sp,sp,-32 : sp(00023fe0)
[  3227: 10760]     1048:  00112e23   sw ra,28(sp)
[  3228: 10763]     104c:  00812c23   sw s0,24(sp)
[  3229: 10766]     1050:  02010413   addi s0,sp,32 : s0(00024000)
[  3230: 10769]     1054:  00a00793   li a5,10 (addi a5,zero,10) : a5(0000000a)
[  3231: 10772]     1058:  fef42623   sw a5,-20(s0)
[  3232: 10775]     105c:  00200793   li a5,2 (addi a5,zero,2) : a5(00000002)
[  3233: 10778]     1060:  fef42423   sw a5,-24(s0)
[  3234: 10782]     1064:  fec42703   lw a4,-20(s0) : a4(0000000a)
[  3235: 10786]     1068:  fe842783   lw a5,-24(s0) : a5(00000002)
[  3236: 10789]     106c:  00f707b3   add a5,a4,a5 : a5(0000000c)
[  3237: 10792]     1070:  00078693   mv a3,a5 (addi a3,a5,0) : a3(0000000c)
[  3238: 10796]     1074:  fe842603   lw a2,-24(s0) : a2(00000002)
[  3239: 10800]     1078:  fec42583   lw a1,-20(s0) : a1(0000000a)
[  3240: 10803]     107c:  000207b7   lui a5,0x20 : a5(00020000)
[  3241: 10806]     1080:  00078513   mv a0,a5 (addi a0,a5,0) : a0(00020000)
[  3242: 10809]     1084:  374000ef   jal ra,13f8 (1084 + 0x374) <printf>  : ra(00001088)
--------------------------------------------------------
=============== 000013f8 : <printf> =================================
[  3243: 10812]     13f8:  f7010113   addi sp,sp,-144 : sp(00023f50)
[  3244: 10815]     13fc:  06112623   sw ra,108(sp)
[  3245: 10818]     1400:  06812423   sw s0,104(sp)
[  3246: 10821]     1404:  07212223   sw s2,100(sp)
[  3247: 10824]     1408:  07312023   sw s3,96(sp)
[  3248: 10827]     140c:  05412e23   sw s4,92(sp)
[  3249: 10830]     1410:  05512c23   sw s5,88(sp)
[  3250: 10833]     1414:  07010413   addi s0,sp,112 : s0(00023fc0)
[  3251: 10836]     1418:  f8a42e23   sw a0,-100(s0)
[  3252: 10839]     141c:  00b42223   sw a1,4(s0)
[  3253: 10842]     1420:  00c42423   sw a2,8(s0)
[  3254: 10845]     1424:  00d42623   sw a3,12(s0)
[  3255: 10848]     1428:  00e42823   sw a4,16(s0)
[  3256: 10851]     142c:  00f42a23   sw a5,20(s0)
[  3257: 10854]     1430:  01042c23   sw a6,24(s0)
[  3258: 10857]     1434:  01142e23   sw a7,28(s0)
[  3259: 10860]     1438:  fc042e23   sw zero,-36(s0)
[  3260: 10863]     143c:  fc042c23   sw zero,-40(s0)
[  3261: 10866]     1440:  fc042a23   sw zero,-44(s0)
[  3262: 10869]     1444:  02000793   li a5,32 (addi a5,zero,32) : a5(00000020)
[  3263: 10872]     1448:  fcf409a3   sb a5,-45(s0)
[  3264: 10875]     144c:  fc042623   sw zero,-52(s0)
[  3265: 10878]     1450:  02040793   addi a5,s0,32 : a5(00023fe0)
[  3266: 10881]     1454:  f8f42c23   sw a5,-104(s0)
[  3267: 10885]     1458:  f9842783   lw a5,-104(s0) : a5(00023fe0)
[  3268: 10888]     145c:  fe478793   addi a5,a5,-28 : a5(00023fc4)
[  3269: 10891]     1460:  faf42223   sw a5,-92(s0)
[  3270: 10894]     1464:  3580006f   jal zero,17bc (1464 + 0x358)
--------------------------------------------------------
[  3271: 10898]     17bc:  f9c42783   lw a5,-100(s0) : a5(00020000)
[  3272: 10902]     17c0:  0007c783   lbu a5,0(a5) : a5(00000025)
[  3273: 10906]     17c4:  ca0792e3   bne a5,zero,1468 (17c4 - 0x35c)
--------------------------------------------------------
[  3274: 10910]     1468:  fdc42783   lw a5,-36(s0) : a5(00000000)
[  3275: 10914]     146c:  2c078a63   beq a5,zero,1740 (146c + 0x2d4)
--------------------------------------------------------
[  3276: 10918]     1740:  f9c42783   lw a5,-100(s0) : a5(00020000)
[  3277: 10922]     1744:  0007c703   lbu a4,0(a5) : a4(00000025)
[  3278: 10925]     1748:  02500793   li a5,37 (addi a5,zero,37) : a5(00000025)
[  3279: 10929]     174c:  04f71663   bne a4,a5,1798 (174c + 0x4c)
[  3280: 10932]     1750:  00100793   li a5,1 (addi a5,zero,1) : a5(00000001)
[  3281: 10935]     1754:  fcf42e23   sw a5,-36(s0)
[  3282: 10938]     1758:  fc042c23   sw zero,-40(s0)
[  3283: 10941]     175c:  fc042a23   sw zero,-44(s0)
[  3284: 10944]     1760:  02000793   li a5,32 (addi a5,zero,32) : a5(00000020)
[  3285: 10947]     1764:  fcf409a3   sb a5,-45(s0)
[  3286: 10950]     1768:  fc042623   sw zero,-52(s0)
[  3287: 10954]     176c:  f9c42783   lw a5,-100(s0) : a5(00020000)
[  3288: 10957]     1770:  00178793   addi a5,a5,1 : a5(00020001)
[  3289: 10961]     1774:  0007c703   lbu a4,0(a5) : a4(00000075)
[  3290: 10964]     1778:  03000793   li a5,48 (addi a5,zero,48) : a5(00000030)
[  3291: 10968]     177c:  02f71a63   bne a4,a5,17b0 (177c + 0x34)
--------------------------------------------------------
[  3292: 10972]     17b0:  f9c42783   lw a5,-100(s0) : a5(00020000)
[  3293: 10975]     17b4:  00178793   addi a5,a5,1 : a5(00020001)
[  3294: 10978]     17b8:  f8f42e23   sw a5,-100(s0)
[  3295: 10982]     17bc:  f9c42783   lw a5,-100(s0) : a5(00020001)
[  3296: 10986]     17c0:  0007c783   lbu a5,0(a5) : a5(00000075)
[  3297: 10990]     17c4:  ca0792e3   bne a5,zero,1468 (17c4 - 0x35c)
--------------------------------------------------------
[  3298: 10994]     1468:  fdc42783   lw a5,-36(s0) : a5(00000001)
[  3299: 10998]     146c:  2c078a63   beq a5,zero,1740 (146c + 0x2d4)
[  3300: 11002]     1470:  f9c42783   lw a5,-100(s0) : a5(00020001)
[  3301: 11006]     1474:  0007c783   lbu a5,0(a5) : a5(00000075)
[  3302: 11009]     1478:  03900713   li a4,57 (addi a4,zero,57) : a4(00000039)
[  3303: 11013]     147c:  02f74a63   blt a4,a5,14b0 (147c + 0x34)
--------------------------------------------------------
[  3304: 11016]     14b0:  07800713   li a4,120 (addi a4,zero,120) : a4(00000078)
[  3305: 11020]     14b4:  2ef74e63   blt a4,a5,17b0 (14b4 + 0x2fc)
[  3306: 11023]     14b8:  06300713   li a4,99 (addi a4,zero,99) : a4(00000063)
[  3307: 11027]     14bc:  fce7d8e3   bge a5,a4,148c (14bc - 0x30)
--------------------------------------------------------
[  3308: 11030]     148c:  f9d78793   addi a5,a5,-99 : a5(00000012)
[  3309: 11033]     1490:  01500713   li a4,21 (addi a4,zero,21) : a4(00000015)
[  3310: 11037]     1494:  30f76e63   bltu a4,a5,17b0 (1494 + 0x31c)
[  3311: 11040]     1498:  00279713   slli a4,a5,0x2 : a4(00000048)
[  3312: 11043]     149c:  000207b7   lui a5,0x20 : a5(00020000)
[  3313: 11046]     14a0:  01078793   addi a5,a5,16 : a5(00020010)
[  3314: 11049]     14a4:  00f707b3   add a5,a4,a5 : a5(00020058)
[  3315: 11053]     14a8:  0007a783   lw a5,0(a5) : a5(000017b0)
[  3316: 11056]     14ac:  00078067   jalr zero,0(a5)
--------------------------------------------------------
[  3317: 11060]     17b0:  f9c42783   lw a5,-100(s0) : a5(00020001)
[  3318: 11063]     17b4:  00178793   addi a5,a5,1 : a5(00020002)
[  3319: 11066]     17b8:  f8f42e23   sw a5,-100(s0)
[  3320: 11070]     17bc:  f9c42783   lw a5,-100(s0) : a5(00020002)
[  3321: 11074]     17c0:  0007c783   lbu a5,0(a5) : a5(00000020)
[  3322: 11078]     17c4:  ca0792e3   bne a5,zero,1468 (17c4 - 0x35c)
--------------------------------------------------------
[  3323: 11082]     1468:  fdc42783   lw a5,-36(s0) : a5(00000001)
[  3324: 11086]     146c:  2c078a63   beq a5,zero,1740 (146c + 0x2d4)
[  3325: 11090]     1470:  f9c42783   lw a5,-100(s0) : a5(00020002)
[  3326: 11094]     1474:  0007c783   lbu a5,0(a5) : a5(00000020)
[  3327: 11097]     1478:  03900713   li a4,57 (addi a4,zero,57) : a4(00000039)
[  3328: 11101]     147c:  02f74a63   blt a4,a5,14b0 (147c + 0x34)
[  3329: 11104]     1480:  03000713   li a4,48 (addi a4,zero,48) : a4(00000030)
[  3330: 11108]     1484:  28e7d663   bge a5,a4,1710 (1484 + 0x28c)
[  3331: 11111]     1488:  3280006f   jal zero,17b0 (1488 + 0x328)
--------------------------------------------------------
[  3332: 11115]     17b0:  f9c42783   lw a5,-100(s0) : a5(00020002)
[  3333: 11118]     17b4:  00178793   addi a5,a5,1 : a5(00020003)
[  3334: 11121]     17b8:  f8f42e23   sw a5,-100(s0)
[  3335: 11125]     17bc:  f9c42783   lw a5,-100(s0) : a5(00020003)
[  3336: 11129]     17c0:  0007c783   lbu a5,0(a5) : a5(0000002f)
[  3337: 11133]     17c4:  ca0792e3   bne a5,zero,1468 (17c4 - 0x35c)
--------------------------------------------------------
[  3338: 11137]     1468:  fdc42783   lw a5,-36(s0) : a5(00000001)
[  3339: 11141]     146c:  2c078a63   beq a5,zero,1740 (146c + 0x2d4)
[  3340: 11145]     1470:  f9c42783   lw a5,-100(s0) : a5(00020003)
[  3341: 11149]     1474:  0007c783   lbu a5,0(a5) : a5(0000002f)
[  3342: 11152]     1478:  03900713   li a4,57 (addi a4,zero,57) : a4(00000039)
[  3343: 11156]     147c:  02f74a63   blt a4,a5,14b0 (147c + 0x34)
[  3344: 11159]     1480:  03000713   li a4,48 (addi a4,zero,48) : a4(00000030)
[  3345: 11163]     1484:  28e7d663   bge a5,a4,1710 (1484 + 0x28c)
[  3346: 11166]     1488:  3280006f   jal zero,17b0 (1488 + 0x328)
--------------------------------------------------------
[  3347: 11170]     17b0:  f9c42783   lw a5,-100(s0) : a5(00020003)
[  3348: 11173]     17b4:  00178793   addi a5,a5,1 : a5(00020004)
[  3349: 11176]     17b8:  f8f42e23   sw a5,-100(s0)
[  3350: 11180]     17bc:  f9c42783   lw a5,-100(s0) : a5(00020004)
[  3351: 11184]     17c0:  0007c783   lbu a5,0(a5) : a5(00000020)
[  3352: 11188]     17c4:  ca0792e3   bne a5,zero,1468 (17c4 - 0x35c)
--------------------------------------------------------
[  3353: 11192]     1468:  fdc42783   lw a5,-36(s0) : a5(00000001)
[  3354: 11196]     146c:  2c078a63   beq a5,zero,1740 (146c + 0x2d4)
[  3355: 11200]     1470:  f9c42783   lw a5,-100(s0) : a5(00020004)
[  3356: 11204]     1474:  0007c783   lbu a5,0(a5) : a5(00000020)
[  3357: 11207]     1478:  03900713   li a4,57 (addi a4,zero,57) : a4(00000039)
[  3358: 11211]     147c:  02f74a63   blt a4,a5,14b0 (147c + 0x34)
[  3359: 11214]     1480:  03000713   li a4,48 (addi a4,zero,48) : a4(00000030)
[  3360: 11218]     1484:  28e7d663   bge a5,a4,1710 (1484 + 0x28c)
[  3361: 11221]     1488:  3280006f   jal zero,17b0 (1488 + 0x328)
--------------------------------------------------------
[  3362: 11225]     17b0:  f9c42783   lw a5,-100(s0) : a5(00020004)
[  3363: 11228]     17b4:  00178793   addi a5,a5,1 : a5(00020005)
[  3364: 11231]     17b8:  f8f42e23   sw a5,-100(s0)
[  3365: 11235]     17bc:  f9c42783   lw a5,-100(s0) : a5(00020005)
[  3366: 11239]     17c0:  0007c783   lbu a5,0(a5) : a5(00000025)
[  3367: 11243]     17c4:  ca0792e3   bne a5,zero,1468 (17c4 - 0x35c)
--------------------------------------------------------
[  3368: 11247]     1468:  fdc42783   lw a5,-36(s0) : a5(00000001)
[  3369: 11251]     146c:  2c078a63   beq a5,zero,1740 (146c + 0x2d4)
[  3370: 11255]     1470:  f9c42783   lw a5,-100(s0) : a5(00020005)
[  3371: 11259]     1474:  0007c783   lbu a5,0(a5) : a5(00000025)
[  3372: 11262]     1478:  03900713   li a4,57 (addi a4,zero,57) : a4(00000039)
[  3373: 11266]     147c:  02f74a63   blt a4,a5,14b0 (147c + 0x34)
[  3374: 11269]     1480:  03000713   li a4,48 (addi a4,zero,48) : a4(00000030)
[  3375: 11273]     1484:  28e7d663   bge a5,a4,1710 (1484 + 0x28c)
[  3376: 11276]     1488:  3280006f   jal zero,17b0 (1488 + 0x328)
--------------------------------------------------------
[  3377: 11280]     17b0:  f9c42783   lw a5,-100(s0) : a5(00020005)
[  3378: 11283]     17b4:  00178793   addi a5,a5,1 : a5(00020006)
[  3379: 11286]     17b8:  f8f42e23   sw a5,-100(s0)
[  3380: 11290]     17bc:  f9c42783   lw a5,-100(s0) : a5(00020006)
[  3381: 11294]     17c0:  0007c783   lbu a5,0(a5) : a5(00000075)
[  3382: 11298]     17c4:  ca0792e3   bne a5,zero,1468 (17c4 - 0x35c)
--------------------------------------------------------
[  3383: 11302]     1468:  fdc42783   lw a5,-36(s0) : a5(00000001)
[  3384: 11306]     146c:  2c078a63   beq a5,zero,1740 (146c + 0x2d4)
[  3385: 11310]     1470:  f9c42783   lw a5,-100(s0) : a5(00020006)
[  3386: 11314]     1474:  0007c783   lbu a5,0(a5) : a5(00000075)
[  3387: 11317]     1478:  03900713   li a4,57 (addi a4,zero,57) : a4(00000039)
[  3388: 11321]     147c:  02f74a63   blt a4,a5,14b0 (147c + 0x34)
--------------------------------------------------------
[  3389: 11324]     14b0:  07800713   li a4,120 (addi a4,zero,120) : a4(00000078)
[  3390: 11328]     14b4:  2ef74e63   blt a4,a5,17b0 (14b4 + 0x2fc)
[  3391: 11331]     14b8:  06300713   li a4,99 (addi a4,zero,99) : a4(00000063)
[  3392: 11335]     14bc:  fce7d8e3   bge a5,a4,148c (14bc - 0x30)
--------------------------------------------------------
[  3393: 11338]     148c:  f9d78793   addi a5,a5,-99 : a5(00000012)
[  3394: 11341]     1490:  01500713   li a4,21 (addi a4,zero,21) : a4(00000015)
[  3395: 11345]     1494:  30f76e63   bltu a4,a5,17b0 (1494 + 0x31c)
[  3396: 11348]     1498:  00279713   slli a4,a5,0x2 : a4(00000048)
[  3397: 11351]     149c:  000207b7   lui a5,0x20 : a5(00020000)
[  3398: 11354]     14a0:  01078793   addi a5,a5,16 : a5(00020010)
[  3399: 11357]     14a4:  00f707b3   add a5,a4,a5 : a5(00020058)
[  3400: 11361]     14a8:  0007a783   lw a5,0(a5) : a5(000017b0)
[  3401: 11364]     14ac:  00078067   jalr zero,0(a5)
--------------------------------------------------------
[  3402: 11368]     17b0:  f9c42783   lw a5,-100(s0) : a5(00020006)
[  3403: 11371]     17b4:  00178793   addi a5,a5,1 : a5(00020007)
[  3404: 11374]     17b8:  f8f42e23   sw a5,-100(s0)
[  3405: 11378]     17bc:  f9c42783   lw a5,-100(s0) : a5(00020007)
[  3406: 11382]     17c0:  0007c783   lbu a5,0(a5) : a5(00000020)
[  3407: 11386]     17c4:  ca0792e3   bne a5,zero,1468 (17c4 - 0x35c)
--------------------------------------------------------
[  3408: 11390]     1468:  fdc42783   lw a5,-36(s0) : a5(00000001)
[  3409: 11394]     146c:  2c078a63   beq a5,zero,1740 (146c + 0x2d4)
[  3410: 11398]     1470:  f9c42783   lw a5,-100(s0) : a5(00020007)
[  3411: 11402]     1474:  0007c783   lbu a5,0(a5) : a5(00000020)
[  3412: 11405]     1478:  03900713   li a4,57 (addi a4,zero,57) : a4(00000039)
[  3413: 11409]     147c:  02f74a63   blt a4,a5,14b0 (147c + 0x34)
[  3414: 11412]     1480:  03000713   li a4,48 (addi a4,zero,48) : a4(00000030)
[  3415: 11416]     1484:  28e7d663   bge a5,a4,1710 (1484 + 0x28c)
[  3416: 11419]     1488:  3280006f   jal zero,17b0 (1488 + 0x328)
--------------------------------------------------------
[  3417: 11423]     17b0:  f9c42783   lw a5,-100(s0) : a5(00020007)
[  3418: 11426]     17b4:  00178793   addi a5,a5,1 : a5(00020008)
[  3419: 11429]     17b8:  f8f42e23   sw a5,-100(s0)
[  3420: 11433]     17bc:  f9c42783   lw a5,-100(s0) : a5(00020008)
[  3421: 11437]     17c0:  0007c783   lbu a5,0(a5) : a5(0000003d)
[  3422: 11441]     17c4:  ca0792e3   bne a5,zero,1468 (17c4 - 0x35c)
--------------------------------------------------------
[  3423: 11445]     1468:  fdc42783   lw a5,-36(s0) : a5(00000001)
[  3424: 11449]     146c:  2c078a63   beq a5,zero,1740 (146c + 0x2d4)
[  3425: 11453]     1470:  f9c42783   lw a5,-100(s0) : a5(00020008)
[  3426: 11457]     1474:  0007c783   lbu a5,0(a5) : a5(0000003d)
[  3427: 11460]     1478:  03900713   li a4,57 (addi a4,zero,57) : a4(00000039)
[  3428: 11464]     147c:  02f74a63   blt a4,a5,14b0 (147c + 0x34)
--------------------------------------------------------
[  3429: 11467]     14b0:  07800713   li a4,120 (addi a4,zero,120) : a4(00000078)
[  3430: 11471]     14b4:  2ef74e63   blt a4,a5,17b0 (14b4 + 0x2fc)
[  3431: 11474]     14b8:  06300713   li a4,99 (addi a4,zero,99) : a4(00000063)
[  3432: 11478]     14bc:  fce7d8e3   bge a5,a4,148c (14bc - 0x30)
[  3433: 11481]     14c0:  2f00006f   jal zero,17b0 (14c0 + 0x2f0)
--------------------------------------------------------
[  3434: 11485]     17b0:  f9c42783   lw a5,-100(s0) : a5(00020008)
[  3435: 11488]     17b4:  00178793   addi a5,a5,1 : a5(00020009)
[  3436: 11491]     17b8:  f8f42e23   sw a5,-100(s0)
[  3437: 11495]     17bc:  f9c42783   lw a5,-100(s0) : a5(00020009)
[  3438: 11499]     17c0:  0007c783   lbu a5,0(a5) : a5(00000020)
[  3439: 11503]     17c4:  ca0792e3   bne a5,zero,1468 (17c4 - 0x35c)
--------------------------------------------------------
[  3440: 11507]     1468:  fdc42783   lw a5,-36(s0) : a5(00000001)
[  3441: 11511]     146c:  2c078a63   beq a5,zero,1740 (146c + 0x2d4)
[  3442: 11515]     1470:  f9c42783   lw a5,-100(s0) : a5(00020009)
[  3443: 11519]     1474:  0007c783   lbu a5,0(a5) : a5(00000020)
[  3444: 11522]     1478:  03900713   li a4,57 (addi a4,zero,57) : a4(00000039)
[  3445: 11526]     147c:  02f74a63   blt a4,a5,14b0 (147c + 0x34)
[  3446: 11529]     1480:  03000713   li a4,48 (addi a4,zero,48) : a4(00000030)
[  3447: 11533]     1484:  28e7d663   bge a5,a4,1710 (1484 + 0x28c)
[  3448: 11536]     1488:  3280006f   jal zero,17b0 (1488 + 0x328)
--------------------------------------------------------
[  3449: 11540]     17b0:  f9c42783   lw a5,-100(s0) : a5(00020009)
[  3450: 11543]     17b4:  00178793   addi a5,a5,1 : a5(0002000a)
[  3451: 11546]     17b8:  f8f42e23   sw a5,-100(s0)
[  3452: 11550]     17bc:  f9c42783   lw a5,-100(s0) : a5(0002000a)
[  3453: 11554]     17c0:  0007c783   lbu a5,0(a5) : a5(00000025)
[  3454: 11558]     17c4:  ca0792e3   bne a5,zero,1468 (17c4 - 0x35c)
--------------------------------------------------------
[  3455: 11562]     1468:  fdc42783   lw a5,-36(s0) : a5(00000001)
[  3456: 11566]     146c:  2c078a63   beq a5,zero,1740 (146c + 0x2d4)
[  3457: 11570]     1470:  f9c42783   lw a5,-100(s0) : a5(0002000a)
[  3458: 11574]     1474:  0007c783   lbu a5,0(a5) : a5(00000025)
[  3459: 11577]     1478:  03900713   li a4,57 (addi a4,zero,57) : a4(00000039)
[  3460: 11581]     147c:  02f74a63   blt a4,a5,14b0 (147c + 0x34)
[  3461: 11584]     1480:  03000713   li a4,48 (addi a4,zero,48) : a4(00000030)
[  3462: 11588]     1484:  28e7d663   bge a5,a4,1710 (1484 + 0x28c)
[  3463: 11591]     1488:  3280006f   jal zero,17b0 (1488 + 0x328)
--------------------------------------------------------
[  3464: 11595]     17b0:  f9c42783   lw a5,-100(s0) : a5(0002000a)
[  3465: 11598]     17b4:  00178793   addi a5,a5,1 : a5(0002000b)
[  3466: 11601]     17b8:  f8f42e23   sw a5,-100(s0)
[  3467: 11605]     17bc:  f9c42783   lw a5,-100(s0) : a5(0002000b)
[  3468: 11609]     17c0:  0007c783   lbu a5,0(a5) : a5(00000075)
[  3469: 11613]     17c4:  ca0792e3   bne a5,zero,1468 (17c4 - 0x35c)
--------------------------------------------------------
[  3470: 11617]     1468:  fdc42783   lw a5,-36(s0) : a5(00000001)
[  3471: 11621]     146c:  2c078a63   beq a5,zero,1740 (146c + 0x2d4)
[  3472: 11625]     1470:  f9c42783   lw a5,-100(s0) : a5(0002000b)
[  3473: 11629]     1474:  0007c783   lbu a5,0(a5) : a5(00000075)
[  3474: 11632]     1478:  03900713   li a4,57 (addi a4,zero,57) : a4(00000039)
[  3475: 11636]     147c:  02f74a63   blt a4,a5,14b0 (147c + 0x34)
--------------------------------------------------------
[  3476: 11639]     14b0:  07800713   li a4,120 (addi a4,zero,120) : a4(00000078)
[  3477: 11643]     14b4:  2ef74e63   blt a4,a5,17b0 (14b4 + 0x2fc)
[  3478: 11646]     14b8:  06300713   li a4,99 (addi a4,zero,99) : a4(00000063)
[  3479: 11650]     14bc:  fce7d8e3   bge a5,a4,148c (14bc - 0x30)
--------------------------------------------------------
[  3480: 11653]     148c:  f9d78793   addi a5,a5,-99 : a5(00000012)
[  3481: 11656]     1490:  01500713   li a4,21 (addi a4,zero,21) : a4(00000015)
[  3482: 11660]     1494:  30f76e63   bltu a4,a5,17b0 (1494 + 0x31c)
[  3483: 11663]     1498:  00279713   slli a4,a5,0x2 : a4(00000048)
[  3484: 11666]     149c:  000207b7   lui a5,0x20 : a5(00020000)
[  3485: 11669]     14a0:  01078793   addi a5,a5,16 : a5(00020010)
[  3486: 11672]     14a4:  00f707b3   add a5,a4,a5 : a5(00020058)
[  3487: 11676]     14a8:  0007a783   lw a5,0(a5) : a5(000017b0)
[  3488: 11679]     14ac:  00078067   jalr zero,0(a5)
--------------------------------------------------------
[  3489: 11683]     17b0:  f9c42783   lw a5,-100(s0) : a5(0002000b)
[  3490: 11686]     17b4:  00178793   addi a5,a5,1 : a5(0002000c)
[  3491: 11689]     17b8:  f8f42e23   sw a5,-100(s0)
[  3492: 11693]     17bc:  f9c42783   lw a5,-100(s0) : a5(0002000c)
[  3493: 11697]     17c0:  0007c783   lbu a5,0(a5) : a5(0000000a)
[  3494: 11701]     17c4:  ca0792e3   bne a5,zero,1468 (17c4 - 0x35c)
--------------------------------------------------------
[  3495: 11705]     1468:  fdc42783   lw a5,-36(s0) : a5(00000001)
[  3496: 11709]     146c:  2c078a63   beq a5,zero,1740 (146c + 0x2d4)
[  3497: 11713]     1470:  f9c42783   lw a5,-100(s0) : a5(0002000c)
[  3498: 11717]     1474:  0007c783   lbu a5,0(a5) : a5(0000000a)
[  3499: 11720]     1478:  03900713   li a4,57 (addi a4,zero,57) : a4(00000039)
[  3500: 11724]     147c:  02f74a63   blt a4,a5,14b0 (147c + 0x34)
[  3501: 11727]     1480:  03000713   li a4,48 (addi a4,zero,48) : a4(00000030)
[  3502: 11731]     1484:  28e7d663   bge a5,a4,1710 (1484 + 0x28c)
[  3503: 11734]     1488:  3280006f   jal zero,17b0 (1488 + 0x328)
--------------------------------------------------------
[  3504: 11738]     17b0:  f9c42783   lw a5,-100(s0) : a5(0002000c)
[  3505: 11741]     17b4:  00178793   addi a5,a5,1 : a5(0002000d)
[  3506: 11744]     17b8:  f8f42e23   sw a5,-100(s0)
[  3507: 11748]     17bc:  f9c42783   lw a5,-100(s0) : a5(0002000d)
[  3508: 11752]     17c0:  0007c783   lbu a5,0(a5) : a5(00000000)
[  3509: 11756]     17c4:  ca0792e3   bne a5,zero,1468 (17c4 - 0x35c)
[  3510: 11760]     17c8:  fb842783   lw a5,-72(s0) : a5(00000000)
[  3511: 11763]     17cc:  00078513   mv a0,a5 (addi a0,a5,0) : a0(00000000)
[  3512: 11767]     17d0:  06c12083   lw ra,108(sp) : ra(00001088)
[  3513: 11771]     17d4:  06812403   lw s0,104(sp) : s0(00024000)
[  3514: 11775]     17d8:  06412903   lw s2,100(sp) : s2(00000000)
[  3515: 11779]     17dc:  06012983   lw s3,96(sp) : s3(00000000)
[  3516: 11783]     17e0:  05c12a03   lw s4,92(sp) : s4(00000000)
[  3517: 11787]     17e4:  05812a83   lw s5,88(sp) : s5(00000000)
[  3518: 11790]     17e8:  09010113   addi sp,sp,144 : sp(00023fe0)
[  3519: 11793]     17ec:  00008067   ret : jalr zero,0(ra), a0(00000000) <return-value>
--------------------------------------------------------
[  3520: 11796]     1088:  00000793   li a5,0 (addi a5,zero,0) : a5(00000000)
[  3521: 11799]     108c:  00078513   mv a0,a5 (addi a0,a5,0) : a0(00000000)
[  3522: 11803]     1090:  01c12083   lw ra,28(sp) : ra(00001038)
[  3523: 11807]     1094:  01812403   lw s0,24(sp) : s0(00000000)
[  3524: 11810]     1098:  02010113   addi sp,sp,32 : sp(00024000)
[  3525: 11813]     109c:  00008067   ret : jalr zero,0(ra), a0(00000000) <return-value>
--------------------------------------------------------
[  3526: 11816]     1038:  005000ef   jal ra,183c (1038 + 0x804) <_io_fini>  : ra(0000103c)
--------------------------------------------------------
=============== 0000183c : <_io_fini> =================================
[  3527: 11819]     183c:  ff010113   addi sp,sp,-16 : sp(00023ff0)
[  3528: 11822]     1840:  00112623   sw ra,12(sp)
[  3529: 11825]     1844:  00812423   sw s0,8(sp)
[  3530: 11828]     1848:  01010413   addi s0,sp,16 : s0(00024000)
[  3531: 11831]     184c:  658000ef   jal ra,1ea4 (184c + 0x658) <flush_UART>  : ra(00001850)
--------------------------------------------------------
=============== 00001ea4 : <flush_UART> =================================
[  3532: 11834]     1ea4:  ff010113   addi sp,sp,-16 : sp(00023fe0)
[  3533: 11837]     1ea8:  00112623   sw ra,12(sp)
[  3534: 11840]     1eac:  00812423   sw s0,8(sp)
[  3535: 11843]     1eb0:  01010413   addi s0,sp,16 : s0(00023ff0)
[  3536: 11846]     1eb4:  00000013   li zero,0 (addi zero,zero,0)
[  3537: 11849]     1eb8:  000217b7   lui a5,0x21 : a5(00021000)
[  3538: 11852]     1ebc:  0b878793   addi a5,a5,184 : a5(000210b8)
[  3539: 11856]     1ec0:  0007c783   lbu a5,0(a5) : a5(00000000)
[  3540: 11859]     1ec4:  0ff7f793   andi a5,a5,255 : a5(00000000)
[  3541: 11863]     1ec8:  fe0798e3   bne a5,zero,1eb8 (1ec8 - 0x10)
[  3542: 11866]     1ecc:  000217b7   lui a5,0x21 : a5(00021000)
[  3543: 11869]     1ed0:  02478793   addi a5,a5,36 : a5(00021024)
[  3544: 11873]     1ed4:  0007a783   lw a5,0(a5) : a5(10000000)
[  3545: 11881]     1ed8:  0047a783   lw a5,4(a5) : a5(0000000a)
[  3546: 11884]     1edc:  0027f793   andi a5,a5,2 : a5(00000002)
[  3547: 11888]     1ee0:  fc078ce3   beq a5,zero,1eb8 (1ee0 - 0x28)
[  3548: 11891]     1ee4:  000217b7   lui a5,0x21 : a5(00021000)
[  3549: 11894]     1ee8:  02478793   addi a5,a5,36 : a5(00021024)
[  3550: 11898]     1eec:  0007a783   lw a5,0(a5) : a5(10000000)
[  3551: 11906]     1ef0:  0047a783   lw a5,4(a5) : a5(0000000a)
[  3552: 11909]     1ef4:  0107f793   andi a5,a5,16 : a5(00000000)
[  3553: 11913]     1ef8:  fc0790e3   bne a5,zero,1eb8 (1ef8 - 0x40)
[  3554: 11916]     1efc:  00000013   li zero,0 (addi zero,zero,0)
[  3555: 11919]     1f00:  000217b7   lui a5,0x21 : a5(00021000)
[  3556: 11922]     1f04:  0b878793   addi a5,a5,184 : a5(000210b8)
[  3557: 11926]     1f08:  03c7c783   lbu a5,60(a5) : a5(00000000)
[  3558: 11929]     1f0c:  0ff7f793   andi a5,a5,255 : a5(00000000)
[  3559: 11933]     1f10:  fe0798e3   bne a5,zero,1f00 (1f10 - 0x10)
[  3560: 11936]     1f14:  000217b7   lui a5,0x21 : a5(00021000)
[  3561: 11939]     1f18:  02478793   addi a5,a5,36 : a5(00021024)
[  3562: 11943]     1f1c:  0047a783   lw a5,4(a5) : a5(10000040)
[  3563: 11951]     1f20:  0047a783   lw a5,4(a5) : a5(0000000a)
[  3564: 11954]     1f24:  0027f793   andi a5,a5,2 : a5(00000002)
[  3565: 11958]     1f28:  fc078ce3   beq a5,zero,1f00 (1f28 - 0x28)
[  3566: 11961]     1f2c:  000217b7   lui a5,0x21 : a5(00021000)
[  3567: 11964]     1f30:  02478793   addi a5,a5,36 : a5(00021024)
[  3568: 11968]     1f34:  0047a783   lw a5,4(a5) : a5(10000040)
[  3569: 11976]     1f38:  0047a783   lw a5,4(a5) : a5(0000000a)
[  3570: 11979]     1f3c:  0107f793   andi a5,a5,16 : a5(00000000)
[  3571: 11983]     1f40:  fc0790e3   bne a5,zero,1f00 (1f40 - 0x40)
[  3572: 11986]     1f44:  00000013   li zero,0 (addi zero,zero,0)
[  3573: 11989]     1f48:  00000013   li zero,0 (addi zero,zero,0)
[  3574: 11993]     1f4c:  00c12083   lw ra,12(sp) : ra(00001850)
[  3575: 11997]     1f50:  00812403   lw s0,8(sp) : s0(00024000)
[  3576: 12000]     1f54:  01010113   addi sp,sp,16 : sp(00023ff0)
[  3577: 12003]     1f58:  00008067   ret : jalr zero,0(ra), a0(00000000) <return-value>
--------------------------------------------------------
[  3578: 12006]     1850:  00000013   li zero,0 (addi zero,zero,0)
[  3579: 12010]     1854:  00c12083   lw ra,12(sp) : ra(0000103c)
[  3580: 12014]     1858:  00812403   lw s0,8(sp) : s0(00000000)
[  3581: 12017]     185c:  01010113   addi sp,sp,16 : sp(00024000)
[  3582: 12020]     1860:  00008067   ret : jalr zero,0(ra), a0(00000000) <return-value>
--------------------------------------------------------
